
PWM_separate_files.elf:     file format elf32-littlearm

Sections:
Idx Name          Size      VMA       LMA       File off  Algn
  0 .isr_vector   00000188  08000000  08000000  00010000  2**0
                  CONTENTS, ALLOC, LOAD, READONLY, DATA
  1 .text         0000902c  08000190  08000190  00010190  2**4
                  CONTENTS, ALLOC, LOAD, READONLY, CODE
  2 .rodata       00002e70  080091c0  080091c0  000191c0  2**3
                  CONTENTS, ALLOC, LOAD, READONLY, DATA
  3 .ARM.extab    00000000  0800c030  0800c030  000204c8  2**0
                  CONTENTS
  4 .ARM          00000000  0800c030  0800c030  000204c8  2**0
                  CONTENTS
  5 .preinit_array 00000000  0800c030  0800c030  000204c8  2**0
                  CONTENTS, ALLOC, LOAD, DATA
  6 .init_array   00000004  0800c030  0800c030  0001c030  2**2
                  CONTENTS, ALLOC, LOAD, DATA
  7 .fini_array   00000004  0800c034  0800c034  0001c034  2**2
                  CONTENTS, ALLOC, LOAD, DATA
  8 .data         000004c8  20000000  0800c038  00020000  2**2
                  CONTENTS, ALLOC, LOAD, DATA
  9 .bss          00000560  200004c8  0800c500  000204c8  2**2
                  ALLOC
 10 ._user_heap_stack 00000600  20000a28  0800c500  00020a28  2**0
                  ALLOC
 11 .ARM.attributes 00000030  00000000  00000000  000204c8  2**0
                  CONTENTS, READONLY
 12 .debug_info   000178fc  00000000  00000000  000204f8  2**0
                  CONTENTS, READONLY, DEBUGGING
 13 .debug_abbrev 00002fbb  00000000  00000000  00037df4  2**0
                  CONTENTS, READONLY, DEBUGGING
 14 .debug_aranges 00001198  00000000  00000000  0003adb0  2**3
                  CONTENTS, READONLY, DEBUGGING
 15 .debug_ranges 00000ff8  00000000  00000000  0003bf48  2**3
                  CONTENTS, READONLY, DEBUGGING
 16 .debug_macro  00028a46  00000000  00000000  0003cf40  2**0
                  CONTENTS, READONLY, DEBUGGING
 17 .debug_line   0001133d  00000000  00000000  00065986  2**0
                  CONTENTS, READONLY, DEBUGGING
 18 .debug_str    000f1608  00000000  00000000  00076cc3  2**0
                  CONTENTS, READONLY, DEBUGGING
 19 .comment      0000007b  00000000  00000000  001682cb  2**0
                  CONTENTS, READONLY
 20 .debug_frame  000051ac  00000000  00000000  00168348  2**2
                  CONTENTS, READONLY, DEBUGGING

Disassembly of section .text:

08000190 <__do_global_dtors_aux>:
 8000190:	b510      	push	{r4, lr}
 8000192:	4c05      	ldr	r4, [pc, #20]	; (80001a8 <__do_global_dtors_aux+0x18>)
 8000194:	7823      	ldrb	r3, [r4, #0]
 8000196:	b933      	cbnz	r3, 80001a6 <__do_global_dtors_aux+0x16>
 8000198:	4b04      	ldr	r3, [pc, #16]	; (80001ac <__do_global_dtors_aux+0x1c>)
 800019a:	b113      	cbz	r3, 80001a2 <__do_global_dtors_aux+0x12>
 800019c:	4804      	ldr	r0, [pc, #16]	; (80001b0 <__do_global_dtors_aux+0x20>)
 800019e:	f3af 8000 	nop.w
 80001a2:	2301      	movs	r3, #1
 80001a4:	7023      	strb	r3, [r4, #0]
 80001a6:	bd10      	pop	{r4, pc}
 80001a8:	200004c8 	.word	0x200004c8
 80001ac:	00000000 	.word	0x00000000
 80001b0:	080091a4 	.word	0x080091a4

080001b4 <frame_dummy>:
 80001b4:	b508      	push	{r3, lr}
 80001b6:	4b03      	ldr	r3, [pc, #12]	; (80001c4 <frame_dummy+0x10>)
 80001b8:	b11b      	cbz	r3, 80001c2 <frame_dummy+0xe>
 80001ba:	4903      	ldr	r1, [pc, #12]	; (80001c8 <frame_dummy+0x14>)
 80001bc:	4803      	ldr	r0, [pc, #12]	; (80001cc <frame_dummy+0x18>)
 80001be:	f3af 8000 	nop.w
 80001c2:	bd08      	pop	{r3, pc}
 80001c4:	00000000 	.word	0x00000000
 80001c8:	200004cc 	.word	0x200004cc
 80001cc:	080091a4 	.word	0x080091a4

080001d0 <strlen>:
 80001d0:	4603      	mov	r3, r0
 80001d2:	f813 2b01 	ldrb.w	r2, [r3], #1
 80001d6:	2a00      	cmp	r2, #0
 80001d8:	d1fb      	bne.n	80001d2 <strlen+0x2>
 80001da:	1a18      	subs	r0, r3, r0
 80001dc:	3801      	subs	r0, #1
 80001de:	4770      	bx	lr

080001e0 <memchr>:
 80001e0:	f001 01ff 	and.w	r1, r1, #255	; 0xff
 80001e4:	2a10      	cmp	r2, #16
 80001e6:	db2b      	blt.n	8000240 <memchr+0x60>
 80001e8:	f010 0f07 	tst.w	r0, #7
 80001ec:	d008      	beq.n	8000200 <memchr+0x20>
 80001ee:	f810 3b01 	ldrb.w	r3, [r0], #1
 80001f2:	3a01      	subs	r2, #1
 80001f4:	428b      	cmp	r3, r1
 80001f6:	d02d      	beq.n	8000254 <memchr+0x74>
 80001f8:	f010 0f07 	tst.w	r0, #7
 80001fc:	b342      	cbz	r2, 8000250 <memchr+0x70>
 80001fe:	d1f6      	bne.n	80001ee <memchr+0xe>
 8000200:	b4f0      	push	{r4, r5, r6, r7}
 8000202:	ea41 2101 	orr.w	r1, r1, r1, lsl #8
 8000206:	ea41 4101 	orr.w	r1, r1, r1, lsl #16
 800020a:	f022 0407 	bic.w	r4, r2, #7
 800020e:	f07f 0700 	mvns.w	r7, #0
 8000212:	2300      	movs	r3, #0
 8000214:	e8f0 5602 	ldrd	r5, r6, [r0], #8
 8000218:	3c08      	subs	r4, #8
 800021a:	ea85 0501 	eor.w	r5, r5, r1
 800021e:	ea86 0601 	eor.w	r6, r6, r1
 8000222:	fa85 f547 	uadd8	r5, r5, r7
 8000226:	faa3 f587 	sel	r5, r3, r7
 800022a:	fa86 f647 	uadd8	r6, r6, r7
 800022e:	faa5 f687 	sel	r6, r5, r7
 8000232:	b98e      	cbnz	r6, 8000258 <memchr+0x78>
 8000234:	d1ee      	bne.n	8000214 <memchr+0x34>
 8000236:	bcf0      	pop	{r4, r5, r6, r7}
 8000238:	f001 01ff 	and.w	r1, r1, #255	; 0xff
 800023c:	f002 0207 	and.w	r2, r2, #7
 8000240:	b132      	cbz	r2, 8000250 <memchr+0x70>
 8000242:	f810 3b01 	ldrb.w	r3, [r0], #1
 8000246:	3a01      	subs	r2, #1
 8000248:	ea83 0301 	eor.w	r3, r3, r1
 800024c:	b113      	cbz	r3, 8000254 <memchr+0x74>
 800024e:	d1f8      	bne.n	8000242 <memchr+0x62>
 8000250:	2000      	movs	r0, #0
 8000252:	4770      	bx	lr
 8000254:	3801      	subs	r0, #1
 8000256:	4770      	bx	lr
 8000258:	2d00      	cmp	r5, #0
 800025a:	bf06      	itte	eq
 800025c:	4635      	moveq	r5, r6
 800025e:	3803      	subeq	r0, #3
 8000260:	3807      	subne	r0, #7
 8000262:	f015 0f01 	tst.w	r5, #1
 8000266:	d107      	bne.n	8000278 <memchr+0x98>
 8000268:	3001      	adds	r0, #1
 800026a:	f415 7f80 	tst.w	r5, #256	; 0x100
 800026e:	bf02      	ittt	eq
 8000270:	3001      	addeq	r0, #1
 8000272:	f415 3fc0 	tsteq.w	r5, #98304	; 0x18000
 8000276:	3001      	addeq	r0, #1
 8000278:	bcf0      	pop	{r4, r5, r6, r7}
 800027a:	3801      	subs	r0, #1
 800027c:	4770      	bx	lr
 800027e:	bf00      	nop

08000280 <__aeabi_drsub>:
 8000280:	f081 4100 	eor.w	r1, r1, #2147483648	; 0x80000000
 8000284:	e002      	b.n	800028c <__adddf3>
 8000286:	bf00      	nop

08000288 <__aeabi_dsub>:
 8000288:	f083 4300 	eor.w	r3, r3, #2147483648	; 0x80000000

0800028c <__adddf3>:
 800028c:	b530      	push	{r4, r5, lr}
 800028e:	ea4f 0441 	mov.w	r4, r1, lsl #1
 8000292:	ea4f 0543 	mov.w	r5, r3, lsl #1
 8000296:	ea94 0f05 	teq	r4, r5
 800029a:	bf08      	it	eq
 800029c:	ea90 0f02 	teqeq	r0, r2
 80002a0:	bf1f      	itttt	ne
 80002a2:	ea54 0c00 	orrsne.w	ip, r4, r0
 80002a6:	ea55 0c02 	orrsne.w	ip, r5, r2
 80002aa:	ea7f 5c64 	mvnsne.w	ip, r4, asr #21
 80002ae:	ea7f 5c65 	mvnsne.w	ip, r5, asr #21
 80002b2:	f000 80e2 	beq.w	800047a <__adddf3+0x1ee>
 80002b6:	ea4f 5454 	mov.w	r4, r4, lsr #21
 80002ba:	ebd4 5555 	rsbs	r5, r4, r5, lsr #21
 80002be:	bfb8      	it	lt
 80002c0:	426d      	neglt	r5, r5
 80002c2:	dd0c      	ble.n	80002de <__adddf3+0x52>
 80002c4:	442c      	add	r4, r5
 80002c6:	ea80 0202 	eor.w	r2, r0, r2
 80002ca:	ea81 0303 	eor.w	r3, r1, r3
 80002ce:	ea82 0000 	eor.w	r0, r2, r0
 80002d2:	ea83 0101 	eor.w	r1, r3, r1
 80002d6:	ea80 0202 	eor.w	r2, r0, r2
 80002da:	ea81 0303 	eor.w	r3, r1, r3
 80002de:	2d36      	cmp	r5, #54	; 0x36
 80002e0:	bf88      	it	hi
 80002e2:	bd30      	pophi	{r4, r5, pc}
 80002e4:	f011 4f00 	tst.w	r1, #2147483648	; 0x80000000
 80002e8:	ea4f 3101 	mov.w	r1, r1, lsl #12
 80002ec:	f44f 1c80 	mov.w	ip, #1048576	; 0x100000
 80002f0:	ea4c 3111 	orr.w	r1, ip, r1, lsr #12
 80002f4:	d002      	beq.n	80002fc <__adddf3+0x70>
 80002f6:	4240      	negs	r0, r0
 80002f8:	eb61 0141 	sbc.w	r1, r1, r1, lsl #1
 80002fc:	f013 4f00 	tst.w	r3, #2147483648	; 0x80000000
 8000300:	ea4f 3303 	mov.w	r3, r3, lsl #12
 8000304:	ea4c 3313 	orr.w	r3, ip, r3, lsr #12
 8000308:	d002      	beq.n	8000310 <__adddf3+0x84>
 800030a:	4252      	negs	r2, r2
 800030c:	eb63 0343 	sbc.w	r3, r3, r3, lsl #1
 8000310:	ea94 0f05 	teq	r4, r5
 8000314:	f000 80a7 	beq.w	8000466 <__adddf3+0x1da>
 8000318:	f1a4 0401 	sub.w	r4, r4, #1
 800031c:	f1d5 0e20 	rsbs	lr, r5, #32
 8000320:	db0d      	blt.n	800033e <__adddf3+0xb2>
 8000322:	fa02 fc0e 	lsl.w	ip, r2, lr
 8000326:	fa22 f205 	lsr.w	r2, r2, r5
 800032a:	1880      	adds	r0, r0, r2
 800032c:	f141 0100 	adc.w	r1, r1, #0
 8000330:	fa03 f20e 	lsl.w	r2, r3, lr
 8000334:	1880      	adds	r0, r0, r2
 8000336:	fa43 f305 	asr.w	r3, r3, r5
 800033a:	4159      	adcs	r1, r3
 800033c:	e00e      	b.n	800035c <__adddf3+0xd0>
 800033e:	f1a5 0520 	sub.w	r5, r5, #32
 8000342:	f10e 0e20 	add.w	lr, lr, #32
 8000346:	2a01      	cmp	r2, #1
 8000348:	fa03 fc0e 	lsl.w	ip, r3, lr
 800034c:	bf28      	it	cs
 800034e:	f04c 0c02 	orrcs.w	ip, ip, #2
 8000352:	fa43 f305 	asr.w	r3, r3, r5
 8000356:	18c0      	adds	r0, r0, r3
 8000358:	eb51 71e3 	adcs.w	r1, r1, r3, asr #31
 800035c:	f001 4500 	and.w	r5, r1, #2147483648	; 0x80000000
 8000360:	d507      	bpl.n	8000372 <__adddf3+0xe6>
 8000362:	f04f 0e00 	mov.w	lr, #0
 8000366:	f1dc 0c00 	rsbs	ip, ip, #0
 800036a:	eb7e 0000 	sbcs.w	r0, lr, r0
 800036e:	eb6e 0101 	sbc.w	r1, lr, r1
 8000372:	f5b1 1f80 	cmp.w	r1, #1048576	; 0x100000
 8000376:	d31b      	bcc.n	80003b0 <__adddf3+0x124>
 8000378:	f5b1 1f00 	cmp.w	r1, #2097152	; 0x200000
 800037c:	d30c      	bcc.n	8000398 <__adddf3+0x10c>
 800037e:	0849      	lsrs	r1, r1, #1
 8000380:	ea5f 0030 	movs.w	r0, r0, rrx
 8000384:	ea4f 0c3c 	mov.w	ip, ip, rrx
 8000388:	f104 0401 	add.w	r4, r4, #1
 800038c:	ea4f 5244 	mov.w	r2, r4, lsl #21
 8000390:	f512 0f80 	cmn.w	r2, #4194304	; 0x400000
 8000394:	f080 809a 	bcs.w	80004cc <__adddf3+0x240>
 8000398:	f1bc 4f00 	cmp.w	ip, #2147483648	; 0x80000000
 800039c:	bf08      	it	eq
 800039e:	ea5f 0c50 	movseq.w	ip, r0, lsr #1
 80003a2:	f150 0000 	adcs.w	r0, r0, #0
 80003a6:	eb41 5104 	adc.w	r1, r1, r4, lsl #20
 80003aa:	ea41 0105 	orr.w	r1, r1, r5
 80003ae:	bd30      	pop	{r4, r5, pc}
 80003b0:	ea5f 0c4c 	movs.w	ip, ip, lsl #1
 80003b4:	4140      	adcs	r0, r0
 80003b6:	eb41 0101 	adc.w	r1, r1, r1
 80003ba:	f411 1f80 	tst.w	r1, #1048576	; 0x100000
 80003be:	f1a4 0401 	sub.w	r4, r4, #1
 80003c2:	d1e9      	bne.n	8000398 <__adddf3+0x10c>
 80003c4:	f091 0f00 	teq	r1, #0
 80003c8:	bf04      	itt	eq
 80003ca:	4601      	moveq	r1, r0
 80003cc:	2000      	moveq	r0, #0
 80003ce:	fab1 f381 	clz	r3, r1
 80003d2:	bf08      	it	eq
 80003d4:	3320      	addeq	r3, #32
 80003d6:	f1a3 030b 	sub.w	r3, r3, #11
 80003da:	f1b3 0220 	subs.w	r2, r3, #32
 80003de:	da0c      	bge.n	80003fa <__adddf3+0x16e>
 80003e0:	320c      	adds	r2, #12
 80003e2:	dd08      	ble.n	80003f6 <__adddf3+0x16a>
 80003e4:	f102 0c14 	add.w	ip, r2, #20
 80003e8:	f1c2 020c 	rsb	r2, r2, #12
 80003ec:	fa01 f00c 	lsl.w	r0, r1, ip
 80003f0:	fa21 f102 	lsr.w	r1, r1, r2
 80003f4:	e00c      	b.n	8000410 <__adddf3+0x184>
 80003f6:	f102 0214 	add.w	r2, r2, #20
 80003fa:	bfd8      	it	le
 80003fc:	f1c2 0c20 	rsble	ip, r2, #32
 8000400:	fa01 f102 	lsl.w	r1, r1, r2
 8000404:	fa20 fc0c 	lsr.w	ip, r0, ip
 8000408:	bfdc      	itt	le
 800040a:	ea41 010c 	orrle.w	r1, r1, ip
 800040e:	4090      	lslle	r0, r2
 8000410:	1ae4      	subs	r4, r4, r3
 8000412:	bfa2      	ittt	ge
 8000414:	eb01 5104 	addge.w	r1, r1, r4, lsl #20
 8000418:	4329      	orrge	r1, r5
 800041a:	bd30      	popge	{r4, r5, pc}
 800041c:	ea6f 0404 	mvn.w	r4, r4
 8000420:	3c1f      	subs	r4, #31
 8000422:	da1c      	bge.n	800045e <__adddf3+0x1d2>
 8000424:	340c      	adds	r4, #12
 8000426:	dc0e      	bgt.n	8000446 <__adddf3+0x1ba>
 8000428:	f104 0414 	add.w	r4, r4, #20
 800042c:	f1c4 0220 	rsb	r2, r4, #32
 8000430:	fa20 f004 	lsr.w	r0, r0, r4
 8000434:	fa01 f302 	lsl.w	r3, r1, r2
 8000438:	ea40 0003 	orr.w	r0, r0, r3
 800043c:	fa21 f304 	lsr.w	r3, r1, r4
 8000440:	ea45 0103 	orr.w	r1, r5, r3
 8000444:	bd30      	pop	{r4, r5, pc}
 8000446:	f1c4 040c 	rsb	r4, r4, #12
 800044a:	f1c4 0220 	rsb	r2, r4, #32
 800044e:	fa20 f002 	lsr.w	r0, r0, r2
 8000452:	fa01 f304 	lsl.w	r3, r1, r4
 8000456:	ea40 0003 	orr.w	r0, r0, r3
 800045a:	4629      	mov	r1, r5
 800045c:	bd30      	pop	{r4, r5, pc}
 800045e:	fa21 f004 	lsr.w	r0, r1, r4
 8000462:	4629      	mov	r1, r5
 8000464:	bd30      	pop	{r4, r5, pc}
 8000466:	f094 0f00 	teq	r4, #0
 800046a:	f483 1380 	eor.w	r3, r3, #1048576	; 0x100000
 800046e:	bf06      	itte	eq
 8000470:	f481 1180 	eoreq.w	r1, r1, #1048576	; 0x100000
 8000474:	3401      	addeq	r4, #1
 8000476:	3d01      	subne	r5, #1
 8000478:	e74e      	b.n	8000318 <__adddf3+0x8c>
 800047a:	ea7f 5c64 	mvns.w	ip, r4, asr #21
 800047e:	bf18      	it	ne
 8000480:	ea7f 5c65 	mvnsne.w	ip, r5, asr #21
 8000484:	d029      	beq.n	80004da <__adddf3+0x24e>
 8000486:	ea94 0f05 	teq	r4, r5
 800048a:	bf08      	it	eq
 800048c:	ea90 0f02 	teqeq	r0, r2
 8000490:	d005      	beq.n	800049e <__adddf3+0x212>
 8000492:	ea54 0c00 	orrs.w	ip, r4, r0
 8000496:	bf04      	itt	eq
 8000498:	4619      	moveq	r1, r3
 800049a:	4610      	moveq	r0, r2
 800049c:	bd30      	pop	{r4, r5, pc}
 800049e:	ea91 0f03 	teq	r1, r3
 80004a2:	bf1e      	ittt	ne
 80004a4:	2100      	movne	r1, #0
 80004a6:	2000      	movne	r0, #0
 80004a8:	bd30      	popne	{r4, r5, pc}
 80004aa:	ea5f 5c54 	movs.w	ip, r4, lsr #21
 80004ae:	d105      	bne.n	80004bc <__adddf3+0x230>
 80004b0:	0040      	lsls	r0, r0, #1
 80004b2:	4149      	adcs	r1, r1
 80004b4:	bf28      	it	cs
 80004b6:	f041 4100 	orrcs.w	r1, r1, #2147483648	; 0x80000000
 80004ba:	bd30      	pop	{r4, r5, pc}
 80004bc:	f514 0480 	adds.w	r4, r4, #4194304	; 0x400000
 80004c0:	bf3c      	itt	cc
 80004c2:	f501 1180 	addcc.w	r1, r1, #1048576	; 0x100000
 80004c6:	bd30      	popcc	{r4, r5, pc}
 80004c8:	f001 4500 	and.w	r5, r1, #2147483648	; 0x80000000
 80004cc:	f045 41fe 	orr.w	r1, r5, #2130706432	; 0x7f000000
 80004d0:	f441 0170 	orr.w	r1, r1, #15728640	; 0xf00000
 80004d4:	f04f 0000 	mov.w	r0, #0
 80004d8:	bd30      	pop	{r4, r5, pc}
 80004da:	ea7f 5c64 	mvns.w	ip, r4, asr #21
 80004de:	bf1a      	itte	ne
 80004e0:	4619      	movne	r1, r3
 80004e2:	4610      	movne	r0, r2
 80004e4:	ea7f 5c65 	mvnseq.w	ip, r5, asr #21
 80004e8:	bf1c      	itt	ne
 80004ea:	460b      	movne	r3, r1
 80004ec:	4602      	movne	r2, r0
 80004ee:	ea50 3401 	orrs.w	r4, r0, r1, lsl #12
 80004f2:	bf06      	itte	eq
 80004f4:	ea52 3503 	orrseq.w	r5, r2, r3, lsl #12
 80004f8:	ea91 0f03 	teqeq	r1, r3
 80004fc:	f441 2100 	orrne.w	r1, r1, #524288	; 0x80000
 8000500:	bd30      	pop	{r4, r5, pc}
 8000502:	bf00      	nop

08000504 <__aeabi_ui2d>:
 8000504:	f090 0f00 	teq	r0, #0
 8000508:	bf04      	itt	eq
 800050a:	2100      	moveq	r1, #0
 800050c:	4770      	bxeq	lr
 800050e:	b530      	push	{r4, r5, lr}
 8000510:	f44f 6480 	mov.w	r4, #1024	; 0x400
 8000514:	f104 0432 	add.w	r4, r4, #50	; 0x32
 8000518:	f04f 0500 	mov.w	r5, #0
 800051c:	f04f 0100 	mov.w	r1, #0
 8000520:	e750      	b.n	80003c4 <__adddf3+0x138>
 8000522:	bf00      	nop

08000524 <__aeabi_i2d>:
 8000524:	f090 0f00 	teq	r0, #0
 8000528:	bf04      	itt	eq
 800052a:	2100      	moveq	r1, #0
 800052c:	4770      	bxeq	lr
 800052e:	b530      	push	{r4, r5, lr}
 8000530:	f44f 6480 	mov.w	r4, #1024	; 0x400
 8000534:	f104 0432 	add.w	r4, r4, #50	; 0x32
 8000538:	f010 4500 	ands.w	r5, r0, #2147483648	; 0x80000000
 800053c:	bf48      	it	mi
 800053e:	4240      	negmi	r0, r0
 8000540:	f04f 0100 	mov.w	r1, #0
 8000544:	e73e      	b.n	80003c4 <__adddf3+0x138>
 8000546:	bf00      	nop

08000548 <__aeabi_f2d>:
 8000548:	0042      	lsls	r2, r0, #1
 800054a:	ea4f 01e2 	mov.w	r1, r2, asr #3
 800054e:	ea4f 0131 	mov.w	r1, r1, rrx
 8000552:	ea4f 7002 	mov.w	r0, r2, lsl #28
 8000556:	bf1f      	itttt	ne
 8000558:	f012 437f 	andsne.w	r3, r2, #4278190080	; 0xff000000
 800055c:	f093 4f7f 	teqne	r3, #4278190080	; 0xff000000
 8000560:	f081 5160 	eorne.w	r1, r1, #939524096	; 0x38000000
 8000564:	4770      	bxne	lr
 8000566:	f032 427f 	bics.w	r2, r2, #4278190080	; 0xff000000
 800056a:	bf08      	it	eq
 800056c:	4770      	bxeq	lr
 800056e:	f093 4f7f 	teq	r3, #4278190080	; 0xff000000
 8000572:	bf04      	itt	eq
 8000574:	f441 2100 	orreq.w	r1, r1, #524288	; 0x80000
 8000578:	4770      	bxeq	lr
 800057a:	b530      	push	{r4, r5, lr}
 800057c:	f44f 7460 	mov.w	r4, #896	; 0x380
 8000580:	f001 4500 	and.w	r5, r1, #2147483648	; 0x80000000
 8000584:	f021 4100 	bic.w	r1, r1, #2147483648	; 0x80000000
 8000588:	e71c      	b.n	80003c4 <__adddf3+0x138>
 800058a:	bf00      	nop

0800058c <__aeabi_ul2d>:
 800058c:	ea50 0201 	orrs.w	r2, r0, r1
 8000590:	bf08      	it	eq
 8000592:	4770      	bxeq	lr
 8000594:	b530      	push	{r4, r5, lr}
 8000596:	f04f 0500 	mov.w	r5, #0
 800059a:	e00a      	b.n	80005b2 <__aeabi_l2d+0x16>

0800059c <__aeabi_l2d>:
 800059c:	ea50 0201 	orrs.w	r2, r0, r1
 80005a0:	bf08      	it	eq
 80005a2:	4770      	bxeq	lr
 80005a4:	b530      	push	{r4, r5, lr}
 80005a6:	f011 4500 	ands.w	r5, r1, #2147483648	; 0x80000000
 80005aa:	d502      	bpl.n	80005b2 <__aeabi_l2d+0x16>
 80005ac:	4240      	negs	r0, r0
 80005ae:	eb61 0141 	sbc.w	r1, r1, r1, lsl #1
 80005b2:	f44f 6480 	mov.w	r4, #1024	; 0x400
 80005b6:	f104 0432 	add.w	r4, r4, #50	; 0x32
 80005ba:	ea5f 5c91 	movs.w	ip, r1, lsr #22
 80005be:	f43f aed8 	beq.w	8000372 <__adddf3+0xe6>
 80005c2:	f04f 0203 	mov.w	r2, #3
 80005c6:	ea5f 0cdc 	movs.w	ip, ip, lsr #3
 80005ca:	bf18      	it	ne
 80005cc:	3203      	addne	r2, #3
 80005ce:	ea5f 0cdc 	movs.w	ip, ip, lsr #3
 80005d2:	bf18      	it	ne
 80005d4:	3203      	addne	r2, #3
 80005d6:	eb02 02dc 	add.w	r2, r2, ip, lsr #3
 80005da:	f1c2 0320 	rsb	r3, r2, #32
 80005de:	fa00 fc03 	lsl.w	ip, r0, r3
 80005e2:	fa20 f002 	lsr.w	r0, r0, r2
 80005e6:	fa01 fe03 	lsl.w	lr, r1, r3
 80005ea:	ea40 000e 	orr.w	r0, r0, lr
 80005ee:	fa21 f102 	lsr.w	r1, r1, r2
 80005f2:	4414      	add	r4, r2
 80005f4:	e6bd      	b.n	8000372 <__adddf3+0xe6>
 80005f6:	bf00      	nop

080005f8 <__aeabi_dmul>:
 80005f8:	b570      	push	{r4, r5, r6, lr}
 80005fa:	f04f 0cff 	mov.w	ip, #255	; 0xff
 80005fe:	f44c 6ce0 	orr.w	ip, ip, #1792	; 0x700
 8000602:	ea1c 5411 	ands.w	r4, ip, r1, lsr #20
 8000606:	bf1d      	ittte	ne
 8000608:	ea1c 5513 	andsne.w	r5, ip, r3, lsr #20
 800060c:	ea94 0f0c 	teqne	r4, ip
 8000610:	ea95 0f0c 	teqne	r5, ip
 8000614:	f000 f8de 	bleq	80007d4 <__aeabi_dmul+0x1dc>
 8000618:	442c      	add	r4, r5
 800061a:	ea81 0603 	eor.w	r6, r1, r3
 800061e:	ea21 514c 	bic.w	r1, r1, ip, lsl #21
 8000622:	ea23 534c 	bic.w	r3, r3, ip, lsl #21
 8000626:	ea50 3501 	orrs.w	r5, r0, r1, lsl #12
 800062a:	bf18      	it	ne
 800062c:	ea52 3503 	orrsne.w	r5, r2, r3, lsl #12
 8000630:	f441 1180 	orr.w	r1, r1, #1048576	; 0x100000
 8000634:	f443 1380 	orr.w	r3, r3, #1048576	; 0x100000
 8000638:	d038      	beq.n	80006ac <__aeabi_dmul+0xb4>
 800063a:	fba0 ce02 	umull	ip, lr, r0, r2
 800063e:	f04f 0500 	mov.w	r5, #0
 8000642:	fbe1 e502 	umlal	lr, r5, r1, r2
 8000646:	f006 4200 	and.w	r2, r6, #2147483648	; 0x80000000
 800064a:	fbe0 e503 	umlal	lr, r5, r0, r3
 800064e:	f04f 0600 	mov.w	r6, #0
 8000652:	fbe1 5603 	umlal	r5, r6, r1, r3
 8000656:	f09c 0f00 	teq	ip, #0
 800065a:	bf18      	it	ne
 800065c:	f04e 0e01 	orrne.w	lr, lr, #1
 8000660:	f1a4 04ff 	sub.w	r4, r4, #255	; 0xff
 8000664:	f5b6 7f00 	cmp.w	r6, #512	; 0x200
 8000668:	f564 7440 	sbc.w	r4, r4, #768	; 0x300
 800066c:	d204      	bcs.n	8000678 <__aeabi_dmul+0x80>
 800066e:	ea5f 0e4e 	movs.w	lr, lr, lsl #1
 8000672:	416d      	adcs	r5, r5
 8000674:	eb46 0606 	adc.w	r6, r6, r6
 8000678:	ea42 21c6 	orr.w	r1, r2, r6, lsl #11
 800067c:	ea41 5155 	orr.w	r1, r1, r5, lsr #21
 8000680:	ea4f 20c5 	mov.w	r0, r5, lsl #11
 8000684:	ea40 505e 	orr.w	r0, r0, lr, lsr #21
 8000688:	ea4f 2ece 	mov.w	lr, lr, lsl #11
 800068c:	f1b4 0cfd 	subs.w	ip, r4, #253	; 0xfd
 8000690:	bf88      	it	hi
 8000692:	f5bc 6fe0 	cmphi.w	ip, #1792	; 0x700
 8000696:	d81e      	bhi.n	80006d6 <__aeabi_dmul+0xde>
 8000698:	f1be 4f00 	cmp.w	lr, #2147483648	; 0x80000000
 800069c:	bf08      	it	eq
 800069e:	ea5f 0e50 	movseq.w	lr, r0, lsr #1
 80006a2:	f150 0000 	adcs.w	r0, r0, #0
 80006a6:	eb41 5104 	adc.w	r1, r1, r4, lsl #20
 80006aa:	bd70      	pop	{r4, r5, r6, pc}
 80006ac:	f006 4600 	and.w	r6, r6, #2147483648	; 0x80000000
 80006b0:	ea46 0101 	orr.w	r1, r6, r1
 80006b4:	ea40 0002 	orr.w	r0, r0, r2
 80006b8:	ea81 0103 	eor.w	r1, r1, r3
 80006bc:	ebb4 045c 	subs.w	r4, r4, ip, lsr #1
 80006c0:	bfc2      	ittt	gt
 80006c2:	ebd4 050c 	rsbsgt	r5, r4, ip
 80006c6:	ea41 5104 	orrgt.w	r1, r1, r4, lsl #20
 80006ca:	bd70      	popgt	{r4, r5, r6, pc}
 80006cc:	f441 1180 	orr.w	r1, r1, #1048576	; 0x100000
 80006d0:	f04f 0e00 	mov.w	lr, #0
 80006d4:	3c01      	subs	r4, #1
 80006d6:	f300 80ab 	bgt.w	8000830 <__aeabi_dmul+0x238>
 80006da:	f114 0f36 	cmn.w	r4, #54	; 0x36
 80006de:	bfde      	ittt	le
 80006e0:	2000      	movle	r0, #0
 80006e2:	f001 4100 	andle.w	r1, r1, #2147483648	; 0x80000000
 80006e6:	bd70      	pople	{r4, r5, r6, pc}
 80006e8:	f1c4 0400 	rsb	r4, r4, #0
 80006ec:	3c20      	subs	r4, #32
 80006ee:	da35      	bge.n	800075c <__aeabi_dmul+0x164>
 80006f0:	340c      	adds	r4, #12
 80006f2:	dc1b      	bgt.n	800072c <__aeabi_dmul+0x134>
 80006f4:	f104 0414 	add.w	r4, r4, #20
 80006f8:	f1c4 0520 	rsb	r5, r4, #32
 80006fc:	fa00 f305 	lsl.w	r3, r0, r5
 8000700:	fa20 f004 	lsr.w	r0, r0, r4
 8000704:	fa01 f205 	lsl.w	r2, r1, r5
 8000708:	ea40 0002 	orr.w	r0, r0, r2
 800070c:	f001 4200 	and.w	r2, r1, #2147483648	; 0x80000000
 8000710:	f021 4100 	bic.w	r1, r1, #2147483648	; 0x80000000
 8000714:	eb10 70d3 	adds.w	r0, r0, r3, lsr #31
 8000718:	fa21 f604 	lsr.w	r6, r1, r4
 800071c:	eb42 0106 	adc.w	r1, r2, r6
 8000720:	ea5e 0e43 	orrs.w	lr, lr, r3, lsl #1
 8000724:	bf08      	it	eq
 8000726:	ea20 70d3 	biceq.w	r0, r0, r3, lsr #31
 800072a:	bd70      	pop	{r4, r5, r6, pc}
 800072c:	f1c4 040c 	rsb	r4, r4, #12
 8000730:	f1c4 0520 	rsb	r5, r4, #32
 8000734:	fa00 f304 	lsl.w	r3, r0, r4
 8000738:	fa20 f005 	lsr.w	r0, r0, r5
 800073c:	fa01 f204 	lsl.w	r2, r1, r4
 8000740:	ea40 0002 	orr.w	r0, r0, r2
 8000744:	f001 4100 	and.w	r1, r1, #2147483648	; 0x80000000
 8000748:	eb10 70d3 	adds.w	r0, r0, r3, lsr #31
 800074c:	f141 0100 	adc.w	r1, r1, #0
 8000750:	ea5e 0e43 	orrs.w	lr, lr, r3, lsl #1
 8000754:	bf08      	it	eq
 8000756:	ea20 70d3 	biceq.w	r0, r0, r3, lsr #31
 800075a:	bd70      	pop	{r4, r5, r6, pc}
 800075c:	f1c4 0520 	rsb	r5, r4, #32
 8000760:	fa00 f205 	lsl.w	r2, r0, r5
 8000764:	ea4e 0e02 	orr.w	lr, lr, r2
 8000768:	fa20 f304 	lsr.w	r3, r0, r4
 800076c:	fa01 f205 	lsl.w	r2, r1, r5
 8000770:	ea43 0302 	orr.w	r3, r3, r2
 8000774:	fa21 f004 	lsr.w	r0, r1, r4
 8000778:	f001 4100 	and.w	r1, r1, #2147483648	; 0x80000000
 800077c:	fa21 f204 	lsr.w	r2, r1, r4
 8000780:	ea20 0002 	bic.w	r0, r0, r2
 8000784:	eb00 70d3 	add.w	r0, r0, r3, lsr #31
 8000788:	ea5e 0e43 	orrs.w	lr, lr, r3, lsl #1
 800078c:	bf08      	it	eq
 800078e:	ea20 70d3 	biceq.w	r0, r0, r3, lsr #31
 8000792:	bd70      	pop	{r4, r5, r6, pc}
 8000794:	f094 0f00 	teq	r4, #0
 8000798:	d10f      	bne.n	80007ba <__aeabi_dmul+0x1c2>
 800079a:	f001 4600 	and.w	r6, r1, #2147483648	; 0x80000000
 800079e:	0040      	lsls	r0, r0, #1
 80007a0:	eb41 0101 	adc.w	r1, r1, r1
 80007a4:	f411 1f80 	tst.w	r1, #1048576	; 0x100000
 80007a8:	bf08      	it	eq
 80007aa:	3c01      	subeq	r4, #1
 80007ac:	d0f7      	beq.n	800079e <__aeabi_dmul+0x1a6>
 80007ae:	ea41 0106 	orr.w	r1, r1, r6
 80007b2:	f095 0f00 	teq	r5, #0
 80007b6:	bf18      	it	ne
 80007b8:	4770      	bxne	lr
 80007ba:	f003 4600 	and.w	r6, r3, #2147483648	; 0x80000000
 80007be:	0052      	lsls	r2, r2, #1
 80007c0:	eb43 0303 	adc.w	r3, r3, r3
 80007c4:	f413 1f80 	tst.w	r3, #1048576	; 0x100000
 80007c8:	bf08      	it	eq
 80007ca:	3d01      	subeq	r5, #1
 80007cc:	d0f7      	beq.n	80007be <__aeabi_dmul+0x1c6>
 80007ce:	ea43 0306 	orr.w	r3, r3, r6
 80007d2:	4770      	bx	lr
 80007d4:	ea94 0f0c 	teq	r4, ip
 80007d8:	ea0c 5513 	and.w	r5, ip, r3, lsr #20
 80007dc:	bf18      	it	ne
 80007de:	ea95 0f0c 	teqne	r5, ip
 80007e2:	d00c      	beq.n	80007fe <__aeabi_dmul+0x206>
 80007e4:	ea50 0641 	orrs.w	r6, r0, r1, lsl #1
 80007e8:	bf18      	it	ne
 80007ea:	ea52 0643 	orrsne.w	r6, r2, r3, lsl #1
 80007ee:	d1d1      	bne.n	8000794 <__aeabi_dmul+0x19c>
 80007f0:	ea81 0103 	eor.w	r1, r1, r3
 80007f4:	f001 4100 	and.w	r1, r1, #2147483648	; 0x80000000
 80007f8:	f04f 0000 	mov.w	r0, #0
 80007fc:	bd70      	pop	{r4, r5, r6, pc}
 80007fe:	ea50 0641 	orrs.w	r6, r0, r1, lsl #1
 8000802:	bf06      	itte	eq
 8000804:	4610      	moveq	r0, r2
 8000806:	4619      	moveq	r1, r3
 8000808:	ea52 0643 	orrsne.w	r6, r2, r3, lsl #1
 800080c:	d019      	beq.n	8000842 <__aeabi_dmul+0x24a>
 800080e:	ea94 0f0c 	teq	r4, ip
 8000812:	d102      	bne.n	800081a <__aeabi_dmul+0x222>
 8000814:	ea50 3601 	orrs.w	r6, r0, r1, lsl #12
 8000818:	d113      	bne.n	8000842 <__aeabi_dmul+0x24a>
 800081a:	ea95 0f0c 	teq	r5, ip
 800081e:	d105      	bne.n	800082c <__aeabi_dmul+0x234>
 8000820:	ea52 3603 	orrs.w	r6, r2, r3, lsl #12
 8000824:	bf1c      	itt	ne
 8000826:	4610      	movne	r0, r2
 8000828:	4619      	movne	r1, r3
 800082a:	d10a      	bne.n	8000842 <__aeabi_dmul+0x24a>
 800082c:	ea81 0103 	eor.w	r1, r1, r3
 8000830:	f001 4100 	and.w	r1, r1, #2147483648	; 0x80000000
 8000834:	f041 41fe 	orr.w	r1, r1, #2130706432	; 0x7f000000
 8000838:	f441 0170 	orr.w	r1, r1, #15728640	; 0xf00000
 800083c:	f04f 0000 	mov.w	r0, #0
 8000840:	bd70      	pop	{r4, r5, r6, pc}
 8000842:	f041 41fe 	orr.w	r1, r1, #2130706432	; 0x7f000000
 8000846:	f441 0178 	orr.w	r1, r1, #16252928	; 0xf80000
 800084a:	bd70      	pop	{r4, r5, r6, pc}

0800084c <__aeabi_ddiv>:
 800084c:	b570      	push	{r4, r5, r6, lr}
 800084e:	f04f 0cff 	mov.w	ip, #255	; 0xff
 8000852:	f44c 6ce0 	orr.w	ip, ip, #1792	; 0x700
 8000856:	ea1c 5411 	ands.w	r4, ip, r1, lsr #20
 800085a:	bf1d      	ittte	ne
 800085c:	ea1c 5513 	andsne.w	r5, ip, r3, lsr #20
 8000860:	ea94 0f0c 	teqne	r4, ip
 8000864:	ea95 0f0c 	teqne	r5, ip
 8000868:	f000 f8a7 	bleq	80009ba <__aeabi_ddiv+0x16e>
 800086c:	eba4 0405 	sub.w	r4, r4, r5
 8000870:	ea81 0e03 	eor.w	lr, r1, r3
 8000874:	ea52 3503 	orrs.w	r5, r2, r3, lsl #12
 8000878:	ea4f 3101 	mov.w	r1, r1, lsl #12
 800087c:	f000 8088 	beq.w	8000990 <__aeabi_ddiv+0x144>
 8000880:	ea4f 3303 	mov.w	r3, r3, lsl #12
 8000884:	f04f 5580 	mov.w	r5, #268435456	; 0x10000000
 8000888:	ea45 1313 	orr.w	r3, r5, r3, lsr #4
 800088c:	ea43 6312 	orr.w	r3, r3, r2, lsr #24
 8000890:	ea4f 2202 	mov.w	r2, r2, lsl #8
 8000894:	ea45 1511 	orr.w	r5, r5, r1, lsr #4
 8000898:	ea45 6510 	orr.w	r5, r5, r0, lsr #24
 800089c:	ea4f 2600 	mov.w	r6, r0, lsl #8
 80008a0:	f00e 4100 	and.w	r1, lr, #2147483648	; 0x80000000
 80008a4:	429d      	cmp	r5, r3
 80008a6:	bf08      	it	eq
 80008a8:	4296      	cmpeq	r6, r2
 80008aa:	f144 04fd 	adc.w	r4, r4, #253	; 0xfd
 80008ae:	f504 7440 	add.w	r4, r4, #768	; 0x300
 80008b2:	d202      	bcs.n	80008ba <__aeabi_ddiv+0x6e>
 80008b4:	085b      	lsrs	r3, r3, #1
 80008b6:	ea4f 0232 	mov.w	r2, r2, rrx
 80008ba:	1ab6      	subs	r6, r6, r2
 80008bc:	eb65 0503 	sbc.w	r5, r5, r3
 80008c0:	085b      	lsrs	r3, r3, #1
 80008c2:	ea4f 0232 	mov.w	r2, r2, rrx
 80008c6:	f44f 1080 	mov.w	r0, #1048576	; 0x100000
 80008ca:	f44f 2c00 	mov.w	ip, #524288	; 0x80000
 80008ce:	ebb6 0e02 	subs.w	lr, r6, r2
 80008d2:	eb75 0e03 	sbcs.w	lr, r5, r3
 80008d6:	bf22      	ittt	cs
 80008d8:	1ab6      	subcs	r6, r6, r2
 80008da:	4675      	movcs	r5, lr
 80008dc:	ea40 000c 	orrcs.w	r0, r0, ip
 80008e0:	085b      	lsrs	r3, r3, #1
 80008e2:	ea4f 0232 	mov.w	r2, r2, rrx
 80008e6:	ebb6 0e02 	subs.w	lr, r6, r2
 80008ea:	eb75 0e03 	sbcs.w	lr, r5, r3
 80008ee:	bf22      	ittt	cs
 80008f0:	1ab6      	subcs	r6, r6, r2
 80008f2:	4675      	movcs	r5, lr
 80008f4:	ea40 005c 	orrcs.w	r0, r0, ip, lsr #1
 80008f8:	085b      	lsrs	r3, r3, #1
 80008fa:	ea4f 0232 	mov.w	r2, r2, rrx
 80008fe:	ebb6 0e02 	subs.w	lr, r6, r2
 8000902:	eb75 0e03 	sbcs.w	lr, r5, r3
 8000906:	bf22      	ittt	cs
 8000908:	1ab6      	subcs	r6, r6, r2
 800090a:	4675      	movcs	r5, lr
 800090c:	ea40 009c 	orrcs.w	r0, r0, ip, lsr #2
 8000910:	085b      	lsrs	r3, r3, #1
 8000912:	ea4f 0232 	mov.w	r2, r2, rrx
 8000916:	ebb6 0e02 	subs.w	lr, r6, r2
 800091a:	eb75 0e03 	sbcs.w	lr, r5, r3
 800091e:	bf22      	ittt	cs
 8000920:	1ab6      	subcs	r6, r6, r2
 8000922:	4675      	movcs	r5, lr
 8000924:	ea40 00dc 	orrcs.w	r0, r0, ip, lsr #3
 8000928:	ea55 0e06 	orrs.w	lr, r5, r6
 800092c:	d018      	beq.n	8000960 <__aeabi_ddiv+0x114>
 800092e:	ea4f 1505 	mov.w	r5, r5, lsl #4
 8000932:	ea45 7516 	orr.w	r5, r5, r6, lsr #28
 8000936:	ea4f 1606 	mov.w	r6, r6, lsl #4
 800093a:	ea4f 03c3 	mov.w	r3, r3, lsl #3
 800093e:	ea43 7352 	orr.w	r3, r3, r2, lsr #29
 8000942:	ea4f 02c2 	mov.w	r2, r2, lsl #3
 8000946:	ea5f 1c1c 	movs.w	ip, ip, lsr #4
 800094a:	d1c0      	bne.n	80008ce <__aeabi_ddiv+0x82>
 800094c:	f411 1f80 	tst.w	r1, #1048576	; 0x100000
 8000950:	d10b      	bne.n	800096a <__aeabi_ddiv+0x11e>
 8000952:	ea41 0100 	orr.w	r1, r1, r0
 8000956:	f04f 0000 	mov.w	r0, #0
 800095a:	f04f 4c00 	mov.w	ip, #2147483648	; 0x80000000
 800095e:	e7b6      	b.n	80008ce <__aeabi_ddiv+0x82>
 8000960:	f411 1f80 	tst.w	r1, #1048576	; 0x100000
 8000964:	bf04      	itt	eq
 8000966:	4301      	orreq	r1, r0
 8000968:	2000      	moveq	r0, #0
 800096a:	f1b4 0cfd 	subs.w	ip, r4, #253	; 0xfd
 800096e:	bf88      	it	hi
 8000970:	f5bc 6fe0 	cmphi.w	ip, #1792	; 0x700
 8000974:	f63f aeaf 	bhi.w	80006d6 <__aeabi_dmul+0xde>
 8000978:	ebb5 0c03 	subs.w	ip, r5, r3
 800097c:	bf04      	itt	eq
 800097e:	ebb6 0c02 	subseq.w	ip, r6, r2
 8000982:	ea5f 0c50 	movseq.w	ip, r0, lsr #1
 8000986:	f150 0000 	adcs.w	r0, r0, #0
 800098a:	eb41 5104 	adc.w	r1, r1, r4, lsl #20
 800098e:	bd70      	pop	{r4, r5, r6, pc}
 8000990:	f00e 4e00 	and.w	lr, lr, #2147483648	; 0x80000000
 8000994:	ea4e 3111 	orr.w	r1, lr, r1, lsr #12
 8000998:	eb14 045c 	adds.w	r4, r4, ip, lsr #1
 800099c:	bfc2      	ittt	gt
 800099e:	ebd4 050c 	rsbsgt	r5, r4, ip
 80009a2:	ea41 5104 	orrgt.w	r1, r1, r4, lsl #20
 80009a6:	bd70      	popgt	{r4, r5, r6, pc}
 80009a8:	f441 1180 	orr.w	r1, r1, #1048576	; 0x100000
 80009ac:	f04f 0e00 	mov.w	lr, #0
 80009b0:	3c01      	subs	r4, #1
 80009b2:	e690      	b.n	80006d6 <__aeabi_dmul+0xde>
 80009b4:	ea45 0e06 	orr.w	lr, r5, r6
 80009b8:	e68d      	b.n	80006d6 <__aeabi_dmul+0xde>
 80009ba:	ea0c 5513 	and.w	r5, ip, r3, lsr #20
 80009be:	ea94 0f0c 	teq	r4, ip
 80009c2:	bf08      	it	eq
 80009c4:	ea95 0f0c 	teqeq	r5, ip
 80009c8:	f43f af3b 	beq.w	8000842 <__aeabi_dmul+0x24a>
 80009cc:	ea94 0f0c 	teq	r4, ip
 80009d0:	d10a      	bne.n	80009e8 <__aeabi_ddiv+0x19c>
 80009d2:	ea50 3401 	orrs.w	r4, r0, r1, lsl #12
 80009d6:	f47f af34 	bne.w	8000842 <__aeabi_dmul+0x24a>
 80009da:	ea95 0f0c 	teq	r5, ip
 80009de:	f47f af25 	bne.w	800082c <__aeabi_dmul+0x234>
 80009e2:	4610      	mov	r0, r2
 80009e4:	4619      	mov	r1, r3
 80009e6:	e72c      	b.n	8000842 <__aeabi_dmul+0x24a>
 80009e8:	ea95 0f0c 	teq	r5, ip
 80009ec:	d106      	bne.n	80009fc <__aeabi_ddiv+0x1b0>
 80009ee:	ea52 3503 	orrs.w	r5, r2, r3, lsl #12
 80009f2:	f43f aefd 	beq.w	80007f0 <__aeabi_dmul+0x1f8>
 80009f6:	4610      	mov	r0, r2
 80009f8:	4619      	mov	r1, r3
 80009fa:	e722      	b.n	8000842 <__aeabi_dmul+0x24a>
 80009fc:	ea50 0641 	orrs.w	r6, r0, r1, lsl #1
 8000a00:	bf18      	it	ne
 8000a02:	ea52 0643 	orrsne.w	r6, r2, r3, lsl #1
 8000a06:	f47f aec5 	bne.w	8000794 <__aeabi_dmul+0x19c>
 8000a0a:	ea50 0441 	orrs.w	r4, r0, r1, lsl #1
 8000a0e:	f47f af0d 	bne.w	800082c <__aeabi_dmul+0x234>
 8000a12:	ea52 0543 	orrs.w	r5, r2, r3, lsl #1
 8000a16:	f47f aeeb 	bne.w	80007f0 <__aeabi_dmul+0x1f8>
 8000a1a:	e712      	b.n	8000842 <__aeabi_dmul+0x24a>

08000a1c <__gedf2>:
 8000a1c:	f04f 3cff 	mov.w	ip, #4294967295
 8000a20:	e006      	b.n	8000a30 <__cmpdf2+0x4>
 8000a22:	bf00      	nop

08000a24 <__ledf2>:
 8000a24:	f04f 0c01 	mov.w	ip, #1
 8000a28:	e002      	b.n	8000a30 <__cmpdf2+0x4>
 8000a2a:	bf00      	nop

08000a2c <__cmpdf2>:
 8000a2c:	f04f 0c01 	mov.w	ip, #1
 8000a30:	f84d cd04 	str.w	ip, [sp, #-4]!
 8000a34:	ea4f 0c41 	mov.w	ip, r1, lsl #1
 8000a38:	ea7f 5c6c 	mvns.w	ip, ip, asr #21
 8000a3c:	ea4f 0c43 	mov.w	ip, r3, lsl #1
 8000a40:	bf18      	it	ne
 8000a42:	ea7f 5c6c 	mvnsne.w	ip, ip, asr #21
 8000a46:	d01b      	beq.n	8000a80 <__cmpdf2+0x54>
 8000a48:	b001      	add	sp, #4
 8000a4a:	ea50 0c41 	orrs.w	ip, r0, r1, lsl #1
 8000a4e:	bf0c      	ite	eq
 8000a50:	ea52 0c43 	orrseq.w	ip, r2, r3, lsl #1
 8000a54:	ea91 0f03 	teqne	r1, r3
 8000a58:	bf02      	ittt	eq
 8000a5a:	ea90 0f02 	teqeq	r0, r2
 8000a5e:	2000      	moveq	r0, #0
 8000a60:	4770      	bxeq	lr
 8000a62:	f110 0f00 	cmn.w	r0, #0
 8000a66:	ea91 0f03 	teq	r1, r3
 8000a6a:	bf58      	it	pl
 8000a6c:	4299      	cmppl	r1, r3
 8000a6e:	bf08      	it	eq
 8000a70:	4290      	cmpeq	r0, r2
 8000a72:	bf2c      	ite	cs
 8000a74:	17d8      	asrcs	r0, r3, #31
 8000a76:	ea6f 70e3 	mvncc.w	r0, r3, asr #31
 8000a7a:	f040 0001 	orr.w	r0, r0, #1
 8000a7e:	4770      	bx	lr
 8000a80:	ea4f 0c41 	mov.w	ip, r1, lsl #1
 8000a84:	ea7f 5c6c 	mvns.w	ip, ip, asr #21
 8000a88:	d102      	bne.n	8000a90 <__cmpdf2+0x64>
 8000a8a:	ea50 3c01 	orrs.w	ip, r0, r1, lsl #12
 8000a8e:	d107      	bne.n	8000aa0 <__cmpdf2+0x74>
 8000a90:	ea4f 0c43 	mov.w	ip, r3, lsl #1
 8000a94:	ea7f 5c6c 	mvns.w	ip, ip, asr #21
 8000a98:	d1d6      	bne.n	8000a48 <__cmpdf2+0x1c>
 8000a9a:	ea52 3c03 	orrs.w	ip, r2, r3, lsl #12
 8000a9e:	d0d3      	beq.n	8000a48 <__cmpdf2+0x1c>
 8000aa0:	f85d 0b04 	ldr.w	r0, [sp], #4
 8000aa4:	4770      	bx	lr
 8000aa6:	bf00      	nop

08000aa8 <__aeabi_cdrcmple>:
 8000aa8:	4684      	mov	ip, r0
 8000aaa:	4610      	mov	r0, r2
 8000aac:	4662      	mov	r2, ip
 8000aae:	468c      	mov	ip, r1
 8000ab0:	4619      	mov	r1, r3
 8000ab2:	4663      	mov	r3, ip
 8000ab4:	e000      	b.n	8000ab8 <__aeabi_cdcmpeq>
 8000ab6:	bf00      	nop

08000ab8 <__aeabi_cdcmpeq>:
 8000ab8:	b501      	push	{r0, lr}
 8000aba:	f7ff ffb7 	bl	8000a2c <__cmpdf2>
 8000abe:	2800      	cmp	r0, #0
 8000ac0:	bf48      	it	mi
 8000ac2:	f110 0f00 	cmnmi.w	r0, #0
 8000ac6:	bd01      	pop	{r0, pc}

08000ac8 <__aeabi_dcmpeq>:
 8000ac8:	f84d ed08 	str.w	lr, [sp, #-8]!
 8000acc:	f7ff fff4 	bl	8000ab8 <__aeabi_cdcmpeq>
 8000ad0:	bf0c      	ite	eq
 8000ad2:	2001      	moveq	r0, #1
 8000ad4:	2000      	movne	r0, #0
 8000ad6:	f85d fb08 	ldr.w	pc, [sp], #8
 8000ada:	bf00      	nop

08000adc <__aeabi_dcmplt>:
 8000adc:	f84d ed08 	str.w	lr, [sp, #-8]!
 8000ae0:	f7ff ffea 	bl	8000ab8 <__aeabi_cdcmpeq>
 8000ae4:	bf34      	ite	cc
 8000ae6:	2001      	movcc	r0, #1
 8000ae8:	2000      	movcs	r0, #0
 8000aea:	f85d fb08 	ldr.w	pc, [sp], #8
 8000aee:	bf00      	nop

08000af0 <__aeabi_dcmple>:
 8000af0:	f84d ed08 	str.w	lr, [sp, #-8]!
 8000af4:	f7ff ffe0 	bl	8000ab8 <__aeabi_cdcmpeq>
 8000af8:	bf94      	ite	ls
 8000afa:	2001      	movls	r0, #1
 8000afc:	2000      	movhi	r0, #0
 8000afe:	f85d fb08 	ldr.w	pc, [sp], #8
 8000b02:	bf00      	nop

08000b04 <__aeabi_dcmpge>:
 8000b04:	f84d ed08 	str.w	lr, [sp, #-8]!
 8000b08:	f7ff ffce 	bl	8000aa8 <__aeabi_cdrcmple>
 8000b0c:	bf94      	ite	ls
 8000b0e:	2001      	movls	r0, #1
 8000b10:	2000      	movhi	r0, #0
 8000b12:	f85d fb08 	ldr.w	pc, [sp], #8
 8000b16:	bf00      	nop

08000b18 <__aeabi_dcmpgt>:
 8000b18:	f84d ed08 	str.w	lr, [sp, #-8]!
 8000b1c:	f7ff ffc4 	bl	8000aa8 <__aeabi_cdrcmple>
 8000b20:	bf34      	ite	cc
 8000b22:	2001      	movcc	r0, #1
 8000b24:	2000      	movcs	r0, #0
 8000b26:	f85d fb08 	ldr.w	pc, [sp], #8
 8000b2a:	bf00      	nop

08000b2c <__aeabi_dcmpun>:
 8000b2c:	ea4f 0c41 	mov.w	ip, r1, lsl #1
 8000b30:	ea7f 5c6c 	mvns.w	ip, ip, asr #21
 8000b34:	d102      	bne.n	8000b3c <__aeabi_dcmpun+0x10>
 8000b36:	ea50 3c01 	orrs.w	ip, r0, r1, lsl #12
 8000b3a:	d10a      	bne.n	8000b52 <__aeabi_dcmpun+0x26>
 8000b3c:	ea4f 0c43 	mov.w	ip, r3, lsl #1
 8000b40:	ea7f 5c6c 	mvns.w	ip, ip, asr #21
 8000b44:	d102      	bne.n	8000b4c <__aeabi_dcmpun+0x20>
 8000b46:	ea52 3c03 	orrs.w	ip, r2, r3, lsl #12
 8000b4a:	d102      	bne.n	8000b52 <__aeabi_dcmpun+0x26>
 8000b4c:	f04f 0000 	mov.w	r0, #0
 8000b50:	4770      	bx	lr
 8000b52:	f04f 0001 	mov.w	r0, #1
 8000b56:	4770      	bx	lr

08000b58 <__aeabi_d2iz>:
 8000b58:	ea4f 0241 	mov.w	r2, r1, lsl #1
 8000b5c:	f512 1200 	adds.w	r2, r2, #2097152	; 0x200000
 8000b60:	d215      	bcs.n	8000b8e <__aeabi_d2iz+0x36>
 8000b62:	d511      	bpl.n	8000b88 <__aeabi_d2iz+0x30>
 8000b64:	f46f 7378 	mvn.w	r3, #992	; 0x3e0
 8000b68:	ebb3 5262 	subs.w	r2, r3, r2, asr #21
 8000b6c:	d912      	bls.n	8000b94 <__aeabi_d2iz+0x3c>
 8000b6e:	ea4f 23c1 	mov.w	r3, r1, lsl #11
 8000b72:	f043 4300 	orr.w	r3, r3, #2147483648	; 0x80000000
 8000b76:	ea43 5350 	orr.w	r3, r3, r0, lsr #21
 8000b7a:	f011 4f00 	tst.w	r1, #2147483648	; 0x80000000
 8000b7e:	fa23 f002 	lsr.w	r0, r3, r2
 8000b82:	bf18      	it	ne
 8000b84:	4240      	negne	r0, r0
 8000b86:	4770      	bx	lr
 8000b88:	f04f 0000 	mov.w	r0, #0
 8000b8c:	4770      	bx	lr
 8000b8e:	ea50 3001 	orrs.w	r0, r0, r1, lsl #12
 8000b92:	d105      	bne.n	8000ba0 <__aeabi_d2iz+0x48>
 8000b94:	f011 4000 	ands.w	r0, r1, #2147483648	; 0x80000000
 8000b98:	bf08      	it	eq
 8000b9a:	f06f 4000 	mvneq.w	r0, #2147483648	; 0x80000000
 8000b9e:	4770      	bx	lr
 8000ba0:	f04f 0000 	mov.w	r0, #0
 8000ba4:	4770      	bx	lr
 8000ba6:	bf00      	nop

08000ba8 <__aeabi_d2uiz>:
 8000ba8:	004a      	lsls	r2, r1, #1
 8000baa:	d211      	bcs.n	8000bd0 <__aeabi_d2uiz+0x28>
 8000bac:	f512 1200 	adds.w	r2, r2, #2097152	; 0x200000
 8000bb0:	d211      	bcs.n	8000bd6 <__aeabi_d2uiz+0x2e>
 8000bb2:	d50d      	bpl.n	8000bd0 <__aeabi_d2uiz+0x28>
 8000bb4:	f46f 7378 	mvn.w	r3, #992	; 0x3e0
 8000bb8:	ebb3 5262 	subs.w	r2, r3, r2, asr #21
 8000bbc:	d40e      	bmi.n	8000bdc <__aeabi_d2uiz+0x34>
 8000bbe:	ea4f 23c1 	mov.w	r3, r1, lsl #11
 8000bc2:	f043 4300 	orr.w	r3, r3, #2147483648	; 0x80000000
 8000bc6:	ea43 5350 	orr.w	r3, r3, r0, lsr #21
 8000bca:	fa23 f002 	lsr.w	r0, r3, r2
 8000bce:	4770      	bx	lr
 8000bd0:	f04f 0000 	mov.w	r0, #0
 8000bd4:	4770      	bx	lr
 8000bd6:	ea50 3001 	orrs.w	r0, r0, r1, lsl #12
 8000bda:	d102      	bne.n	8000be2 <__aeabi_d2uiz+0x3a>
 8000bdc:	f04f 30ff 	mov.w	r0, #4294967295
 8000be0:	4770      	bx	lr
 8000be2:	f04f 0000 	mov.w	r0, #0
 8000be6:	4770      	bx	lr

08000be8 <__aeabi_d2f>:
 8000be8:	ea4f 0241 	mov.w	r2, r1, lsl #1
 8000bec:	f1b2 43e0 	subs.w	r3, r2, #1879048192	; 0x70000000
 8000bf0:	bf24      	itt	cs
 8000bf2:	f5b3 1c00 	subscs.w	ip, r3, #2097152	; 0x200000
 8000bf6:	f1dc 5cfe 	rsbscs	ip, ip, #532676608	; 0x1fc00000
 8000bfa:	d90d      	bls.n	8000c18 <__aeabi_d2f+0x30>
 8000bfc:	f001 4c00 	and.w	ip, r1, #2147483648	; 0x80000000
 8000c00:	ea4f 02c0 	mov.w	r2, r0, lsl #3
 8000c04:	ea4c 7050 	orr.w	r0, ip, r0, lsr #29
 8000c08:	f1b2 4f00 	cmp.w	r2, #2147483648	; 0x80000000
 8000c0c:	eb40 0083 	adc.w	r0, r0, r3, lsl #2
 8000c10:	bf08      	it	eq
 8000c12:	f020 0001 	biceq.w	r0, r0, #1
 8000c16:	4770      	bx	lr
 8000c18:	f011 4f80 	tst.w	r1, #1073741824	; 0x40000000
 8000c1c:	d121      	bne.n	8000c62 <__aeabi_d2f+0x7a>
 8000c1e:	f113 7238 	adds.w	r2, r3, #48234496	; 0x2e00000
 8000c22:	bfbc      	itt	lt
 8000c24:	f001 4000 	andlt.w	r0, r1, #2147483648	; 0x80000000
 8000c28:	4770      	bxlt	lr
 8000c2a:	f441 1180 	orr.w	r1, r1, #1048576	; 0x100000
 8000c2e:	ea4f 5252 	mov.w	r2, r2, lsr #21
 8000c32:	f1c2 0218 	rsb	r2, r2, #24
 8000c36:	f1c2 0c20 	rsb	ip, r2, #32
 8000c3a:	fa10 f30c 	lsls.w	r3, r0, ip
 8000c3e:	fa20 f002 	lsr.w	r0, r0, r2
 8000c42:	bf18      	it	ne
 8000c44:	f040 0001 	orrne.w	r0, r0, #1
 8000c48:	ea4f 23c1 	mov.w	r3, r1, lsl #11
 8000c4c:	ea4f 23d3 	mov.w	r3, r3, lsr #11
 8000c50:	fa03 fc0c 	lsl.w	ip, r3, ip
 8000c54:	ea40 000c 	orr.w	r0, r0, ip
 8000c58:	fa23 f302 	lsr.w	r3, r3, r2
 8000c5c:	ea4f 0343 	mov.w	r3, r3, lsl #1
 8000c60:	e7cc      	b.n	8000bfc <__aeabi_d2f+0x14>
 8000c62:	ea7f 5362 	mvns.w	r3, r2, asr #21
 8000c66:	d107      	bne.n	8000c78 <__aeabi_d2f+0x90>
 8000c68:	ea50 3301 	orrs.w	r3, r0, r1, lsl #12
 8000c6c:	bf1e      	ittt	ne
 8000c6e:	f04f 40fe 	movne.w	r0, #2130706432	; 0x7f000000
 8000c72:	f440 0040 	orrne.w	r0, r0, #12582912	; 0xc00000
 8000c76:	4770      	bxne	lr
 8000c78:	f001 4000 	and.w	r0, r1, #2147483648	; 0x80000000
 8000c7c:	f040 40fe 	orr.w	r0, r0, #2130706432	; 0x7f000000
 8000c80:	f440 0000 	orr.w	r0, r0, #8388608	; 0x800000
 8000c84:	4770      	bx	lr
 8000c86:	bf00      	nop

08000c88 <__aeabi_f2ulz>:
 8000c88:	b5d0      	push	{r4, r6, r7, lr}
 8000c8a:	f7ff fc5d 	bl	8000548 <__aeabi_f2d>
 8000c8e:	2200      	movs	r2, #0
 8000c90:	4b0d      	ldr	r3, [pc, #52]	; (8000cc8 <__aeabi_f2ulz+0x40>)
 8000c92:	4606      	mov	r6, r0
 8000c94:	460f      	mov	r7, r1
 8000c96:	f7ff fcaf 	bl	80005f8 <__aeabi_dmul>
 8000c9a:	f7ff ff85 	bl	8000ba8 <__aeabi_d2uiz>
 8000c9e:	4604      	mov	r4, r0
 8000ca0:	f7ff fc30 	bl	8000504 <__aeabi_ui2d>
 8000ca4:	2200      	movs	r2, #0
 8000ca6:	4b09      	ldr	r3, [pc, #36]	; (8000ccc <__aeabi_f2ulz+0x44>)
 8000ca8:	f7ff fca6 	bl	80005f8 <__aeabi_dmul>
 8000cac:	4602      	mov	r2, r0
 8000cae:	460b      	mov	r3, r1
 8000cb0:	4630      	mov	r0, r6
 8000cb2:	4639      	mov	r1, r7
 8000cb4:	f7ff fae8 	bl	8000288 <__aeabi_dsub>
 8000cb8:	f7ff ff76 	bl	8000ba8 <__aeabi_d2uiz>
 8000cbc:	2200      	movs	r2, #0
 8000cbe:	4623      	mov	r3, r4
 8000cc0:	4310      	orrs	r0, r2
 8000cc2:	4619      	mov	r1, r3
 8000cc4:	bdd0      	pop	{r4, r6, r7, pc}
 8000cc6:	bf00      	nop
 8000cc8:	3df00000 	.word	0x3df00000
 8000ccc:	41f00000 	.word	0x41f00000

08000cd0 <OLED_WriteCaseNumber>:
//	}
//}

// writes number to buffer only
static void OLED_WriteCaseNumber(void)
{
 8000cd0:	b580      	push	{r7, lr}
 8000cd2:	b084      	sub	sp, #16
 8000cd4:	af00      	add	r7, sp, #0
	char StringBuffer[10] = {0};
 8000cd6:	1d3b      	adds	r3, r7, #4
 8000cd8:	2200      	movs	r2, #0
 8000cda:	601a      	str	r2, [r3, #0]
 8000cdc:	605a      	str	r2, [r3, #4]
 8000cde:	811a      	strh	r2, [r3, #8]

	snprintf(StringBuffer, 10, "%2d", CurrentCase + 1);
 8000ce0:	4b0a      	ldr	r3, [pc, #40]	; (8000d0c <OLED_WriteCaseNumber+0x3c>)
 8000ce2:	681b      	ldr	r3, [r3, #0]
 8000ce4:	3301      	adds	r3, #1
 8000ce6:	1d38      	adds	r0, r7, #4
 8000ce8:	4a09      	ldr	r2, [pc, #36]	; (8000d10 <OLED_WriteCaseNumber+0x40>)
 8000cea:	210a      	movs	r1, #10
 8000cec:	f006 fe34 	bl	8007958 <sniprintf>
	ssd1306_SetCursor(110, 52);
 8000cf0:	2134      	movs	r1, #52	; 0x34
 8000cf2:	206e      	movs	r0, #110	; 0x6e
 8000cf4:	f006 f970 	bl	8006fd8 <ssd1306_SetCursor>
	ssd1306_WriteString(StringBuffer, Font_7x10, White);
 8000cf8:	4a06      	ldr	r2, [pc, #24]	; (8000d14 <OLED_WriteCaseNumber+0x44>)
 8000cfa:	1d38      	adds	r0, r7, #4
 8000cfc:	2301      	movs	r3, #1
 8000cfe:	ca06      	ldmia	r2, {r1, r2}
 8000d00:	f006 f944 	bl	8006f8c <ssd1306_WriteString>

}
 8000d04:	bf00      	nop
 8000d06:	3710      	adds	r7, #16
 8000d08:	46bd      	mov	sp, r7
 8000d0a:	bd80      	pop	{r7, pc}
 8000d0c:	20000928 	.word	0x20000928
 8000d10:	080091c0 	.word	0x080091c0
 8000d14:	200002e0 	.word	0x200002e0

08000d18 <OLED_Update_Display_Case>:

void OLED_Update_Display_Case(OLEDStates_type State)
{
 8000d18:	b580      	push	{r7, lr}
 8000d1a:	b082      	sub	sp, #8
 8000d1c:	af00      	add	r7, sp, #0
 8000d1e:	4603      	mov	r3, r0
 8000d20:	71fb      	strb	r3, [r7, #7]
	switch(State)
 8000d22:	79fb      	ldrb	r3, [r7, #7]
 8000d24:	2b14      	cmp	r3, #20
 8000d26:	f200 8497 	bhi.w	8001658 <OLED_Update_Display_Case+0x940>
 8000d2a:	a201      	add	r2, pc, #4	; (adr r2, 8000d30 <OLED_Update_Display_Case+0x18>)
 8000d2c:	f852 f023 	ldr.w	pc, [r2, r3, lsl #2]
 8000d30:	08000d85 	.word	0x08000d85
 8000d34:	08000de7 	.word	0x08000de7
 8000d38:	08000e49 	.word	0x08000e49
 8000d3c:	08000ea9 	.word	0x08000ea9
 8000d40:	08000f09 	.word	0x08000f09
 8000d44:	08000f69 	.word	0x08000f69
 8000d48:	08000fc9 	.word	0x08000fc9
 8000d4c:	08001029 	.word	0x08001029
 8000d50:	080010f1 	.word	0x080010f1
 8000d54:	08001151 	.word	0x08001151
 8000d58:	080011b1 	.word	0x080011b1
 8000d5c:	08001211 	.word	0x08001211
 8000d60:	08001271 	.word	0x08001271
 8000d64:	080012d1 	.word	0x080012d1
 8000d68:	08001331 	.word	0x08001331
 8000d6c:	08001391 	.word	0x08001391
 8000d70:	08001465 	.word	0x08001465
 8000d74:	080014c5 	.word	0x080014c5
 8000d78:	08001525 	.word	0x08001525
 8000d7c:	08001585 	.word	0x08001585
 8000d80:	080015f9 	.word	0x080015f9
	{
	case Leonardo_TC1:
		ssd1306_Fill(Black);
 8000d84:	2000      	movs	r0, #0
 8000d86:	f005 ffd9 	bl	8006d3c <ssd1306_Fill>
		ssd1306_SetCursor(0, 0);
 8000d8a:	2100      	movs	r1, #0
 8000d8c:	2000      	movs	r0, #0
 8000d8e:	f006 f923 	bl	8006fd8 <ssd1306_SetCursor>
		ssd1306_WriteString("TC 1", Font_16x26, White);
 8000d92:	4abd      	ldr	r2, [pc, #756]	; (8001088 <OLED_Update_Display_Case+0x370>)
 8000d94:	2301      	movs	r3, #1
 8000d96:	ca06      	ldmia	r2, {r1, r2}
 8000d98:	48bc      	ldr	r0, [pc, #752]	; (800108c <OLED_Update_Display_Case+0x374>)
 8000d9a:	f006 f8f7 	bl	8006f8c <ssd1306_WriteString>
		ssd1306_SetCursor(0, 29);
 8000d9e:	211d      	movs	r1, #29
 8000da0:	2000      	movs	r0, #0
 8000da2:	f006 f919 	bl	8006fd8 <ssd1306_SetCursor>
		ssd1306_WriteString("PRF= 10 kHz", Font_7x10, White);
 8000da6:	4aba      	ldr	r2, [pc, #744]	; (8001090 <OLED_Update_Display_Case+0x378>)
 8000da8:	2301      	movs	r3, #1
 8000daa:	ca06      	ldmia	r2, {r1, r2}
 8000dac:	48b9      	ldr	r0, [pc, #740]	; (8001094 <OLED_Update_Display_Case+0x37c>)
 8000dae:	f006 f8ed 	bl	8006f8c <ssd1306_WriteString>
		ssd1306_SetCursor(0, 41);
 8000db2:	2129      	movs	r1, #41	; 0x29
 8000db4:	2000      	movs	r0, #0
 8000db6:	f006 f90f 	bl	8006fd8 <ssd1306_SetCursor>
		ssd1306_WriteString("PW= 10 us", Font_7x10, White);
 8000dba:	4ab5      	ldr	r2, [pc, #724]	; (8001090 <OLED_Update_Display_Case+0x378>)
 8000dbc:	2301      	movs	r3, #1
 8000dbe:	ca06      	ldmia	r2, {r1, r2}
 8000dc0:	48b5      	ldr	r0, [pc, #724]	; (8001098 <OLED_Update_Display_Case+0x380>)
 8000dc2:	f006 f8e3 	bl	8006f8c <ssd1306_WriteString>
		ssd1306_SetCursor(0, 53);
 8000dc6:	2135      	movs	r1, #53	; 0x35
 8000dc8:	2000      	movs	r0, #0
 8000dca:	f006 f905 	bl	8006fd8 <ssd1306_SetCursor>
		ssd1306_WriteString("Duty= 10 %", Font_7x10, White);
 8000dce:	4ab0      	ldr	r2, [pc, #704]	; (8001090 <OLED_Update_Display_Case+0x378>)
 8000dd0:	2301      	movs	r3, #1
 8000dd2:	ca06      	ldmia	r2, {r1, r2}
 8000dd4:	48b1      	ldr	r0, [pc, #708]	; (800109c <OLED_Update_Display_Case+0x384>)
 8000dd6:	f006 f8d9 	bl	8006f8c <ssd1306_WriteString>
		OLED_WriteCaseNumber();
 8000dda:	f7ff ff79 	bl	8000cd0 <OLED_WriteCaseNumber>
		ssd1306_UpdateScreen();
 8000dde:	f005 ffcf 	bl	8006d80 <ssd1306_UpdateScreen>
		break;
 8000de2:	f000 bc3a 	b.w	800165a <OLED_Update_Display_Case+0x942>

	case Leonardo_TC2:
		ssd1306_Fill(Black);
 8000de6:	2000      	movs	r0, #0
 8000de8:	f005 ffa8 	bl	8006d3c <ssd1306_Fill>
		ssd1306_SetCursor(0, 0);
 8000dec:	2100      	movs	r1, #0
 8000dee:	2000      	movs	r0, #0
 8000df0:	f006 f8f2 	bl	8006fd8 <ssd1306_SetCursor>
		ssd1306_WriteString("TC 2", Font_16x26, White);
 8000df4:	4aa4      	ldr	r2, [pc, #656]	; (8001088 <OLED_Update_Display_Case+0x370>)
 8000df6:	2301      	movs	r3, #1
 8000df8:	ca06      	ldmia	r2, {r1, r2}
 8000dfa:	48a9      	ldr	r0, [pc, #676]	; (80010a0 <OLED_Update_Display_Case+0x388>)
 8000dfc:	f006 f8c6 	bl	8006f8c <ssd1306_WriteString>
		ssd1306_SetCursor(0, 29);
 8000e00:	211d      	movs	r1, #29
 8000e02:	2000      	movs	r0, #0
 8000e04:	f006 f8e8 	bl	8006fd8 <ssd1306_SetCursor>
		ssd1306_WriteString("PRF= 12 kHz", Font_7x10, White);
 8000e08:	4aa1      	ldr	r2, [pc, #644]	; (8001090 <OLED_Update_Display_Case+0x378>)
 8000e0a:	2301      	movs	r3, #1
 8000e0c:	ca06      	ldmia	r2, {r1, r2}
 8000e0e:	48a5      	ldr	r0, [pc, #660]	; (80010a4 <OLED_Update_Display_Case+0x38c>)
 8000e10:	f006 f8bc 	bl	8006f8c <ssd1306_WriteString>
		ssd1306_SetCursor(0, 41);
 8000e14:	2129      	movs	r1, #41	; 0x29
 8000e16:	2000      	movs	r0, #0
 8000e18:	f006 f8de 	bl	8006fd8 <ssd1306_SetCursor>
		ssd1306_WriteString("PW= 10 us", Font_7x10, White);
 8000e1c:	4a9c      	ldr	r2, [pc, #624]	; (8001090 <OLED_Update_Display_Case+0x378>)
 8000e1e:	2301      	movs	r3, #1
 8000e20:	ca06      	ldmia	r2, {r1, r2}
 8000e22:	489d      	ldr	r0, [pc, #628]	; (8001098 <OLED_Update_Display_Case+0x380>)
 8000e24:	f006 f8b2 	bl	8006f8c <ssd1306_WriteString>
		ssd1306_SetCursor(0, 53);
 8000e28:	2135      	movs	r1, #53	; 0x35
 8000e2a:	2000      	movs	r0, #0
 8000e2c:	f006 f8d4 	bl	8006fd8 <ssd1306_SetCursor>
		ssd1306_WriteString("Duty= 12 %", Font_7x10, White);
 8000e30:	4a97      	ldr	r2, [pc, #604]	; (8001090 <OLED_Update_Display_Case+0x378>)
 8000e32:	2301      	movs	r3, #1
 8000e34:	ca06      	ldmia	r2, {r1, r2}
 8000e36:	489c      	ldr	r0, [pc, #624]	; (80010a8 <OLED_Update_Display_Case+0x390>)
 8000e38:	f006 f8a8 	bl	8006f8c <ssd1306_WriteString>
		OLED_WriteCaseNumber();
 8000e3c:	f7ff ff48 	bl	8000cd0 <OLED_WriteCaseNumber>
		ssd1306_UpdateScreen();
 8000e40:	f005 ff9e 	bl	8006d80 <ssd1306_UpdateScreen>
		break;
 8000e44:	f000 bc09 	b.w	800165a <OLED_Update_Display_Case+0x942>

	case Leonardo_Case1:
		ssd1306_Fill(Black);
 8000e48:	2000      	movs	r0, #0
 8000e4a:	f005 ff77 	bl	8006d3c <ssd1306_Fill>
		ssd1306_SetCursor(0, 0);
 8000e4e:	2100      	movs	r1, #0
 8000e50:	2000      	movs	r0, #0
 8000e52:	f006 f8c1 	bl	8006fd8 <ssd1306_SetCursor>
		ssd1306_WriteString("P.H. 1", Font_16x26, White);
 8000e56:	4a8c      	ldr	r2, [pc, #560]	; (8001088 <OLED_Update_Display_Case+0x370>)
 8000e58:	2301      	movs	r3, #1
 8000e5a:	ca06      	ldmia	r2, {r1, r2}
 8000e5c:	4893      	ldr	r0, [pc, #588]	; (80010ac <OLED_Update_Display_Case+0x394>)
 8000e5e:	f006 f895 	bl	8006f8c <ssd1306_WriteString>
		ssd1306_SetCursor(0, 29);
 8000e62:	211d      	movs	r1, #29
 8000e64:	2000      	movs	r0, #0
 8000e66:	f006 f8b7 	bl	8006fd8 <ssd1306_SetCursor>
		ssd1306_WriteString("PRF1= 0.850 kHz", Font_7x10, White);
 8000e6a:	4a89      	ldr	r2, [pc, #548]	; (8001090 <OLED_Update_Display_Case+0x378>)
 8000e6c:	2301      	movs	r3, #1
 8000e6e:	ca06      	ldmia	r2, {r1, r2}
 8000e70:	488f      	ldr	r0, [pc, #572]	; (80010b0 <OLED_Update_Display_Case+0x398>)
 8000e72:	f006 f88b 	bl	8006f8c <ssd1306_WriteString>
		ssd1306_SetCursor(0, 41);
 8000e76:	2129      	movs	r1, #41	; 0x29
 8000e78:	2000      	movs	r0, #0
 8000e7a:	f006 f8ad 	bl	8006fd8 <ssd1306_SetCursor>
		ssd1306_WriteString("PRF2= 1.925 kHz", Font_7x10, White);
 8000e7e:	4a84      	ldr	r2, [pc, #528]	; (8001090 <OLED_Update_Display_Case+0x378>)
 8000e80:	2301      	movs	r3, #1
 8000e82:	ca06      	ldmia	r2, {r1, r2}
 8000e84:	488b      	ldr	r0, [pc, #556]	; (80010b4 <OLED_Update_Display_Case+0x39c>)
 8000e86:	f006 f881 	bl	8006f8c <ssd1306_WriteString>
		ssd1306_SetCursor(0, 53);
 8000e8a:	2135      	movs	r1, #53	; 0x35
 8000e8c:	2000      	movs	r0, #0
 8000e8e:	f006 f8a3 	bl	8006fd8 <ssd1306_SetCursor>
		ssd1306_WriteString("PW= 20 us", Font_7x10, White);
 8000e92:	4a7f      	ldr	r2, [pc, #508]	; (8001090 <OLED_Update_Display_Case+0x378>)
 8000e94:	2301      	movs	r3, #1
 8000e96:	ca06      	ldmia	r2, {r1, r2}
 8000e98:	4887      	ldr	r0, [pc, #540]	; (80010b8 <OLED_Update_Display_Case+0x3a0>)
 8000e9a:	f006 f877 	bl	8006f8c <ssd1306_WriteString>
		OLED_WriteCaseNumber();
 8000e9e:	f7ff ff17 	bl	8000cd0 <OLED_WriteCaseNumber>
		ssd1306_UpdateScreen();
 8000ea2:	f005 ff6d 	bl	8006d80 <ssd1306_UpdateScreen>
		break;
 8000ea6:	e3d8      	b.n	800165a <OLED_Update_Display_Case+0x942>

	case Leonardo_Case2:
		ssd1306_Fill(Black);
 8000ea8:	2000      	movs	r0, #0
 8000eaa:	f005 ff47 	bl	8006d3c <ssd1306_Fill>
		ssd1306_SetCursor(0, 0);
 8000eae:	2100      	movs	r1, #0
 8000eb0:	2000      	movs	r0, #0
 8000eb2:	f006 f891 	bl	8006fd8 <ssd1306_SetCursor>
		ssd1306_WriteString("P.H. 2", Font_16x26, White);
 8000eb6:	4a74      	ldr	r2, [pc, #464]	; (8001088 <OLED_Update_Display_Case+0x370>)
 8000eb8:	2301      	movs	r3, #1
 8000eba:	ca06      	ldmia	r2, {r1, r2}
 8000ebc:	487f      	ldr	r0, [pc, #508]	; (80010bc <OLED_Update_Display_Case+0x3a4>)
 8000ebe:	f006 f865 	bl	8006f8c <ssd1306_WriteString>
		ssd1306_SetCursor(0, 29);
 8000ec2:	211d      	movs	r1, #29
 8000ec4:	2000      	movs	r0, #0
 8000ec6:	f006 f887 	bl	8006fd8 <ssd1306_SetCursor>
		ssd1306_WriteString("PRF1= 1.350 kHz", Font_7x10, White);
 8000eca:	4a71      	ldr	r2, [pc, #452]	; (8001090 <OLED_Update_Display_Case+0x378>)
 8000ecc:	2301      	movs	r3, #1
 8000ece:	ca06      	ldmia	r2, {r1, r2}
 8000ed0:	487b      	ldr	r0, [pc, #492]	; (80010c0 <OLED_Update_Display_Case+0x3a8>)
 8000ed2:	f006 f85b 	bl	8006f8c <ssd1306_WriteString>
		ssd1306_SetCursor(0, 41);
 8000ed6:	2129      	movs	r1, #41	; 0x29
 8000ed8:	2000      	movs	r0, #0
 8000eda:	f006 f87d 	bl	8006fd8 <ssd1306_SetCursor>
		ssd1306_WriteString("PRF2= 1.800 kHz", Font_7x10, White);
 8000ede:	4a6c      	ldr	r2, [pc, #432]	; (8001090 <OLED_Update_Display_Case+0x378>)
 8000ee0:	2301      	movs	r3, #1
 8000ee2:	ca06      	ldmia	r2, {r1, r2}
 8000ee4:	4877      	ldr	r0, [pc, #476]	; (80010c4 <OLED_Update_Display_Case+0x3ac>)
 8000ee6:	f006 f851 	bl	8006f8c <ssd1306_WriteString>
		ssd1306_SetCursor(0, 53);
 8000eea:	2135      	movs	r1, #53	; 0x35
 8000eec:	2000      	movs	r0, #0
 8000eee:	f006 f873 	bl	8006fd8 <ssd1306_SetCursor>
		ssd1306_WriteString("PW= 20 us", Font_7x10, White);
 8000ef2:	4a67      	ldr	r2, [pc, #412]	; (8001090 <OLED_Update_Display_Case+0x378>)
 8000ef4:	2301      	movs	r3, #1
 8000ef6:	ca06      	ldmia	r2, {r1, r2}
 8000ef8:	486f      	ldr	r0, [pc, #444]	; (80010b8 <OLED_Update_Display_Case+0x3a0>)
 8000efa:	f006 f847 	bl	8006f8c <ssd1306_WriteString>
		OLED_WriteCaseNumber();
 8000efe:	f7ff fee7 	bl	8000cd0 <OLED_WriteCaseNumber>
		ssd1306_UpdateScreen();
 8000f02:	f005 ff3d 	bl	8006d80 <ssd1306_UpdateScreen>
		break;
 8000f06:	e3a8      	b.n	800165a <OLED_Update_Display_Case+0x942>

	case Leonardo_Case3:
		ssd1306_Fill(Black);
 8000f08:	2000      	movs	r0, #0
 8000f0a:	f005 ff17 	bl	8006d3c <ssd1306_Fill>
		ssd1306_SetCursor(0, 0);
 8000f0e:	2100      	movs	r1, #0
 8000f10:	2000      	movs	r0, #0
 8000f12:	f006 f861 	bl	8006fd8 <ssd1306_SetCursor>
		ssd1306_WriteString("P.H. 3", Font_16x26, White);
 8000f16:	4a5c      	ldr	r2, [pc, #368]	; (8001088 <OLED_Update_Display_Case+0x370>)
 8000f18:	2301      	movs	r3, #1
 8000f1a:	ca06      	ldmia	r2, {r1, r2}
 8000f1c:	486a      	ldr	r0, [pc, #424]	; (80010c8 <OLED_Update_Display_Case+0x3b0>)
 8000f1e:	f006 f835 	bl	8006f8c <ssd1306_WriteString>
		ssd1306_SetCursor(0, 29);
 8000f22:	211d      	movs	r1, #29
 8000f24:	2000      	movs	r0, #0
 8000f26:	f006 f857 	bl	8006fd8 <ssd1306_SetCursor>
		ssd1306_WriteString("PRF1= 2.215 kHz", Font_7x10, White);
 8000f2a:	4a59      	ldr	r2, [pc, #356]	; (8001090 <OLED_Update_Display_Case+0x378>)
 8000f2c:	2301      	movs	r3, #1
 8000f2e:	ca06      	ldmia	r2, {r1, r2}
 8000f30:	4866      	ldr	r0, [pc, #408]	; (80010cc <OLED_Update_Display_Case+0x3b4>)
 8000f32:	f006 f82b 	bl	8006f8c <ssd1306_WriteString>
		ssd1306_SetCursor(0, 41);
 8000f36:	2129      	movs	r1, #41	; 0x29
 8000f38:	2000      	movs	r0, #0
 8000f3a:	f006 f84d 	bl	8006fd8 <ssd1306_SetCursor>
		ssd1306_WriteString("PRF2= 1.350 kHz", Font_7x10, White);
 8000f3e:	4a54      	ldr	r2, [pc, #336]	; (8001090 <OLED_Update_Display_Case+0x378>)
 8000f40:	2301      	movs	r3, #1
 8000f42:	ca06      	ldmia	r2, {r1, r2}
 8000f44:	4862      	ldr	r0, [pc, #392]	; (80010d0 <OLED_Update_Display_Case+0x3b8>)
 8000f46:	f006 f821 	bl	8006f8c <ssd1306_WriteString>
		ssd1306_SetCursor(0, 53);
 8000f4a:	2135      	movs	r1, #53	; 0x35
 8000f4c:	2000      	movs	r0, #0
 8000f4e:	f006 f843 	bl	8006fd8 <ssd1306_SetCursor>
		ssd1306_WriteString("PW= 20 us", Font_7x10, White);
 8000f52:	4a4f      	ldr	r2, [pc, #316]	; (8001090 <OLED_Update_Display_Case+0x378>)
 8000f54:	2301      	movs	r3, #1
 8000f56:	ca06      	ldmia	r2, {r1, r2}
 8000f58:	4857      	ldr	r0, [pc, #348]	; (80010b8 <OLED_Update_Display_Case+0x3a0>)
 8000f5a:	f006 f817 	bl	8006f8c <ssd1306_WriteString>
		OLED_WriteCaseNumber();
 8000f5e:	f7ff feb7 	bl	8000cd0 <OLED_WriteCaseNumber>
		ssd1306_UpdateScreen();
 8000f62:	f005 ff0d 	bl	8006d80 <ssd1306_UpdateScreen>
		break;
 8000f66:	e378      	b.n	800165a <OLED_Update_Display_Case+0x942>

	case Leonardo_Case4:
		ssd1306_Fill(Black);
 8000f68:	2000      	movs	r0, #0
 8000f6a:	f005 fee7 	bl	8006d3c <ssd1306_Fill>
		ssd1306_SetCursor(0, 0);
 8000f6e:	2100      	movs	r1, #0
 8000f70:	2000      	movs	r0, #0
 8000f72:	f006 f831 	bl	8006fd8 <ssd1306_SetCursor>
		ssd1306_WriteString("P.H. 4", Font_16x26, White);
 8000f76:	4a44      	ldr	r2, [pc, #272]	; (8001088 <OLED_Update_Display_Case+0x370>)
 8000f78:	2301      	movs	r3, #1
 8000f7a:	ca06      	ldmia	r2, {r1, r2}
 8000f7c:	4855      	ldr	r0, [pc, #340]	; (80010d4 <OLED_Update_Display_Case+0x3bc>)
 8000f7e:	f006 f805 	bl	8006f8c <ssd1306_WriteString>
		ssd1306_SetCursor(0, 29);
 8000f82:	211d      	movs	r1, #29
 8000f84:	2000      	movs	r0, #0
 8000f86:	f006 f827 	bl	8006fd8 <ssd1306_SetCursor>
		ssd1306_WriteString("PRF1= 0.725 kHz", Font_7x10, White);
 8000f8a:	4a41      	ldr	r2, [pc, #260]	; (8001090 <OLED_Update_Display_Case+0x378>)
 8000f8c:	2301      	movs	r3, #1
 8000f8e:	ca06      	ldmia	r2, {r1, r2}
 8000f90:	4851      	ldr	r0, [pc, #324]	; (80010d8 <OLED_Update_Display_Case+0x3c0>)
 8000f92:	f005 fffb 	bl	8006f8c <ssd1306_WriteString>
		ssd1306_SetCursor(0, 41);
 8000f96:	2129      	movs	r1, #41	; 0x29
 8000f98:	2000      	movs	r0, #0
 8000f9a:	f006 f81d 	bl	8006fd8 <ssd1306_SetCursor>
		ssd1306_WriteString("PRF2= 1.800 kHz", Font_7x10, White);
 8000f9e:	4a3c      	ldr	r2, [pc, #240]	; (8001090 <OLED_Update_Display_Case+0x378>)
 8000fa0:	2301      	movs	r3, #1
 8000fa2:	ca06      	ldmia	r2, {r1, r2}
 8000fa4:	4847      	ldr	r0, [pc, #284]	; (80010c4 <OLED_Update_Display_Case+0x3ac>)
 8000fa6:	f005 fff1 	bl	8006f8c <ssd1306_WriteString>
		ssd1306_SetCursor(0, 53);
 8000faa:	2135      	movs	r1, #53	; 0x35
 8000fac:	2000      	movs	r0, #0
 8000fae:	f006 f813 	bl	8006fd8 <ssd1306_SetCursor>
		ssd1306_WriteString("PW= 20 us", Font_7x10, White);
 8000fb2:	4a37      	ldr	r2, [pc, #220]	; (8001090 <OLED_Update_Display_Case+0x378>)
 8000fb4:	2301      	movs	r3, #1
 8000fb6:	ca06      	ldmia	r2, {r1, r2}
 8000fb8:	483f      	ldr	r0, [pc, #252]	; (80010b8 <OLED_Update_Display_Case+0x3a0>)
 8000fba:	f005 ffe7 	bl	8006f8c <ssd1306_WriteString>
		OLED_WriteCaseNumber();
 8000fbe:	f7ff fe87 	bl	8000cd0 <OLED_WriteCaseNumber>
		ssd1306_UpdateScreen();
 8000fc2:	f005 fedd 	bl	8006d80 <ssd1306_UpdateScreen>
		break;
 8000fc6:	e348      	b.n	800165a <OLED_Update_Display_Case+0x942>

	case Leonardo_Case5:
		ssd1306_Fill(Black);
 8000fc8:	2000      	movs	r0, #0
 8000fca:	f005 feb7 	bl	8006d3c <ssd1306_Fill>
		ssd1306_SetCursor(0, 0);
 8000fce:	2100      	movs	r1, #0
 8000fd0:	2000      	movs	r0, #0
 8000fd2:	f006 f801 	bl	8006fd8 <ssd1306_SetCursor>
		ssd1306_WriteString("P.H. 5", Font_16x26, White);
 8000fd6:	4a2c      	ldr	r2, [pc, #176]	; (8001088 <OLED_Update_Display_Case+0x370>)
 8000fd8:	2301      	movs	r3, #1
 8000fda:	ca06      	ldmia	r2, {r1, r2}
 8000fdc:	483f      	ldr	r0, [pc, #252]	; (80010dc <OLED_Update_Display_Case+0x3c4>)
 8000fde:	f005 ffd5 	bl	8006f8c <ssd1306_WriteString>
		ssd1306_SetCursor(0, 29);
 8000fe2:	211d      	movs	r1, #29
 8000fe4:	2000      	movs	r0, #0
 8000fe6:	f005 fff7 	bl	8006fd8 <ssd1306_SetCursor>
		ssd1306_WriteString("PRF1= 2.250 kHz", Font_7x10, White);
 8000fea:	4a29      	ldr	r2, [pc, #164]	; (8001090 <OLED_Update_Display_Case+0x378>)
 8000fec:	2301      	movs	r3, #1
 8000fee:	ca06      	ldmia	r2, {r1, r2}
 8000ff0:	483b      	ldr	r0, [pc, #236]	; (80010e0 <OLED_Update_Display_Case+0x3c8>)
 8000ff2:	f005 ffcb 	bl	8006f8c <ssd1306_WriteString>
		ssd1306_SetCursor(0, 41);
 8000ff6:	2129      	movs	r1, #41	; 0x29
 8000ff8:	2000      	movs	r0, #0
 8000ffa:	f005 ffed 	bl	8006fd8 <ssd1306_SetCursor>
		ssd1306_WriteString("PRF2= 1.350 kHz", Font_7x10, White);
 8000ffe:	4a24      	ldr	r2, [pc, #144]	; (8001090 <OLED_Update_Display_Case+0x378>)
 8001000:	2301      	movs	r3, #1
 8001002:	ca06      	ldmia	r2, {r1, r2}
 8001004:	4832      	ldr	r0, [pc, #200]	; (80010d0 <OLED_Update_Display_Case+0x3b8>)
 8001006:	f005 ffc1 	bl	8006f8c <ssd1306_WriteString>
		ssd1306_SetCursor(0, 53);
 800100a:	2135      	movs	r1, #53	; 0x35
 800100c:	2000      	movs	r0, #0
 800100e:	f005 ffe3 	bl	8006fd8 <ssd1306_SetCursor>
		ssd1306_WriteString("PW= 20 us", Font_7x10, White);
 8001012:	4a1f      	ldr	r2, [pc, #124]	; (8001090 <OLED_Update_Display_Case+0x378>)
 8001014:	2301      	movs	r3, #1
 8001016:	ca06      	ldmia	r2, {r1, r2}
 8001018:	4827      	ldr	r0, [pc, #156]	; (80010b8 <OLED_Update_Display_Case+0x3a0>)
 800101a:	f005 ffb7 	bl	8006f8c <ssd1306_WriteString>
		OLED_WriteCaseNumber();
 800101e:	f7ff fe57 	bl	8000cd0 <OLED_WriteCaseNumber>
		ssd1306_UpdateScreen();
 8001022:	f005 fead 	bl	8006d80 <ssd1306_UpdateScreen>
		break;
 8001026:	e318      	b.n	800165a <OLED_Update_Display_Case+0x942>

	case Leonardo_Case6:
		ssd1306_Fill(Black);
 8001028:	2000      	movs	r0, #0
 800102a:	f005 fe87 	bl	8006d3c <ssd1306_Fill>
		ssd1306_SetCursor(0, 0);
 800102e:	2100      	movs	r1, #0
 8001030:	2000      	movs	r0, #0
 8001032:	f005 ffd1 	bl	8006fd8 <ssd1306_SetCursor>
		ssd1306_WriteString("P.H. 6", Font_16x26, White);
 8001036:	4a14      	ldr	r2, [pc, #80]	; (8001088 <OLED_Update_Display_Case+0x370>)
 8001038:	2301      	movs	r3, #1
 800103a:	ca06      	ldmia	r2, {r1, r2}
 800103c:	4829      	ldr	r0, [pc, #164]	; (80010e4 <OLED_Update_Display_Case+0x3cc>)
 800103e:	f005 ffa5 	bl	8006f8c <ssd1306_WriteString>
		ssd1306_SetCursor(0, 29);
 8001042:	211d      	movs	r1, #29
 8001044:	2000      	movs	r0, #0
 8001046:	f005 ffc7 	bl	8006fd8 <ssd1306_SetCursor>
		ssd1306_WriteString("PRF1= 1.420 kHz", Font_7x10, White);
 800104a:	4a11      	ldr	r2, [pc, #68]	; (8001090 <OLED_Update_Display_Case+0x378>)
 800104c:	2301      	movs	r3, #1
 800104e:	ca06      	ldmia	r2, {r1, r2}
 8001050:	4825      	ldr	r0, [pc, #148]	; (80010e8 <OLED_Update_Display_Case+0x3d0>)
 8001052:	f005 ff9b 	bl	8006f8c <ssd1306_WriteString>
		ssd1306_SetCursor(0, 41);
 8001056:	2129      	movs	r1, #41	; 0x29
 8001058:	2000      	movs	r0, #0
 800105a:	f005 ffbd 	bl	8006fd8 <ssd1306_SetCursor>
		ssd1306_WriteString("PRF2= 3.930 kHz", Font_7x10, White);
 800105e:	4a0c      	ldr	r2, [pc, #48]	; (8001090 <OLED_Update_Display_Case+0x378>)
 8001060:	2301      	movs	r3, #1
 8001062:	ca06      	ldmia	r2, {r1, r2}
 8001064:	4821      	ldr	r0, [pc, #132]	; (80010ec <OLED_Update_Display_Case+0x3d4>)
 8001066:	f005 ff91 	bl	8006f8c <ssd1306_WriteString>
		ssd1306_SetCursor(0, 53);
 800106a:	2135      	movs	r1, #53	; 0x35
 800106c:	2000      	movs	r0, #0
 800106e:	f005 ffb3 	bl	8006fd8 <ssd1306_SetCursor>
		ssd1306_WriteString("PW= 20 us", Font_7x10, White);
 8001072:	4a07      	ldr	r2, [pc, #28]	; (8001090 <OLED_Update_Display_Case+0x378>)
 8001074:	2301      	movs	r3, #1
 8001076:	ca06      	ldmia	r2, {r1, r2}
 8001078:	480f      	ldr	r0, [pc, #60]	; (80010b8 <OLED_Update_Display_Case+0x3a0>)
 800107a:	f005 ff87 	bl	8006f8c <ssd1306_WriteString>
		OLED_WriteCaseNumber();
 800107e:	f7ff fe27 	bl	8000cd0 <OLED_WriteCaseNumber>
		ssd1306_UpdateScreen();
 8001082:	f005 fe7d 	bl	8006d80 <ssd1306_UpdateScreen>
		break;
 8001086:	e2e8      	b.n	800165a <OLED_Update_Display_Case+0x942>
 8001088:	200002f0 	.word	0x200002f0
 800108c:	080091c4 	.word	0x080091c4
 8001090:	200002e0 	.word	0x200002e0
 8001094:	080091cc 	.word	0x080091cc
 8001098:	080091d8 	.word	0x080091d8
 800109c:	080091e4 	.word	0x080091e4
 80010a0:	080091f0 	.word	0x080091f0
 80010a4:	080091f8 	.word	0x080091f8
 80010a8:	08009204 	.word	0x08009204
 80010ac:	08009210 	.word	0x08009210
 80010b0:	08009218 	.word	0x08009218
 80010b4:	08009228 	.word	0x08009228
 80010b8:	08009238 	.word	0x08009238
 80010bc:	08009244 	.word	0x08009244
 80010c0:	0800924c 	.word	0x0800924c
 80010c4:	0800925c 	.word	0x0800925c
 80010c8:	0800926c 	.word	0x0800926c
 80010cc:	08009274 	.word	0x08009274
 80010d0:	08009284 	.word	0x08009284
 80010d4:	08009294 	.word	0x08009294
 80010d8:	0800929c 	.word	0x0800929c
 80010dc:	080092ac 	.word	0x080092ac
 80010e0:	080092b4 	.word	0x080092b4
 80010e4:	080092c4 	.word	0x080092c4
 80010e8:	080092cc 	.word	0x080092cc
 80010ec:	080092dc 	.word	0x080092dc

	case Leonardo_Case7:
		ssd1306_Fill(Black);
 80010f0:	2000      	movs	r0, #0
 80010f2:	f005 fe23 	bl	8006d3c <ssd1306_Fill>
		ssd1306_SetCursor(0, 0);
 80010f6:	2100      	movs	r1, #0
 80010f8:	2000      	movs	r0, #0
 80010fa:	f005 ff6d 	bl	8006fd8 <ssd1306_SetCursor>
		ssd1306_WriteString("P.H. 7", Font_16x26, White);
 80010fe:	4abc      	ldr	r2, [pc, #752]	; (80013f0 <OLED_Update_Display_Case+0x6d8>)
 8001100:	2301      	movs	r3, #1
 8001102:	ca06      	ldmia	r2, {r1, r2}
 8001104:	48bb      	ldr	r0, [pc, #748]	; (80013f4 <OLED_Update_Display_Case+0x6dc>)
 8001106:	f005 ff41 	bl	8006f8c <ssd1306_WriteString>
		ssd1306_SetCursor(0, 29);
 800110a:	211d      	movs	r1, #29
 800110c:	2000      	movs	r0, #0
 800110e:	f005 ff63 	bl	8006fd8 <ssd1306_SetCursor>
		ssd1306_WriteString("PRF1= 0.850 kHz", Font_7x10, White);
 8001112:	4ab9      	ldr	r2, [pc, #740]	; (80013f8 <OLED_Update_Display_Case+0x6e0>)
 8001114:	2301      	movs	r3, #1
 8001116:	ca06      	ldmia	r2, {r1, r2}
 8001118:	48b8      	ldr	r0, [pc, #736]	; (80013fc <OLED_Update_Display_Case+0x6e4>)
 800111a:	f005 ff37 	bl	8006f8c <ssd1306_WriteString>
		ssd1306_SetCursor(0, 41);
 800111e:	2129      	movs	r1, #41	; 0x29
 8001120:	2000      	movs	r0, #0
 8001122:	f005 ff59 	bl	8006fd8 <ssd1306_SetCursor>
		ssd1306_WriteString("PRF2= 6.000 kHz", Font_7x10, White);
 8001126:	4ab4      	ldr	r2, [pc, #720]	; (80013f8 <OLED_Update_Display_Case+0x6e0>)
 8001128:	2301      	movs	r3, #1
 800112a:	ca06      	ldmia	r2, {r1, r2}
 800112c:	48b4      	ldr	r0, [pc, #720]	; (8001400 <OLED_Update_Display_Case+0x6e8>)
 800112e:	f005 ff2d 	bl	8006f8c <ssd1306_WriteString>
		ssd1306_SetCursor(0, 53);
 8001132:	2135      	movs	r1, #53	; 0x35
 8001134:	2000      	movs	r0, #0
 8001136:	f005 ff4f 	bl	8006fd8 <ssd1306_SetCursor>
		ssd1306_WriteString("PW= 20 us", Font_7x10, White);
 800113a:	4aaf      	ldr	r2, [pc, #700]	; (80013f8 <OLED_Update_Display_Case+0x6e0>)
 800113c:	2301      	movs	r3, #1
 800113e:	ca06      	ldmia	r2, {r1, r2}
 8001140:	48b0      	ldr	r0, [pc, #704]	; (8001404 <OLED_Update_Display_Case+0x6ec>)
 8001142:	f005 ff23 	bl	8006f8c <ssd1306_WriteString>
		OLED_WriteCaseNumber();
 8001146:	f7ff fdc3 	bl	8000cd0 <OLED_WriteCaseNumber>
		ssd1306_UpdateScreen();
 800114a:	f005 fe19 	bl	8006d80 <ssd1306_UpdateScreen>
		break;
 800114e:	e284      	b.n	800165a <OLED_Update_Display_Case+0x942>

	case Leonardo_PRF1:
		ssd1306_Fill(Black);
 8001150:	2000      	movs	r0, #0
 8001152:	f005 fdf3 	bl	8006d3c <ssd1306_Fill>
		ssd1306_SetCursor(0, 0);
 8001156:	2100      	movs	r1, #0
 8001158:	2000      	movs	r0, #0
 800115a:	f005 ff3d 	bl	8006fd8 <ssd1306_SetCursor>
		ssd1306_WriteString("PRF 1", Font_16x26, White);
 800115e:	4aa4      	ldr	r2, [pc, #656]	; (80013f0 <OLED_Update_Display_Case+0x6d8>)
 8001160:	2301      	movs	r3, #1
 8001162:	ca06      	ldmia	r2, {r1, r2}
 8001164:	48a8      	ldr	r0, [pc, #672]	; (8001408 <OLED_Update_Display_Case+0x6f0>)
 8001166:	f005 ff11 	bl	8006f8c <ssd1306_WriteString>
		ssd1306_SetCursor(0, 29);
 800116a:	211d      	movs	r1, #29
 800116c:	2000      	movs	r0, #0
 800116e:	f005 ff33 	bl	8006fd8 <ssd1306_SetCursor>
		ssd1306_WriteString("PRF= 2 kHz", Font_7x10, White);
 8001172:	4aa1      	ldr	r2, [pc, #644]	; (80013f8 <OLED_Update_Display_Case+0x6e0>)
 8001174:	2301      	movs	r3, #1
 8001176:	ca06      	ldmia	r2, {r1, r2}
 8001178:	48a4      	ldr	r0, [pc, #656]	; (800140c <OLED_Update_Display_Case+0x6f4>)
 800117a:	f005 ff07 	bl	8006f8c <ssd1306_WriteString>
		ssd1306_SetCursor(0, 41);
 800117e:	2129      	movs	r1, #41	; 0x29
 8001180:	2000      	movs	r0, #0
 8001182:	f005 ff29 	bl	8006fd8 <ssd1306_SetCursor>
		ssd1306_WriteString("PW= 50 us", Font_7x10, White);
 8001186:	4a9c      	ldr	r2, [pc, #624]	; (80013f8 <OLED_Update_Display_Case+0x6e0>)
 8001188:	2301      	movs	r3, #1
 800118a:	ca06      	ldmia	r2, {r1, r2}
 800118c:	48a0      	ldr	r0, [pc, #640]	; (8001410 <OLED_Update_Display_Case+0x6f8>)
 800118e:	f005 fefd 	bl	8006f8c <ssd1306_WriteString>
		ssd1306_SetCursor(0, 53);
 8001192:	2135      	movs	r1, #53	; 0x35
 8001194:	2000      	movs	r0, #0
 8001196:	f005 ff1f 	bl	8006fd8 <ssd1306_SetCursor>
		ssd1306_WriteString("DUTY= 10 %", Font_7x10, White);
 800119a:	4a97      	ldr	r2, [pc, #604]	; (80013f8 <OLED_Update_Display_Case+0x6e0>)
 800119c:	2301      	movs	r3, #1
 800119e:	ca06      	ldmia	r2, {r1, r2}
 80011a0:	489c      	ldr	r0, [pc, #624]	; (8001414 <OLED_Update_Display_Case+0x6fc>)
 80011a2:	f005 fef3 	bl	8006f8c <ssd1306_WriteString>
		OLED_WriteCaseNumber();
 80011a6:	f7ff fd93 	bl	8000cd0 <OLED_WriteCaseNumber>
		ssd1306_UpdateScreen();
 80011aa:	f005 fde9 	bl	8006d80 <ssd1306_UpdateScreen>
		break;
 80011ae:	e254      	b.n	800165a <OLED_Update_Display_Case+0x942>

	case Leonardo_PRF2:
		ssd1306_Fill(Black);
 80011b0:	2000      	movs	r0, #0
 80011b2:	f005 fdc3 	bl	8006d3c <ssd1306_Fill>
		ssd1306_SetCursor(0, 0);
 80011b6:	2100      	movs	r1, #0
 80011b8:	2000      	movs	r0, #0
 80011ba:	f005 ff0d 	bl	8006fd8 <ssd1306_SetCursor>
		ssd1306_WriteString("PRF 2", Font_16x26, White);
 80011be:	4a8c      	ldr	r2, [pc, #560]	; (80013f0 <OLED_Update_Display_Case+0x6d8>)
 80011c0:	2301      	movs	r3, #1
 80011c2:	ca06      	ldmia	r2, {r1, r2}
 80011c4:	4894      	ldr	r0, [pc, #592]	; (8001418 <OLED_Update_Display_Case+0x700>)
 80011c6:	f005 fee1 	bl	8006f8c <ssd1306_WriteString>
		ssd1306_SetCursor(0, 29);
 80011ca:	211d      	movs	r1, #29
 80011cc:	2000      	movs	r0, #0
 80011ce:	f005 ff03 	bl	8006fd8 <ssd1306_SetCursor>
		ssd1306_WriteString("PRF= 10 kHz", Font_7x10, White);
 80011d2:	4a89      	ldr	r2, [pc, #548]	; (80013f8 <OLED_Update_Display_Case+0x6e0>)
 80011d4:	2301      	movs	r3, #1
 80011d6:	ca06      	ldmia	r2, {r1, r2}
 80011d8:	4890      	ldr	r0, [pc, #576]	; (800141c <OLED_Update_Display_Case+0x704>)
 80011da:	f005 fed7 	bl	8006f8c <ssd1306_WriteString>
		ssd1306_SetCursor(0, 41);
 80011de:	2129      	movs	r1, #41	; 0x29
 80011e0:	2000      	movs	r0, #0
 80011e2:	f005 fef9 	bl	8006fd8 <ssd1306_SetCursor>
		ssd1306_WriteString("PW= 12 us", Font_7x10, White);
 80011e6:	4a84      	ldr	r2, [pc, #528]	; (80013f8 <OLED_Update_Display_Case+0x6e0>)
 80011e8:	2301      	movs	r3, #1
 80011ea:	ca06      	ldmia	r2, {r1, r2}
 80011ec:	488c      	ldr	r0, [pc, #560]	; (8001420 <OLED_Update_Display_Case+0x708>)
 80011ee:	f005 fecd 	bl	8006f8c <ssd1306_WriteString>
		ssd1306_SetCursor(0, 53);
 80011f2:	2135      	movs	r1, #53	; 0x35
 80011f4:	2000      	movs	r0, #0
 80011f6:	f005 feef 	bl	8006fd8 <ssd1306_SetCursor>
		ssd1306_WriteString("DUTY= 12 %", Font_7x10, White);
 80011fa:	4a7f      	ldr	r2, [pc, #508]	; (80013f8 <OLED_Update_Display_Case+0x6e0>)
 80011fc:	2301      	movs	r3, #1
 80011fe:	ca06      	ldmia	r2, {r1, r2}
 8001200:	4888      	ldr	r0, [pc, #544]	; (8001424 <OLED_Update_Display_Case+0x70c>)
 8001202:	f005 fec3 	bl	8006f8c <ssd1306_WriteString>
		OLED_WriteCaseNumber();
 8001206:	f7ff fd63 	bl	8000cd0 <OLED_WriteCaseNumber>
		ssd1306_UpdateScreen();
 800120a:	f005 fdb9 	bl	8006d80 <ssd1306_UpdateScreen>
		break;
 800120e:	e224      	b.n	800165a <OLED_Update_Display_Case+0x942>

	case Leonardo_PRF3:
		ssd1306_Fill(Black);
 8001210:	2000      	movs	r0, #0
 8001212:	f005 fd93 	bl	8006d3c <ssd1306_Fill>
		ssd1306_SetCursor(0, 0);
 8001216:	2100      	movs	r1, #0
 8001218:	2000      	movs	r0, #0
 800121a:	f005 fedd 	bl	8006fd8 <ssd1306_SetCursor>
		ssd1306_WriteString("PRF 3", Font_16x26, White);
 800121e:	4a74      	ldr	r2, [pc, #464]	; (80013f0 <OLED_Update_Display_Case+0x6d8>)
 8001220:	2301      	movs	r3, #1
 8001222:	ca06      	ldmia	r2, {r1, r2}
 8001224:	4880      	ldr	r0, [pc, #512]	; (8001428 <OLED_Update_Display_Case+0x710>)
 8001226:	f005 feb1 	bl	8006f8c <ssd1306_WriteString>
		ssd1306_SetCursor(0, 29);
 800122a:	211d      	movs	r1, #29
 800122c:	2000      	movs	r0, #0
 800122e:	f005 fed3 	bl	8006fd8 <ssd1306_SetCursor>
		ssd1306_WriteString("PRF= 20 kHz", Font_7x10, White);
 8001232:	4a71      	ldr	r2, [pc, #452]	; (80013f8 <OLED_Update_Display_Case+0x6e0>)
 8001234:	2301      	movs	r3, #1
 8001236:	ca06      	ldmia	r2, {r1, r2}
 8001238:	487c      	ldr	r0, [pc, #496]	; (800142c <OLED_Update_Display_Case+0x714>)
 800123a:	f005 fea7 	bl	8006f8c <ssd1306_WriteString>
		ssd1306_SetCursor(0, 41);
 800123e:	2129      	movs	r1, #41	; 0x29
 8001240:	2000      	movs	r0, #0
 8001242:	f005 fec9 	bl	8006fd8 <ssd1306_SetCursor>
		ssd1306_WriteString("PW= 6 us", Font_7x10, White);
 8001246:	4a6c      	ldr	r2, [pc, #432]	; (80013f8 <OLED_Update_Display_Case+0x6e0>)
 8001248:	2301      	movs	r3, #1
 800124a:	ca06      	ldmia	r2, {r1, r2}
 800124c:	4878      	ldr	r0, [pc, #480]	; (8001430 <OLED_Update_Display_Case+0x718>)
 800124e:	f005 fe9d 	bl	8006f8c <ssd1306_WriteString>
		ssd1306_SetCursor(0, 53);
 8001252:	2135      	movs	r1, #53	; 0x35
 8001254:	2000      	movs	r0, #0
 8001256:	f005 febf 	bl	8006fd8 <ssd1306_SetCursor>
		ssd1306_WriteString("DUTY= 12 %", Font_7x10, White);
 800125a:	4a67      	ldr	r2, [pc, #412]	; (80013f8 <OLED_Update_Display_Case+0x6e0>)
 800125c:	2301      	movs	r3, #1
 800125e:	ca06      	ldmia	r2, {r1, r2}
 8001260:	4870      	ldr	r0, [pc, #448]	; (8001424 <OLED_Update_Display_Case+0x70c>)
 8001262:	f005 fe93 	bl	8006f8c <ssd1306_WriteString>
		OLED_WriteCaseNumber();
 8001266:	f7ff fd33 	bl	8000cd0 <OLED_WriteCaseNumber>
		ssd1306_UpdateScreen();
 800126a:	f005 fd89 	bl	8006d80 <ssd1306_UpdateScreen>
		break;
 800126e:	e1f4      	b.n	800165a <OLED_Update_Display_Case+0x942>

	case Leonardo_PRF4:
		ssd1306_Fill(Black);
 8001270:	2000      	movs	r0, #0
 8001272:	f005 fd63 	bl	8006d3c <ssd1306_Fill>
		ssd1306_SetCursor(0, 0);
 8001276:	2100      	movs	r1, #0
 8001278:	2000      	movs	r0, #0
 800127a:	f005 fead 	bl	8006fd8 <ssd1306_SetCursor>
		ssd1306_WriteString("PRF 4", Font_16x26, White);
 800127e:	4a5c      	ldr	r2, [pc, #368]	; (80013f0 <OLED_Update_Display_Case+0x6d8>)
 8001280:	2301      	movs	r3, #1
 8001282:	ca06      	ldmia	r2, {r1, r2}
 8001284:	486b      	ldr	r0, [pc, #428]	; (8001434 <OLED_Update_Display_Case+0x71c>)
 8001286:	f005 fe81 	bl	8006f8c <ssd1306_WriteString>
		ssd1306_SetCursor(0, 29);
 800128a:	211d      	movs	r1, #29
 800128c:	2000      	movs	r0, #0
 800128e:	f005 fea3 	bl	8006fd8 <ssd1306_SetCursor>
		ssd1306_WriteString("PRF= 30 kHz", Font_7x10, White);
 8001292:	4a59      	ldr	r2, [pc, #356]	; (80013f8 <OLED_Update_Display_Case+0x6e0>)
 8001294:	2301      	movs	r3, #1
 8001296:	ca06      	ldmia	r2, {r1, r2}
 8001298:	4867      	ldr	r0, [pc, #412]	; (8001438 <OLED_Update_Display_Case+0x720>)
 800129a:	f005 fe77 	bl	8006f8c <ssd1306_WriteString>
		ssd1306_SetCursor(0, 41);
 800129e:	2129      	movs	r1, #41	; 0x29
 80012a0:	2000      	movs	r0, #0
 80012a2:	f005 fe99 	bl	8006fd8 <ssd1306_SetCursor>
		ssd1306_WriteString("PW= 4 us", Font_7x10, White);
 80012a6:	4a54      	ldr	r2, [pc, #336]	; (80013f8 <OLED_Update_Display_Case+0x6e0>)
 80012a8:	2301      	movs	r3, #1
 80012aa:	ca06      	ldmia	r2, {r1, r2}
 80012ac:	4863      	ldr	r0, [pc, #396]	; (800143c <OLED_Update_Display_Case+0x724>)
 80012ae:	f005 fe6d 	bl	8006f8c <ssd1306_WriteString>
		ssd1306_SetCursor(0, 53);
 80012b2:	2135      	movs	r1, #53	; 0x35
 80012b4:	2000      	movs	r0, #0
 80012b6:	f005 fe8f 	bl	8006fd8 <ssd1306_SetCursor>
		ssd1306_WriteString("DUTY= 12 %", Font_7x10, White);
 80012ba:	4a4f      	ldr	r2, [pc, #316]	; (80013f8 <OLED_Update_Display_Case+0x6e0>)
 80012bc:	2301      	movs	r3, #1
 80012be:	ca06      	ldmia	r2, {r1, r2}
 80012c0:	4858      	ldr	r0, [pc, #352]	; (8001424 <OLED_Update_Display_Case+0x70c>)
 80012c2:	f005 fe63 	bl	8006f8c <ssd1306_WriteString>
		OLED_WriteCaseNumber();
 80012c6:	f7ff fd03 	bl	8000cd0 <OLED_WriteCaseNumber>
		ssd1306_UpdateScreen();
 80012ca:	f005 fd59 	bl	8006d80 <ssd1306_UpdateScreen>
		break;
 80012ce:	e1c4      	b.n	800165a <OLED_Update_Display_Case+0x942>

	case Leonardo_PRF5:
		ssd1306_Fill(Black);
 80012d0:	2000      	movs	r0, #0
 80012d2:	f005 fd33 	bl	8006d3c <ssd1306_Fill>
		ssd1306_SetCursor(0, 0);
 80012d6:	2100      	movs	r1, #0
 80012d8:	2000      	movs	r0, #0
 80012da:	f005 fe7d 	bl	8006fd8 <ssd1306_SetCursor>
		ssd1306_WriteString("PRF 5", Font_16x26, White);
 80012de:	4a44      	ldr	r2, [pc, #272]	; (80013f0 <OLED_Update_Display_Case+0x6d8>)
 80012e0:	2301      	movs	r3, #1
 80012e2:	ca06      	ldmia	r2, {r1, r2}
 80012e4:	4856      	ldr	r0, [pc, #344]	; (8001440 <OLED_Update_Display_Case+0x728>)
 80012e6:	f005 fe51 	bl	8006f8c <ssd1306_WriteString>
		ssd1306_SetCursor(0, 29);
 80012ea:	211d      	movs	r1, #29
 80012ec:	2000      	movs	r0, #0
 80012ee:	f005 fe73 	bl	8006fd8 <ssd1306_SetCursor>
		ssd1306_WriteString("PRF= 40 kHz", Font_7x10, White);
 80012f2:	4a41      	ldr	r2, [pc, #260]	; (80013f8 <OLED_Update_Display_Case+0x6e0>)
 80012f4:	2301      	movs	r3, #1
 80012f6:	ca06      	ldmia	r2, {r1, r2}
 80012f8:	4852      	ldr	r0, [pc, #328]	; (8001444 <OLED_Update_Display_Case+0x72c>)
 80012fa:	f005 fe47 	bl	8006f8c <ssd1306_WriteString>
		ssd1306_SetCursor(0, 41);
 80012fe:	2129      	movs	r1, #41	; 0x29
 8001300:	2000      	movs	r0, #0
 8001302:	f005 fe69 	bl	8006fd8 <ssd1306_SetCursor>
		ssd1306_WriteString("PW= 3 us", Font_7x10, White);
 8001306:	4a3c      	ldr	r2, [pc, #240]	; (80013f8 <OLED_Update_Display_Case+0x6e0>)
 8001308:	2301      	movs	r3, #1
 800130a:	ca06      	ldmia	r2, {r1, r2}
 800130c:	484e      	ldr	r0, [pc, #312]	; (8001448 <OLED_Update_Display_Case+0x730>)
 800130e:	f005 fe3d 	bl	8006f8c <ssd1306_WriteString>
		ssd1306_SetCursor(0, 53);
 8001312:	2135      	movs	r1, #53	; 0x35
 8001314:	2000      	movs	r0, #0
 8001316:	f005 fe5f 	bl	8006fd8 <ssd1306_SetCursor>
		ssd1306_WriteString("DUTY= 12 %", Font_7x10, White);
 800131a:	4a37      	ldr	r2, [pc, #220]	; (80013f8 <OLED_Update_Display_Case+0x6e0>)
 800131c:	2301      	movs	r3, #1
 800131e:	ca06      	ldmia	r2, {r1, r2}
 8001320:	4840      	ldr	r0, [pc, #256]	; (8001424 <OLED_Update_Display_Case+0x70c>)
 8001322:	f005 fe33 	bl	8006f8c <ssd1306_WriteString>
		OLED_WriteCaseNumber();
 8001326:	f7ff fcd3 	bl	8000cd0 <OLED_WriteCaseNumber>
		ssd1306_UpdateScreen();
 800132a:	f005 fd29 	bl	8006d80 <ssd1306_UpdateScreen>
		break;
 800132e:	e194      	b.n	800165a <OLED_Update_Display_Case+0x942>

	case Leonardo_PRF6:
		ssd1306_Fill(Black);
 8001330:	2000      	movs	r0, #0
 8001332:	f005 fd03 	bl	8006d3c <ssd1306_Fill>
		ssd1306_SetCursor(0, 0);
 8001336:	2100      	movs	r1, #0
 8001338:	2000      	movs	r0, #0
 800133a:	f005 fe4d 	bl	8006fd8 <ssd1306_SetCursor>
		ssd1306_WriteString("PRF 6", Font_16x26, White);
 800133e:	4a2c      	ldr	r2, [pc, #176]	; (80013f0 <OLED_Update_Display_Case+0x6d8>)
 8001340:	2301      	movs	r3, #1
 8001342:	ca06      	ldmia	r2, {r1, r2}
 8001344:	4841      	ldr	r0, [pc, #260]	; (800144c <OLED_Update_Display_Case+0x734>)
 8001346:	f005 fe21 	bl	8006f8c <ssd1306_WriteString>
		ssd1306_SetCursor(0, 29);
 800134a:	211d      	movs	r1, #29
 800134c:	2000      	movs	r0, #0
 800134e:	f005 fe43 	bl	8006fd8 <ssd1306_SetCursor>
		ssd1306_WriteString("PRF= 50 kHz", Font_7x10, White);
 8001352:	4a29      	ldr	r2, [pc, #164]	; (80013f8 <OLED_Update_Display_Case+0x6e0>)
 8001354:	2301      	movs	r3, #1
 8001356:	ca06      	ldmia	r2, {r1, r2}
 8001358:	483d      	ldr	r0, [pc, #244]	; (8001450 <OLED_Update_Display_Case+0x738>)
 800135a:	f005 fe17 	bl	8006f8c <ssd1306_WriteString>
		ssd1306_SetCursor(0, 41);
 800135e:	2129      	movs	r1, #41	; 0x29
 8001360:	2000      	movs	r0, #0
 8001362:	f005 fe39 	bl	8006fd8 <ssd1306_SetCursor>
		ssd1306_WriteString("PW= 2.4 us", Font_7x10, White);
 8001366:	4a24      	ldr	r2, [pc, #144]	; (80013f8 <OLED_Update_Display_Case+0x6e0>)
 8001368:	2301      	movs	r3, #1
 800136a:	ca06      	ldmia	r2, {r1, r2}
 800136c:	4839      	ldr	r0, [pc, #228]	; (8001454 <OLED_Update_Display_Case+0x73c>)
 800136e:	f005 fe0d 	bl	8006f8c <ssd1306_WriteString>
		ssd1306_SetCursor(0, 53);
 8001372:	2135      	movs	r1, #53	; 0x35
 8001374:	2000      	movs	r0, #0
 8001376:	f005 fe2f 	bl	8006fd8 <ssd1306_SetCursor>
		ssd1306_WriteString("DUTY= 12 %", Font_7x10, White);
 800137a:	4a1f      	ldr	r2, [pc, #124]	; (80013f8 <OLED_Update_Display_Case+0x6e0>)
 800137c:	2301      	movs	r3, #1
 800137e:	ca06      	ldmia	r2, {r1, r2}
 8001380:	4828      	ldr	r0, [pc, #160]	; (8001424 <OLED_Update_Display_Case+0x70c>)
 8001382:	f005 fe03 	bl	8006f8c <ssd1306_WriteString>
		OLED_WriteCaseNumber();
 8001386:	f7ff fca3 	bl	8000cd0 <OLED_WriteCaseNumber>
		ssd1306_UpdateScreen();
 800138a:	f005 fcf9 	bl	8006d80 <ssd1306_UpdateScreen>
		break;
 800138e:	e164      	b.n	800165a <OLED_Update_Display_Case+0x942>

	case Leonardo_PRF7:
		ssd1306_Fill(Black);
 8001390:	2000      	movs	r0, #0
 8001392:	f005 fcd3 	bl	8006d3c <ssd1306_Fill>
		ssd1306_SetCursor(0, 0);
 8001396:	2100      	movs	r1, #0
 8001398:	2000      	movs	r0, #0
 800139a:	f005 fe1d 	bl	8006fd8 <ssd1306_SetCursor>
		ssd1306_WriteString("PRF 7", Font_16x26, White);
 800139e:	4a14      	ldr	r2, [pc, #80]	; (80013f0 <OLED_Update_Display_Case+0x6d8>)
 80013a0:	2301      	movs	r3, #1
 80013a2:	ca06      	ldmia	r2, {r1, r2}
 80013a4:	482c      	ldr	r0, [pc, #176]	; (8001458 <OLED_Update_Display_Case+0x740>)
 80013a6:	f005 fdf1 	bl	8006f8c <ssd1306_WriteString>
		ssd1306_SetCursor(0, 29);
 80013aa:	211d      	movs	r1, #29
 80013ac:	2000      	movs	r0, #0
 80013ae:	f005 fe13 	bl	8006fd8 <ssd1306_SetCursor>
		ssd1306_WriteString("PRF= 60 kHz", Font_7x10, White);
 80013b2:	4a11      	ldr	r2, [pc, #68]	; (80013f8 <OLED_Update_Display_Case+0x6e0>)
 80013b4:	2301      	movs	r3, #1
 80013b6:	ca06      	ldmia	r2, {r1, r2}
 80013b8:	4828      	ldr	r0, [pc, #160]	; (800145c <OLED_Update_Display_Case+0x744>)
 80013ba:	f005 fde7 	bl	8006f8c <ssd1306_WriteString>
		ssd1306_SetCursor(0, 41);
 80013be:	2129      	movs	r1, #41	; 0x29
 80013c0:	2000      	movs	r0, #0
 80013c2:	f005 fe09 	bl	8006fd8 <ssd1306_SetCursor>
		ssd1306_WriteString("PW= 2 us", Font_7x10, White);
 80013c6:	4a0c      	ldr	r2, [pc, #48]	; (80013f8 <OLED_Update_Display_Case+0x6e0>)
 80013c8:	2301      	movs	r3, #1
 80013ca:	ca06      	ldmia	r2, {r1, r2}
 80013cc:	4824      	ldr	r0, [pc, #144]	; (8001460 <OLED_Update_Display_Case+0x748>)
 80013ce:	f005 fddd 	bl	8006f8c <ssd1306_WriteString>
		ssd1306_SetCursor(0, 53);
 80013d2:	2135      	movs	r1, #53	; 0x35
 80013d4:	2000      	movs	r0, #0
 80013d6:	f005 fdff 	bl	8006fd8 <ssd1306_SetCursor>
		ssd1306_WriteString("DUTY= 12 %", Font_7x10, White);
 80013da:	4a07      	ldr	r2, [pc, #28]	; (80013f8 <OLED_Update_Display_Case+0x6e0>)
 80013dc:	2301      	movs	r3, #1
 80013de:	ca06      	ldmia	r2, {r1, r2}
 80013e0:	4810      	ldr	r0, [pc, #64]	; (8001424 <OLED_Update_Display_Case+0x70c>)
 80013e2:	f005 fdd3 	bl	8006f8c <ssd1306_WriteString>
		OLED_WriteCaseNumber();
 80013e6:	f7ff fc73 	bl	8000cd0 <OLED_WriteCaseNumber>
		ssd1306_UpdateScreen();
 80013ea:	f005 fcc9 	bl	8006d80 <ssd1306_UpdateScreen>
		break;
 80013ee:	e134      	b.n	800165a <OLED_Update_Display_Case+0x942>
 80013f0:	200002f0 	.word	0x200002f0
 80013f4:	080092ec 	.word	0x080092ec
 80013f8:	200002e0 	.word	0x200002e0
 80013fc:	08009218 	.word	0x08009218
 8001400:	080092f4 	.word	0x080092f4
 8001404:	08009238 	.word	0x08009238
 8001408:	08009304 	.word	0x08009304
 800140c:	0800930c 	.word	0x0800930c
 8001410:	08009318 	.word	0x08009318
 8001414:	08009324 	.word	0x08009324
 8001418:	08009330 	.word	0x08009330
 800141c:	080091cc 	.word	0x080091cc
 8001420:	08009338 	.word	0x08009338
 8001424:	08009344 	.word	0x08009344
 8001428:	08009350 	.word	0x08009350
 800142c:	08009358 	.word	0x08009358
 8001430:	08009364 	.word	0x08009364
 8001434:	08009370 	.word	0x08009370
 8001438:	08009378 	.word	0x08009378
 800143c:	08009384 	.word	0x08009384
 8001440:	08009390 	.word	0x08009390
 8001444:	08009398 	.word	0x08009398
 8001448:	080093a4 	.word	0x080093a4
 800144c:	080093b0 	.word	0x080093b0
 8001450:	080093b8 	.word	0x080093b8
 8001454:	080093c4 	.word	0x080093c4
 8001458:	080093d0 	.word	0x080093d0
 800145c:	080093d8 	.word	0x080093d8
 8001460:	080093e4 	.word	0x080093e4

	case Leonardo_PRF8:
		ssd1306_Fill(Black);
 8001464:	2000      	movs	r0, #0
 8001466:	f005 fc69 	bl	8006d3c <ssd1306_Fill>
		ssd1306_SetCursor(0, 0);
 800146a:	2100      	movs	r1, #0
 800146c:	2000      	movs	r0, #0
 800146e:	f005 fdb3 	bl	8006fd8 <ssd1306_SetCursor>
		ssd1306_WriteString("PRF 8", Font_16x26, White);
 8001472:	4a7c      	ldr	r2, [pc, #496]	; (8001664 <OLED_Update_Display_Case+0x94c>)
 8001474:	2301      	movs	r3, #1
 8001476:	ca06      	ldmia	r2, {r1, r2}
 8001478:	487b      	ldr	r0, [pc, #492]	; (8001668 <OLED_Update_Display_Case+0x950>)
 800147a:	f005 fd87 	bl	8006f8c <ssd1306_WriteString>
		ssd1306_SetCursor(0, 29);
 800147e:	211d      	movs	r1, #29
 8001480:	2000      	movs	r0, #0
 8001482:	f005 fda9 	bl	8006fd8 <ssd1306_SetCursor>
		ssd1306_WriteString("PRF= 70 kHz", Font_7x10, White);
 8001486:	4a79      	ldr	r2, [pc, #484]	; (800166c <OLED_Update_Display_Case+0x954>)
 8001488:	2301      	movs	r3, #1
 800148a:	ca06      	ldmia	r2, {r1, r2}
 800148c:	4878      	ldr	r0, [pc, #480]	; (8001670 <OLED_Update_Display_Case+0x958>)
 800148e:	f005 fd7d 	bl	8006f8c <ssd1306_WriteString>
		ssd1306_SetCursor(0, 41);
 8001492:	2129      	movs	r1, #41	; 0x29
 8001494:	2000      	movs	r0, #0
 8001496:	f005 fd9f 	bl	8006fd8 <ssd1306_SetCursor>
		ssd1306_WriteString("PW= 1.7 us", Font_7x10, White);
 800149a:	4a74      	ldr	r2, [pc, #464]	; (800166c <OLED_Update_Display_Case+0x954>)
 800149c:	2301      	movs	r3, #1
 800149e:	ca06      	ldmia	r2, {r1, r2}
 80014a0:	4874      	ldr	r0, [pc, #464]	; (8001674 <OLED_Update_Display_Case+0x95c>)
 80014a2:	f005 fd73 	bl	8006f8c <ssd1306_WriteString>
		ssd1306_SetCursor(0, 53);
 80014a6:	2135      	movs	r1, #53	; 0x35
 80014a8:	2000      	movs	r0, #0
 80014aa:	f005 fd95 	bl	8006fd8 <ssd1306_SetCursor>
		ssd1306_WriteString("DUTY= 12 %", Font_7x10, White);
 80014ae:	4a6f      	ldr	r2, [pc, #444]	; (800166c <OLED_Update_Display_Case+0x954>)
 80014b0:	2301      	movs	r3, #1
 80014b2:	ca06      	ldmia	r2, {r1, r2}
 80014b4:	4870      	ldr	r0, [pc, #448]	; (8001678 <OLED_Update_Display_Case+0x960>)
 80014b6:	f005 fd69 	bl	8006f8c <ssd1306_WriteString>
		OLED_WriteCaseNumber();
 80014ba:	f7ff fc09 	bl	8000cd0 <OLED_WriteCaseNumber>
		ssd1306_UpdateScreen();
 80014be:	f005 fc5f 	bl	8006d80 <ssd1306_UpdateScreen>
		break;
 80014c2:	e0ca      	b.n	800165a <OLED_Update_Display_Case+0x942>

	case Leonardo_PRF9:
		ssd1306_Fill(Black);
 80014c4:	2000      	movs	r0, #0
 80014c6:	f005 fc39 	bl	8006d3c <ssd1306_Fill>
		ssd1306_SetCursor(0, 0);
 80014ca:	2100      	movs	r1, #0
 80014cc:	2000      	movs	r0, #0
 80014ce:	f005 fd83 	bl	8006fd8 <ssd1306_SetCursor>
		ssd1306_WriteString("PRF 9", Font_16x26, White);
 80014d2:	4a64      	ldr	r2, [pc, #400]	; (8001664 <OLED_Update_Display_Case+0x94c>)
 80014d4:	2301      	movs	r3, #1
 80014d6:	ca06      	ldmia	r2, {r1, r2}
 80014d8:	4868      	ldr	r0, [pc, #416]	; (800167c <OLED_Update_Display_Case+0x964>)
 80014da:	f005 fd57 	bl	8006f8c <ssd1306_WriteString>
		ssd1306_SetCursor(0, 29);
 80014de:	211d      	movs	r1, #29
 80014e0:	2000      	movs	r0, #0
 80014e2:	f005 fd79 	bl	8006fd8 <ssd1306_SetCursor>
		ssd1306_WriteString("PRF= 70 kHz", Font_7x10, White);
 80014e6:	4a61      	ldr	r2, [pc, #388]	; (800166c <OLED_Update_Display_Case+0x954>)
 80014e8:	2301      	movs	r3, #1
 80014ea:	ca06      	ldmia	r2, {r1, r2}
 80014ec:	4860      	ldr	r0, [pc, #384]	; (8001670 <OLED_Update_Display_Case+0x958>)
 80014ee:	f005 fd4d 	bl	8006f8c <ssd1306_WriteString>
		ssd1306_SetCursor(0, 41);
 80014f2:	2129      	movs	r1, #41	; 0x29
 80014f4:	2000      	movs	r0, #0
 80014f6:	f005 fd6f 	bl	8006fd8 <ssd1306_SetCursor>
		ssd1306_WriteString("PW= 0.2 us", Font_7x10, White);
 80014fa:	4a5c      	ldr	r2, [pc, #368]	; (800166c <OLED_Update_Display_Case+0x954>)
 80014fc:	2301      	movs	r3, #1
 80014fe:	ca06      	ldmia	r2, {r1, r2}
 8001500:	485f      	ldr	r0, [pc, #380]	; (8001680 <OLED_Update_Display_Case+0x968>)
 8001502:	f005 fd43 	bl	8006f8c <ssd1306_WriteString>
		ssd1306_SetCursor(0, 53);
 8001506:	2135      	movs	r1, #53	; 0x35
 8001508:	2000      	movs	r0, #0
 800150a:	f005 fd65 	bl	8006fd8 <ssd1306_SetCursor>
		ssd1306_WriteString("DUTY= 1.4 %", Font_7x10, White);
 800150e:	4a57      	ldr	r2, [pc, #348]	; (800166c <OLED_Update_Display_Case+0x954>)
 8001510:	2301      	movs	r3, #1
 8001512:	ca06      	ldmia	r2, {r1, r2}
 8001514:	485b      	ldr	r0, [pc, #364]	; (8001684 <OLED_Update_Display_Case+0x96c>)
 8001516:	f005 fd39 	bl	8006f8c <ssd1306_WriteString>
		OLED_WriteCaseNumber();
 800151a:	f7ff fbd9 	bl	8000cd0 <OLED_WriteCaseNumber>
		ssd1306_UpdateScreen();
 800151e:	f005 fc2f 	bl	8006d80 <ssd1306_UpdateScreen>
		break;
 8001522:	e09a      	b.n	800165a <OLED_Update_Display_Case+0x942>

	case Leonardo_Duty_12P:
		ssd1306_Fill(Black);
 8001524:	2000      	movs	r0, #0
 8001526:	f005 fc09 	bl	8006d3c <ssd1306_Fill>
		ssd1306_SetCursor(0, 0);
 800152a:	2100      	movs	r1, #0
 800152c:	2000      	movs	r0, #0
 800152e:	f005 fd53 	bl	8006fd8 <ssd1306_SetCursor>
		ssd1306_WriteString("D-y 12", Font_16x26, White);
 8001532:	4a4c      	ldr	r2, [pc, #304]	; (8001664 <OLED_Update_Display_Case+0x94c>)
 8001534:	2301      	movs	r3, #1
 8001536:	ca06      	ldmia	r2, {r1, r2}
 8001538:	4853      	ldr	r0, [pc, #332]	; (8001688 <OLED_Update_Display_Case+0x970>)
 800153a:	f005 fd27 	bl	8006f8c <ssd1306_WriteString>
		ssd1306_SetCursor(100, 3);
 800153e:	2103      	movs	r1, #3
 8001540:	2064      	movs	r0, #100	; 0x64
 8001542:	f005 fd49 	bl	8006fd8 <ssd1306_SetCursor>
		ssd1306_WriteString("%", Font_11x18, White);
 8001546:	4a51      	ldr	r2, [pc, #324]	; (800168c <OLED_Update_Display_Case+0x974>)
 8001548:	2301      	movs	r3, #1
 800154a:	ca06      	ldmia	r2, {r1, r2}
 800154c:	4850      	ldr	r0, [pc, #320]	; (8001690 <OLED_Update_Display_Case+0x978>)
 800154e:	f005 fd1d 	bl	8006f8c <ssd1306_WriteString>
		ssd1306_SetCursor(0, 29);
 8001552:	211d      	movs	r1, #29
 8001554:	2000      	movs	r0, #0
 8001556:	f005 fd3f 	bl	8006fd8 <ssd1306_SetCursor>
		ssd1306_WriteString("PRF= 2.4 kHz", Font_7x10, White);
 800155a:	4a44      	ldr	r2, [pc, #272]	; (800166c <OLED_Update_Display_Case+0x954>)
 800155c:	2301      	movs	r3, #1
 800155e:	ca06      	ldmia	r2, {r1, r2}
 8001560:	484c      	ldr	r0, [pc, #304]	; (8001694 <OLED_Update_Display_Case+0x97c>)
 8001562:	f005 fd13 	bl	8006f8c <ssd1306_WriteString>
		ssd1306_SetCursor(0, 41);
 8001566:	2129      	movs	r1, #41	; 0x29
 8001568:	2000      	movs	r0, #0
 800156a:	f005 fd35 	bl	8006fd8 <ssd1306_SetCursor>
		ssd1306_WriteString("PW= 50 us", Font_7x10, White);
 800156e:	4a3f      	ldr	r2, [pc, #252]	; (800166c <OLED_Update_Display_Case+0x954>)
 8001570:	2301      	movs	r3, #1
 8001572:	ca06      	ldmia	r2, {r1, r2}
 8001574:	4848      	ldr	r0, [pc, #288]	; (8001698 <OLED_Update_Display_Case+0x980>)
 8001576:	f005 fd09 	bl	8006f8c <ssd1306_WriteString>
		OLED_WriteCaseNumber();
 800157a:	f7ff fba9 	bl	8000cd0 <OLED_WriteCaseNumber>
		ssd1306_UpdateScreen();
 800157e:	f005 fbff 	bl	8006d80 <ssd1306_UpdateScreen>
		break;
 8001582:	e06a      	b.n	800165a <OLED_Update_Display_Case+0x942>

	case Leonardo_Duty_15P:
		ssd1306_Fill(Black);
 8001584:	2000      	movs	r0, #0
 8001586:	f005 fbd9 	bl	8006d3c <ssd1306_Fill>
		ssd1306_SetCursor(0, 0);
 800158a:	2100      	movs	r1, #0
 800158c:	2000      	movs	r0, #0
 800158e:	f005 fd23 	bl	8006fd8 <ssd1306_SetCursor>
		ssd1306_WriteString("D-y 15", Font_16x26, White);
 8001592:	4a34      	ldr	r2, [pc, #208]	; (8001664 <OLED_Update_Display_Case+0x94c>)
 8001594:	2301      	movs	r3, #1
 8001596:	ca06      	ldmia	r2, {r1, r2}
 8001598:	4840      	ldr	r0, [pc, #256]	; (800169c <OLED_Update_Display_Case+0x984>)
 800159a:	f005 fcf7 	bl	8006f8c <ssd1306_WriteString>
		ssd1306_SetCursor(100, 3);
 800159e:	2103      	movs	r1, #3
 80015a0:	2064      	movs	r0, #100	; 0x64
 80015a2:	f005 fd19 	bl	8006fd8 <ssd1306_SetCursor>
		ssd1306_WriteString("%", Font_11x18, White);
 80015a6:	4a39      	ldr	r2, [pc, #228]	; (800168c <OLED_Update_Display_Case+0x974>)
 80015a8:	2301      	movs	r3, #1
 80015aa:	ca06      	ldmia	r2, {r1, r2}
 80015ac:	4838      	ldr	r0, [pc, #224]	; (8001690 <OLED_Update_Display_Case+0x978>)
 80015ae:	f005 fced 	bl	8006f8c <ssd1306_WriteString>
		ssd1306_SetCursor(0, 29);
 80015b2:	211d      	movs	r1, #29
 80015b4:	2000      	movs	r0, #0
 80015b6:	f005 fd0f 	bl	8006fd8 <ssd1306_SetCursor>
		ssd1306_WriteString("PRF1= 15 kHz", Font_7x10, White);
 80015ba:	4a2c      	ldr	r2, [pc, #176]	; (800166c <OLED_Update_Display_Case+0x954>)
 80015bc:	2301      	movs	r3, #1
 80015be:	ca06      	ldmia	r2, {r1, r2}
 80015c0:	4837      	ldr	r0, [pc, #220]	; (80016a0 <OLED_Update_Display_Case+0x988>)
 80015c2:	f005 fce3 	bl	8006f8c <ssd1306_WriteString>
		ssd1306_SetCursor(0, 41);
 80015c6:	2129      	movs	r1, #41	; 0x29
 80015c8:	2000      	movs	r0, #0
 80015ca:	f005 fd05 	bl	8006fd8 <ssd1306_SetCursor>
		ssd1306_WriteString("PRF2= 11.57 kHz", Font_7x10, White);
 80015ce:	4a27      	ldr	r2, [pc, #156]	; (800166c <OLED_Update_Display_Case+0x954>)
 80015d0:	2301      	movs	r3, #1
 80015d2:	ca06      	ldmia	r2, {r1, r2}
 80015d4:	4833      	ldr	r0, [pc, #204]	; (80016a4 <OLED_Update_Display_Case+0x98c>)
 80015d6:	f005 fcd9 	bl	8006f8c <ssd1306_WriteString>
		ssd1306_SetCursor(0, 53);
 80015da:	2135      	movs	r1, #53	; 0x35
 80015dc:	2000      	movs	r0, #0
 80015de:	f005 fcfb 	bl	8006fd8 <ssd1306_SetCursor>
		ssd1306_WriteString("PW= 10 us", Font_7x10, White);
 80015e2:	4a22      	ldr	r2, [pc, #136]	; (800166c <OLED_Update_Display_Case+0x954>)
 80015e4:	2301      	movs	r3, #1
 80015e6:	ca06      	ldmia	r2, {r1, r2}
 80015e8:	482f      	ldr	r0, [pc, #188]	; (80016a8 <OLED_Update_Display_Case+0x990>)
 80015ea:	f005 fccf 	bl	8006f8c <ssd1306_WriteString>
		OLED_WriteCaseNumber();
 80015ee:	f7ff fb6f 	bl	8000cd0 <OLED_WriteCaseNumber>
		ssd1306_UpdateScreen();
 80015f2:	f005 fbc5 	bl	8006d80 <ssd1306_UpdateScreen>
		break;
 80015f6:	e030      	b.n	800165a <OLED_Update_Display_Case+0x942>

	case Leonardo_Pattern_Q:
		ssd1306_Fill(Black);
 80015f8:	2000      	movs	r0, #0
 80015fa:	f005 fb9f 	bl	8006d3c <ssd1306_Fill>
		ssd1306_SetCursor(0, 0);
 80015fe:	2100      	movs	r1, #0
 8001600:	2000      	movs	r0, #0
 8001602:	f005 fce9 	bl	8006fd8 <ssd1306_SetCursor>
		ssd1306_WriteString("PRN Q", Font_16x26, White);
 8001606:	4a17      	ldr	r2, [pc, #92]	; (8001664 <OLED_Update_Display_Case+0x94c>)
 8001608:	2301      	movs	r3, #1
 800160a:	ca06      	ldmia	r2, {r1, r2}
 800160c:	4827      	ldr	r0, [pc, #156]	; (80016ac <OLED_Update_Display_Case+0x994>)
 800160e:	f005 fcbd 	bl	8006f8c <ssd1306_WriteString>
		ssd1306_SetCursor(0, 29);
 8001612:	211d      	movs	r1, #29
 8001614:	2000      	movs	r0, #0
 8001616:	f005 fcdf 	bl	8006fd8 <ssd1306_SetCursor>
		ssd1306_WriteString("PRF= 10 kHz", Font_7x10, White);
 800161a:	4a14      	ldr	r2, [pc, #80]	; (800166c <OLED_Update_Display_Case+0x954>)
 800161c:	2301      	movs	r3, #1
 800161e:	ca06      	ldmia	r2, {r1, r2}
 8001620:	4823      	ldr	r0, [pc, #140]	; (80016b0 <OLED_Update_Display_Case+0x998>)
 8001622:	f005 fcb3 	bl	8006f8c <ssd1306_WriteString>
		ssd1306_SetCursor(0, 41);
 8001626:	2129      	movs	r1, #41	; 0x29
 8001628:	2000      	movs	r0, #0
 800162a:	f005 fcd5 	bl	8006fd8 <ssd1306_SetCursor>
		ssd1306_WriteString("PW1= 20 us", Font_7x10, White);
 800162e:	4a0f      	ldr	r2, [pc, #60]	; (800166c <OLED_Update_Display_Case+0x954>)
 8001630:	2301      	movs	r3, #1
 8001632:	ca06      	ldmia	r2, {r1, r2}
 8001634:	481f      	ldr	r0, [pc, #124]	; (80016b4 <OLED_Update_Display_Case+0x99c>)
 8001636:	f005 fca9 	bl	8006f8c <ssd1306_WriteString>
		ssd1306_SetCursor(0, 53);
 800163a:	2135      	movs	r1, #53	; 0x35
 800163c:	2000      	movs	r0, #0
 800163e:	f005 fccb 	bl	8006fd8 <ssd1306_SetCursor>
		ssd1306_WriteString("PW2= 10 us", Font_7x10, White);
 8001642:	4a0a      	ldr	r2, [pc, #40]	; (800166c <OLED_Update_Display_Case+0x954>)
 8001644:	2301      	movs	r3, #1
 8001646:	ca06      	ldmia	r2, {r1, r2}
 8001648:	481b      	ldr	r0, [pc, #108]	; (80016b8 <OLED_Update_Display_Case+0x9a0>)
 800164a:	f005 fc9f 	bl	8006f8c <ssd1306_WriteString>
		OLED_WriteCaseNumber();
 800164e:	f7ff fb3f 	bl	8000cd0 <OLED_WriteCaseNumber>
		ssd1306_UpdateScreen();
 8001652:	f005 fb95 	bl	8006d80 <ssd1306_UpdateScreen>
		break;
 8001656:	e000      	b.n	800165a <OLED_Update_Display_Case+0x942>

	default:
		break;
 8001658:	bf00      	nop
	}
}
 800165a:	bf00      	nop
 800165c:	3708      	adds	r7, #8
 800165e:	46bd      	mov	sp, r7
 8001660:	bd80      	pop	{r7, pc}
 8001662:	bf00      	nop
 8001664:	200002f0 	.word	0x200002f0
 8001668:	080093f0 	.word	0x080093f0
 800166c:	200002e0 	.word	0x200002e0
 8001670:	080093f8 	.word	0x080093f8
 8001674:	08009404 	.word	0x08009404
 8001678:	08009344 	.word	0x08009344
 800167c:	08009410 	.word	0x08009410
 8001680:	08009418 	.word	0x08009418
 8001684:	08009424 	.word	0x08009424
 8001688:	08009430 	.word	0x08009430
 800168c:	200002e8 	.word	0x200002e8
 8001690:	08009438 	.word	0x08009438
 8001694:	0800943c 	.word	0x0800943c
 8001698:	08009318 	.word	0x08009318
 800169c:	0800944c 	.word	0x0800944c
 80016a0:	08009454 	.word	0x08009454
 80016a4:	08009464 	.word	0x08009464
 80016a8:	080091d8 	.word	0x080091d8
 80016ac:	08009474 	.word	0x08009474
 80016b0:	080091cc 	.word	0x080091cc
 80016b4:	0800947c 	.word	0x0800947c
 80016b8:	08009488 	.word	0x08009488

080016bc <InitDataInFlashSettings>:
#define FREQUENCY_CF_LOWER_LIMIT  0.99	// 1%
#define PW_OFFSET_UPPER_LIMIT  50			// 50 * 12.5ns = 625 ns
#define PW_OFFSET_LOWER_LIMIT  -10			// 125 ns

void InitDataInFlashSettings(void)	// initialisation needed only for erase function before write to EEPROM
{
 80016bc:	b480      	push	{r7}
 80016be:	af00      	add	r7, sp, #0
	EraseInitStruct.TypeErase   = FLASH_TYPEERASE_PAGES;
 80016c0:	4b08      	ldr	r3, [pc, #32]	; (80016e4 <InitDataInFlashSettings+0x28>)
 80016c2:	2200      	movs	r2, #0
 80016c4:	601a      	str	r2, [r3, #0]
	EraseInitStruct.Banks       = FLASH_BANK_2;
 80016c6:	4b07      	ldr	r3, [pc, #28]	; (80016e4 <InitDataInFlashSettings+0x28>)
 80016c8:	2202      	movs	r2, #2
 80016ca:	605a      	str	r2, [r3, #4]
	EraseInitStruct.Page        = 511;
 80016cc:	4b05      	ldr	r3, [pc, #20]	; (80016e4 <InitDataInFlashSettings+0x28>)
 80016ce:	f240 12ff 	movw	r2, #511	; 0x1ff
 80016d2:	609a      	str	r2, [r3, #8]
	EraseInitStruct.NbPages     = 1;
 80016d4:	4b03      	ldr	r3, [pc, #12]	; (80016e4 <InitDataInFlashSettings+0x28>)
 80016d6:	2201      	movs	r2, #1
 80016d8:	60da      	str	r2, [r3, #12]
}
 80016da:	bf00      	nop
 80016dc:	46bd      	mov	sp, r7
 80016de:	f85d 7b04 	ldr.w	r7, [sp], #4
 80016e2:	4770      	bx	lr
 80016e4:	200004e8 	.word	0x200004e8

080016e8 <SaveCalibrationFactorInFlash>:

void SaveCalibrationFactorInFlash()
{
 80016e8:	b598      	push	{r3, r4, r7, lr}
 80016ea:	af00      	add	r7, sp, #0
	HAL_FLASH_Unlock();
 80016ec:	f001 fea6 	bl	800343c <HAL_FLASH_Unlock>
	HAL_FLASHEx_Erase(&EraseInitStruct, &PAGEError);
 80016f0:	4916      	ldr	r1, [pc, #88]	; (800174c <SaveCalibrationFactorInFlash+0x64>)
 80016f2:	4817      	ldr	r0, [pc, #92]	; (8001750 <SaveCalibrationFactorInFlash+0x68>)
 80016f4:	f001 ff82 	bl	80035fc <HAL_FLASHEx_Erase>
	HAL_FLASH_Program (FLASH_TYPEPROGRAM_DOUBLEWORD, FrequencyCalibrationFactorFlashAddress, FrequencyCalibrationFactor * 1000000);
 80016f8:	4b16      	ldr	r3, [pc, #88]	; (8001754 <SaveCalibrationFactorInFlash+0x6c>)
 80016fa:	681c      	ldr	r4, [r3, #0]
 80016fc:	4b16      	ldr	r3, [pc, #88]	; (8001758 <SaveCalibrationFactorInFlash+0x70>)
 80016fe:	edd3 7a00 	vldr	s15, [r3]
 8001702:	ed9f 7a16 	vldr	s14, [pc, #88]	; 800175c <SaveCalibrationFactorInFlash+0x74>
 8001706:	ee67 7a87 	vmul.f32	s15, s15, s14
 800170a:	ee17 0a90 	vmov	r0, s15
 800170e:	f7ff fabb 	bl	8000c88 <__aeabi_f2ulz>
 8001712:	4602      	mov	r2, r0
 8001714:	460b      	mov	r3, r1
 8001716:	4621      	mov	r1, r4
 8001718:	2000      	movs	r0, #0
 800171a:	f001 fe23 	bl	8003364 <HAL_FLASH_Program>
	HAL_FLASH_Program (FLASH_TYPEPROGRAM_DOUBLEWORD, PulseWitdhOffsetFlashAddress, PulseWidthOffset * 1000);
 800171e:	4b10      	ldr	r3, [pc, #64]	; (8001760 <SaveCalibrationFactorInFlash+0x78>)
 8001720:	681c      	ldr	r4, [r3, #0]
 8001722:	4b10      	ldr	r3, [pc, #64]	; (8001764 <SaveCalibrationFactorInFlash+0x7c>)
 8001724:	edd3 7a00 	vldr	s15, [r3]
 8001728:	ed9f 7a0f 	vldr	s14, [pc, #60]	; 8001768 <SaveCalibrationFactorInFlash+0x80>
 800172c:	ee67 7a87 	vmul.f32	s15, s15, s14
 8001730:	ee17 0a90 	vmov	r0, s15
 8001734:	f7ff faa8 	bl	8000c88 <__aeabi_f2ulz>
 8001738:	4602      	mov	r2, r0
 800173a:	460b      	mov	r3, r1
 800173c:	4621      	mov	r1, r4
 800173e:	2000      	movs	r0, #0
 8001740:	f001 fe10 	bl	8003364 <HAL_FLASH_Program>
	HAL_FLASH_Lock();
 8001744:	f001 fe9c 	bl	8003480 <HAL_FLASH_Lock>
}
 8001748:	bf00      	nop
 800174a:	bd98      	pop	{r3, r4, r7, pc}
 800174c:	200004e4 	.word	0x200004e4
 8001750:	200004e8 	.word	0x200004e8
 8001754:	20000004 	.word	0x20000004
 8001758:	20000924 	.word	0x20000924
 800175c:	49742400 	.word	0x49742400
 8001760:	20000008 	.word	0x20000008
 8001764:	20000934 	.word	0x20000934
 8001768:	447a0000 	.word	0x447a0000
 800176c:	00000000 	.word	0x00000000

08001770 <ReadFrequencyCalibrationFactorFromFlash>:

float ReadFrequencyCalibrationFactorFromFlash(void)
{
 8001770:	b580      	push	{r7, lr}
 8001772:	b082      	sub	sp, #8
 8001774:	af00      	add	r7, sp, #0
	uint32_t raw_value_calibration_factor = *(ptrCalibrationFactorInFlashAddress);
 8001776:	4b1c      	ldr	r3, [pc, #112]	; (80017e8 <ReadFrequencyCalibrationFactorFromFlash+0x78>)
 8001778:	681b      	ldr	r3, [r3, #0]
 800177a:	681b      	ldr	r3, [r3, #0]
 800177c:	607b      	str	r3, [r7, #4]
	float calibration_factor = (float)raw_value_calibration_factor / 1000000;
 800177e:	687b      	ldr	r3, [r7, #4]
 8001780:	ee07 3a90 	vmov	s15, r3
 8001784:	eeb8 7a67 	vcvt.f32.u32	s14, s15
 8001788:	eddf 6a18 	vldr	s13, [pc, #96]	; 80017ec <ReadFrequencyCalibrationFactorFromFlash+0x7c>
 800178c:	eec7 7a26 	vdiv.f32	s15, s14, s13
 8001790:	edc7 7a00 	vstr	s15, [r7]

	if((calibration_factor > FREQUENCY_CF_UPPER_LIMIT) || (calibration_factor < FREQUENCY_CF_LOWER_LIMIT))
 8001794:	6838      	ldr	r0, [r7, #0]
 8001796:	f7fe fed7 	bl	8000548 <__aeabi_f2d>
 800179a:	a30f      	add	r3, pc, #60	; (adr r3, 80017d8 <ReadFrequencyCalibrationFactorFromFlash+0x68>)
 800179c:	e9d3 2300 	ldrd	r2, r3, [r3]
 80017a0:	f7ff f9ba 	bl	8000b18 <__aeabi_dcmpgt>
 80017a4:	4603      	mov	r3, r0
 80017a6:	2b00      	cmp	r3, #0
 80017a8:	d10a      	bne.n	80017c0 <ReadFrequencyCalibrationFactorFromFlash+0x50>
 80017aa:	6838      	ldr	r0, [r7, #0]
 80017ac:	f7fe fecc 	bl	8000548 <__aeabi_f2d>
 80017b0:	a30b      	add	r3, pc, #44	; (adr r3, 80017e0 <ReadFrequencyCalibrationFactorFromFlash+0x70>)
 80017b2:	e9d3 2300 	ldrd	r2, r3, [r3]
 80017b6:	f7ff f991 	bl	8000adc <__aeabi_dcmplt>
 80017ba:	4603      	mov	r3, r0
 80017bc:	2b00      	cmp	r3, #0
 80017be:	d002      	beq.n	80017c6 <ReadFrequencyCalibrationFactorFromFlash+0x56>
		return 1;						 // if not programmed yet or unexpected value then set to default
 80017c0:	f04f 537e 	mov.w	r3, #1065353216	; 0x3f800000
 80017c4:	e000      	b.n	80017c8 <ReadFrequencyCalibrationFactorFromFlash+0x58>
	else
		return calibration_factor;
 80017c6:	683b      	ldr	r3, [r7, #0]
 80017c8:	ee07 3a90 	vmov	s15, r3
}
 80017cc:	eeb0 0a67 	vmov.f32	s0, s15
 80017d0:	3708      	adds	r7, #8
 80017d2:	46bd      	mov	sp, r7
 80017d4:	bd80      	pop	{r7, pc}
 80017d6:	bf00      	nop
 80017d8:	c28f5c29 	.word	0xc28f5c29
 80017dc:	3ff028f5 	.word	0x3ff028f5
 80017e0:	7ae147ae 	.word	0x7ae147ae
 80017e4:	3fefae14 	.word	0x3fefae14
 80017e8:	2000000c 	.word	0x2000000c
 80017ec:	49742400 	.word	0x49742400

080017f0 <ReadPulseWidthOffsetFromFlash>:

float ReadPulseWidthOffsetFromFlash(void)
{
 80017f0:	b590      	push	{r4, r7, lr}
 80017f2:	b083      	sub	sp, #12
 80017f4:	af00      	add	r7, sp, #0
	uint32_t raw_value_PW_offset_factor = *(ptrPulseWidthOffsetInFlashAddress);
 80017f6:	4b19      	ldr	r3, [pc, #100]	; (800185c <ReadPulseWidthOffsetFromFlash+0x6c>)
 80017f8:	681b      	ldr	r3, [r3, #0]
 80017fa:	681b      	ldr	r3, [r3, #0]
 80017fc:	607b      	str	r3, [r7, #4]
	int32_t PW_Offset = round((float)raw_value_PW_offset_factor / 1000);
 80017fe:	687b      	ldr	r3, [r7, #4]
 8001800:	ee07 3a90 	vmov	s15, r3
 8001804:	eef8 7a67 	vcvt.f32.u32	s15, s15
 8001808:	ed9f 7a15 	vldr	s14, [pc, #84]	; 8001860 <ReadPulseWidthOffsetFromFlash+0x70>
 800180c:	eec7 6a87 	vdiv.f32	s13, s15, s14
 8001810:	ee16 0a90 	vmov	r0, s13
 8001814:	f7fe fe98 	bl	8000548 <__aeabi_f2d>
 8001818:	4603      	mov	r3, r0
 800181a:	460c      	mov	r4, r1
 800181c:	ec44 3b10 	vmov	d0, r3, r4
 8001820:	f007 fc76 	bl	8009110 <round>
 8001824:	ec54 3b10 	vmov	r3, r4, d0
 8001828:	4618      	mov	r0, r3
 800182a:	4621      	mov	r1, r4
 800182c:	f7ff f994 	bl	8000b58 <__aeabi_d2iz>
 8001830:	4603      	mov	r3, r0
 8001832:	603b      	str	r3, [r7, #0]

	if((PW_Offset > PW_OFFSET_UPPER_LIMIT) || (PW_Offset < PW_OFFSET_LOWER_LIMIT))
 8001834:	683b      	ldr	r3, [r7, #0]
 8001836:	2b32      	cmp	r3, #50	; 0x32
 8001838:	dc03      	bgt.n	8001842 <ReadPulseWidthOffsetFromFlash+0x52>
 800183a:	683b      	ldr	r3, [r7, #0]
 800183c:	f113 0f0a 	cmn.w	r3, #10
 8001840:	da02      	bge.n	8001848 <ReadPulseWidthOffsetFromFlash+0x58>
		return 0;						 // if not programmed yet or unexpected value then set to default
 8001842:	eddf 7a08 	vldr	s15, [pc, #32]	; 8001864 <ReadPulseWidthOffsetFromFlash+0x74>
 8001846:	e004      	b.n	8001852 <ReadPulseWidthOffsetFromFlash+0x62>
	else
		return PW_Offset;
 8001848:	683b      	ldr	r3, [r7, #0]
 800184a:	ee07 3a90 	vmov	s15, r3
 800184e:	eef8 7ae7 	vcvt.f32.s32	s15, s15
}
 8001852:	eeb0 0a67 	vmov.f32	s0, s15
 8001856:	370c      	adds	r7, #12
 8001858:	46bd      	mov	sp, r7
 800185a:	bd90      	pop	{r4, r7, pc}
 800185c:	20000010 	.word	0x20000010
 8001860:	447a0000 	.word	0x447a0000
 8001864:	00000000 	.word	0x00000000

08001868 <UpdateFrequencyCalibrationDisplay>:

static void UpdateFrequencyCalibrationDisplay(void)
{
 8001868:	b590      	push	{r4, r7, lr}
 800186a:	b083      	sub	sp, #12
 800186c:	af02      	add	r7, sp, #8
	ssd1306_Fill(Black);
 800186e:	2000      	movs	r0, #0
 8001870:	f005 fa64 	bl	8006d3c <ssd1306_Fill>
	ssd1306_SetCursor(0, 0);
 8001874:	2100      	movs	r1, #0
 8001876:	2000      	movs	r0, #0
 8001878:	f005 fbae 	bl	8006fd8 <ssd1306_SetCursor>
	ssd1306_WriteString("FREQ. CALIBRATION:", Font_7x10, White);
 800187c:	4a1b      	ldr	r2, [pc, #108]	; (80018ec <UpdateFrequencyCalibrationDisplay+0x84>)
 800187e:	2301      	movs	r3, #1
 8001880:	ca06      	ldmia	r2, {r1, r2}
 8001882:	481b      	ldr	r0, [pc, #108]	; (80018f0 <UpdateFrequencyCalibrationDisplay+0x88>)
 8001884:	f005 fb82 	bl	8006f8c <ssd1306_WriteString>
	ssd1306_SetCursor(0, 14);
 8001888:	210e      	movs	r1, #14
 800188a:	2000      	movs	r0, #0
 800188c:	f005 fba4 	bl	8006fd8 <ssd1306_SetCursor>
	ssd1306_WriteString("ADJUST FREQ. TO", Font_7x10, White);
 8001890:	4a16      	ldr	r2, [pc, #88]	; (80018ec <UpdateFrequencyCalibrationDisplay+0x84>)
 8001892:	2301      	movs	r3, #1
 8001894:	ca06      	ldmia	r2, {r1, r2}
 8001896:	4817      	ldr	r0, [pc, #92]	; (80018f4 <UpdateFrequencyCalibrationDisplay+0x8c>)
 8001898:	f005 fb78 	bl	8006f8c <ssd1306_WriteString>
	ssd1306_SetCursor(0, 28);
 800189c:	211c      	movs	r1, #28
 800189e:	2000      	movs	r0, #0
 80018a0:	f005 fb9a 	bl	8006fd8 <ssd1306_SetCursor>
	ssd1306_WriteString("10kHz WITH TOGGLE", Font_7x10, White);
 80018a4:	4a11      	ldr	r2, [pc, #68]	; (80018ec <UpdateFrequencyCalibrationDisplay+0x84>)
 80018a6:	2301      	movs	r3, #1
 80018a8:	ca06      	ldmia	r2, {r1, r2}
 80018aa:	4813      	ldr	r0, [pc, #76]	; (80018f8 <UpdateFrequencyCalibrationDisplay+0x90>)
 80018ac:	f005 fb6e 	bl	8006f8c <ssd1306_WriteString>
	ssd1306_SetCursor(0, 44);
 80018b0:	212c      	movs	r1, #44	; 0x2c
 80018b2:	2000      	movs	r0, #0
 80018b4:	f005 fb90 	bl	8006fd8 <ssd1306_SetCursor>
	snprintf(string_buffer, 20, "CF= %.4f", FrequencyCalibrationFactor);
 80018b8:	4b10      	ldr	r3, [pc, #64]	; (80018fc <UpdateFrequencyCalibrationDisplay+0x94>)
 80018ba:	681b      	ldr	r3, [r3, #0]
 80018bc:	4618      	mov	r0, r3
 80018be:	f7fe fe43 	bl	8000548 <__aeabi_f2d>
 80018c2:	4603      	mov	r3, r0
 80018c4:	460c      	mov	r4, r1
 80018c6:	e9cd 3400 	strd	r3, r4, [sp]
 80018ca:	4a0d      	ldr	r2, [pc, #52]	; (8001900 <UpdateFrequencyCalibrationDisplay+0x98>)
 80018cc:	2114      	movs	r1, #20
 80018ce:	480d      	ldr	r0, [pc, #52]	; (8001904 <UpdateFrequencyCalibrationDisplay+0x9c>)
 80018d0:	f006 f842 	bl	8007958 <sniprintf>
	ssd1306_WriteString(string_buffer, Font_11x18, White);
 80018d4:	4a0c      	ldr	r2, [pc, #48]	; (8001908 <UpdateFrequencyCalibrationDisplay+0xa0>)
 80018d6:	2301      	movs	r3, #1
 80018d8:	ca06      	ldmia	r2, {r1, r2}
 80018da:	480a      	ldr	r0, [pc, #40]	; (8001904 <UpdateFrequencyCalibrationDisplay+0x9c>)
 80018dc:	f005 fb56 	bl	8006f8c <ssd1306_WriteString>
	ssd1306_UpdateScreen();
 80018e0:	f005 fa4e 	bl	8006d80 <ssd1306_UpdateScreen>
}
 80018e4:	bf00      	nop
 80018e6:	3704      	adds	r7, #4
 80018e8:	46bd      	mov	sp, r7
 80018ea:	bd90      	pop	{r4, r7, pc}
 80018ec:	200002e0 	.word	0x200002e0
 80018f0:	08009494 	.word	0x08009494
 80018f4:	080094a8 	.word	0x080094a8
 80018f8:	080094b8 	.word	0x080094b8
 80018fc:	20000924 	.word	0x20000924
 8001900:	080094cc 	.word	0x080094cc
 8001904:	200004f8 	.word	0x200004f8
 8001908:	200002e8 	.word	0x200002e8

0800190c <UpdatePulseAdjustmentDisplay>:

static void UpdatePulseAdjustmentDisplay(void)
{
 800190c:	b590      	push	{r4, r7, lr}
 800190e:	b083      	sub	sp, #12
 8001910:	af02      	add	r7, sp, #8
	ssd1306_Fill(Black);
 8001912:	2000      	movs	r0, #0
 8001914:	f005 fa12 	bl	8006d3c <ssd1306_Fill>
	ssd1306_SetCursor(0, 0);
 8001918:	2100      	movs	r1, #0
 800191a:	2000      	movs	r0, #0
 800191c:	f005 fb5c 	bl	8006fd8 <ssd1306_SetCursor>
	ssd1306_WriteString("PULSE ADJUSTMENT:", Font_7x10, White);
 8001920:	4a1e      	ldr	r2, [pc, #120]	; (800199c <UpdatePulseAdjustmentDisplay+0x90>)
 8001922:	2301      	movs	r3, #1
 8001924:	ca06      	ldmia	r2, {r1, r2}
 8001926:	481e      	ldr	r0, [pc, #120]	; (80019a0 <UpdatePulseAdjustmentDisplay+0x94>)
 8001928:	f005 fb30 	bl	8006f8c <ssd1306_WriteString>
	ssd1306_SetCursor(0, 14);
 800192c:	210e      	movs	r1, #14
 800192e:	2000      	movs	r0, #0
 8001930:	f005 fb52 	bl	8006fd8 <ssd1306_SetCursor>
	ssd1306_WriteString("ADJUST OFFSET WITH", Font_7x10, White);
 8001934:	4a19      	ldr	r2, [pc, #100]	; (800199c <UpdatePulseAdjustmentDisplay+0x90>)
 8001936:	2301      	movs	r3, #1
 8001938:	ca06      	ldmia	r2, {r1, r2}
 800193a:	481a      	ldr	r0, [pc, #104]	; (80019a4 <UpdatePulseAdjustmentDisplay+0x98>)
 800193c:	f005 fb26 	bl	8006f8c <ssd1306_WriteString>
	ssd1306_SetCursor(0, 28);
 8001940:	211c      	movs	r1, #28
 8001942:	2000      	movs	r0, #0
 8001944:	f005 fb48 	bl	8006fd8 <ssd1306_SetCursor>
	ssd1306_WriteString("TOGGLE FOR PW 0.2u", Font_7x10, White);
 8001948:	4a14      	ldr	r2, [pc, #80]	; (800199c <UpdatePulseAdjustmentDisplay+0x90>)
 800194a:	2301      	movs	r3, #1
 800194c:	ca06      	ldmia	r2, {r1, r2}
 800194e:	4816      	ldr	r0, [pc, #88]	; (80019a8 <UpdatePulseAdjustmentDisplay+0x9c>)
 8001950:	f005 fb1c 	bl	8006f8c <ssd1306_WriteString>
	ssd1306_SetCursor(0, 44);
 8001954:	212c      	movs	r1, #44	; 0x2c
 8001956:	2000      	movs	r0, #0
 8001958:	f005 fb3e 	bl	8006fd8 <ssd1306_SetCursor>
	snprintf(string_buffer, 20, "%+7.1f ns", PulseWidthOffset * 12.5);
 800195c:	4b13      	ldr	r3, [pc, #76]	; (80019ac <UpdatePulseAdjustmentDisplay+0xa0>)
 800195e:	681b      	ldr	r3, [r3, #0]
 8001960:	4618      	mov	r0, r3
 8001962:	f7fe fdf1 	bl	8000548 <__aeabi_f2d>
 8001966:	f04f 0200 	mov.w	r2, #0
 800196a:	4b11      	ldr	r3, [pc, #68]	; (80019b0 <UpdatePulseAdjustmentDisplay+0xa4>)
 800196c:	f7fe fe44 	bl	80005f8 <__aeabi_dmul>
 8001970:	4603      	mov	r3, r0
 8001972:	460c      	mov	r4, r1
 8001974:	e9cd 3400 	strd	r3, r4, [sp]
 8001978:	4a0e      	ldr	r2, [pc, #56]	; (80019b4 <UpdatePulseAdjustmentDisplay+0xa8>)
 800197a:	2114      	movs	r1, #20
 800197c:	480e      	ldr	r0, [pc, #56]	; (80019b8 <UpdatePulseAdjustmentDisplay+0xac>)
 800197e:	f005 ffeb 	bl	8007958 <sniprintf>
	ssd1306_WriteString(string_buffer, Font_11x18, White);
 8001982:	4a0e      	ldr	r2, [pc, #56]	; (80019bc <UpdatePulseAdjustmentDisplay+0xb0>)
 8001984:	2301      	movs	r3, #1
 8001986:	ca06      	ldmia	r2, {r1, r2}
 8001988:	480b      	ldr	r0, [pc, #44]	; (80019b8 <UpdatePulseAdjustmentDisplay+0xac>)
 800198a:	f005 faff 	bl	8006f8c <ssd1306_WriteString>
	ssd1306_UpdateScreen();
 800198e:	f005 f9f7 	bl	8006d80 <ssd1306_UpdateScreen>
}
 8001992:	bf00      	nop
 8001994:	3704      	adds	r7, #4
 8001996:	46bd      	mov	sp, r7
 8001998:	bd90      	pop	{r4, r7, pc}
 800199a:	bf00      	nop
 800199c:	200002e0 	.word	0x200002e0
 80019a0:	080094d8 	.word	0x080094d8
 80019a4:	080094ec 	.word	0x080094ec
 80019a8:	08009500 	.word	0x08009500
 80019ac:	20000934 	.word	0x20000934
 80019b0:	40290000 	.word	0x40290000
 80019b4:	08009514 	.word	0x08009514
 80019b8:	200004f8 	.word	0x200004f8
 80019bc:	200002e8 	.word	0x200002e8

080019c0 <Freq_Calibration_Mode>:

void Freq_Calibration_Mode(void)
{
 80019c0:	b590      	push	{r4, r7, lr}
 80019c2:	b089      	sub	sp, #36	; 0x24
 80019c4:	af00      	add	r7, sp, #0
	bool FrequencyCalibrationUpdated = false;
 80019c6:	2300      	movs	r3, #0
 80019c8:	77fb      	strb	r3, [r7, #31]
	bool Previous_Pin6_State = 1;
 80019ca:	2301      	movs	r3, #1
 80019cc:	72fb      	strb	r3, [r7, #11]
	bool Previous_Pin8_State = 1;
 80019ce:	2301      	movs	r3, #1
 80019d0:	72bb      	strb	r3, [r7, #10]
	uint32_t CalibrationFrequency_ARR = 7999;
 80019d2:	f641 733f 	movw	r3, #7999	; 0x1f3f
 80019d6:	607b      	str	r3, [r7, #4]

	for(int i = 0; i < 1000000; i++); // about 140 ms delay for de-bouncing
 80019d8:	2300      	movs	r3, #0
 80019da:	61bb      	str	r3, [r7, #24]
 80019dc:	e002      	b.n	80019e4 <Freq_Calibration_Mode+0x24>
 80019de:	69bb      	ldr	r3, [r7, #24]
 80019e0:	3301      	adds	r3, #1
 80019e2:	61bb      	str	r3, [r7, #24]
 80019e4:	69bb      	ldr	r3, [r7, #24]
 80019e6:	4aa4      	ldr	r2, [pc, #656]	; (8001c78 <Freq_Calibration_Mode+0x2b8>)
 80019e8:	4293      	cmp	r3, r2
 80019ea:	ddf8      	ble.n	80019de <Freq_Calibration_Mode+0x1e>
	HAL_NVIC_DisableIRQ(EXTI9_5_IRQn);	// disable switch function implemented in ISR to use this switch here for calibration
 80019ec:	2017      	movs	r0, #23
 80019ee:	f001 fc9e 	bl	800332e <HAL_NVIC_DisableIRQ>
	UpdateFrequencyCalibrationDisplay();
 80019f2:	f7ff ff39 	bl	8001868 <UpdateFrequencyCalibrationDisplay>
	HAL_TIM_Base_Stop_IT(&htim3);	// stop frequency switching
 80019f6:	48a1      	ldr	r0, [pc, #644]	; (8001c7c <Freq_Calibration_Mode+0x2bc>)
 80019f8:	f004 f8e0 	bl	8005bbc <HAL_TIM_Base_Stop_IT>
	TIM3->CNT = 0;
 80019fc:	4ba0      	ldr	r3, [pc, #640]	; (8001c80 <Freq_Calibration_Mode+0x2c0>)
 80019fe:	2200      	movs	r2, #0
 8001a00:	625a      	str	r2, [r3, #36]	; 0x24
	TIM2->CNT = 0;
 8001a02:	f04f 4380 	mov.w	r3, #1073741824	; 0x40000000
 8001a06:	2200      	movs	r2, #0
 8001a08:	625a      	str	r2, [r3, #36]	; 0x24
	TIM2->ARR = round(CalibrationFrequency_ARR * FrequencyCalibrationFactor);	//Set timer2 period to 100us --> 10 kHz (calibration frequency)
 8001a0a:	687b      	ldr	r3, [r7, #4]
 8001a0c:	ee07 3a90 	vmov	s15, r3
 8001a10:	eeb8 7a67 	vcvt.f32.u32	s14, s15
 8001a14:	4b9b      	ldr	r3, [pc, #620]	; (8001c84 <Freq_Calibration_Mode+0x2c4>)
 8001a16:	edd3 7a00 	vldr	s15, [r3]
 8001a1a:	ee67 7a27 	vmul.f32	s15, s14, s15
 8001a1e:	ee17 0a90 	vmov	r0, s15
 8001a22:	f7fe fd91 	bl	8000548 <__aeabi_f2d>
 8001a26:	4603      	mov	r3, r0
 8001a28:	460c      	mov	r4, r1
 8001a2a:	ec44 3b10 	vmov	d0, r3, r4
 8001a2e:	f007 fb6f 	bl	8009110 <round>
 8001a32:	ec53 2b10 	vmov	r2, r3, d0
 8001a36:	f04f 4480 	mov.w	r4, #1073741824	; 0x40000000
 8001a3a:	4610      	mov	r0, r2
 8001a3c:	4619      	mov	r1, r3
 8001a3e:	f7ff f8b3 	bl	8000ba8 <__aeabi_d2uiz>
 8001a42:	4603      	mov	r3, r0
 8001a44:	62e3      	str	r3, [r4, #44]	; 0x2c
	TIM2->CCR1 = round(80 * FrequencyCalibrationFactor + PulseWidthOffset);  	//  1us nominal pulse width for frequency calibration
 8001a46:	4b8f      	ldr	r3, [pc, #572]	; (8001c84 <Freq_Calibration_Mode+0x2c4>)
 8001a48:	edd3 7a00 	vldr	s15, [r3]
 8001a4c:	ed9f 7a8e 	vldr	s14, [pc, #568]	; 8001c88 <Freq_Calibration_Mode+0x2c8>
 8001a50:	ee27 7a87 	vmul.f32	s14, s15, s14
 8001a54:	4b8d      	ldr	r3, [pc, #564]	; (8001c8c <Freq_Calibration_Mode+0x2cc>)
 8001a56:	edd3 7a00 	vldr	s15, [r3]
 8001a5a:	ee77 7a27 	vadd.f32	s15, s14, s15
 8001a5e:	ee17 0a90 	vmov	r0, s15
 8001a62:	f7fe fd71 	bl	8000548 <__aeabi_f2d>
 8001a66:	4603      	mov	r3, r0
 8001a68:	460c      	mov	r4, r1
 8001a6a:	ec44 3b10 	vmov	d0, r3, r4
 8001a6e:	f007 fb4f 	bl	8009110 <round>
 8001a72:	ec53 2b10 	vmov	r2, r3, d0
 8001a76:	f04f 4480 	mov.w	r4, #1073741824	; 0x40000000
 8001a7a:	4610      	mov	r0, r2
 8001a7c:	4619      	mov	r1, r3
 8001a7e:	f7ff f893 	bl	8000ba8 <__aeabi_d2uiz>
 8001a82:	4603      	mov	r3, r0
 8001a84:	6363      	str	r3, [r4, #52]	; 0x34

	while(HAL_GPIO_ReadPin(GPIOC, GPIO_PIN_13) == 0)
 8001a86:	e0de      	b.n	8001c46 <Freq_Calibration_Mode+0x286>
	{
		//just for scope trigger output
		GPIOC->BSRR |= (1u << 4); // set pin 4
 8001a88:	4b81      	ldr	r3, [pc, #516]	; (8001c90 <Freq_Calibration_Mode+0x2d0>)
 8001a8a:	699b      	ldr	r3, [r3, #24]
 8001a8c:	4a80      	ldr	r2, [pc, #512]	; (8001c90 <Freq_Calibration_Mode+0x2d0>)
 8001a8e:	f043 0310 	orr.w	r3, r3, #16
 8001a92:	6193      	str	r3, [r2, #24]
		for(int i = 0; i < 25; i++); // about 3 us
 8001a94:	2300      	movs	r3, #0
 8001a96:	617b      	str	r3, [r7, #20]
 8001a98:	e002      	b.n	8001aa0 <Freq_Calibration_Mode+0xe0>
 8001a9a:	697b      	ldr	r3, [r7, #20]
 8001a9c:	3301      	adds	r3, #1
 8001a9e:	617b      	str	r3, [r7, #20]
 8001aa0:	697b      	ldr	r3, [r7, #20]
 8001aa2:	2b18      	cmp	r3, #24
 8001aa4:	ddf9      	ble.n	8001a9a <Freq_Calibration_Mode+0xda>
		GPIOC->BSRR |= (1u << 20); // reset pin 4
 8001aa6:	4b7a      	ldr	r3, [pc, #488]	; (8001c90 <Freq_Calibration_Mode+0x2d0>)
 8001aa8:	699b      	ldr	r3, [r3, #24]
 8001aaa:	4a79      	ldr	r2, [pc, #484]	; (8001c90 <Freq_Calibration_Mode+0x2d0>)
 8001aac:	f443 1380 	orr.w	r3, r3, #1048576	; 0x100000
 8001ab0:	6193      	str	r3, [r2, #24]

		Previous_Pin6_State = HAL_GPIO_ReadPin(GPIOC, GPIO_PIN_6);
 8001ab2:	2140      	movs	r1, #64	; 0x40
 8001ab4:	4876      	ldr	r0, [pc, #472]	; (8001c90 <Freq_Calibration_Mode+0x2d0>)
 8001ab6:	f002 f88d 	bl	8003bd4 <HAL_GPIO_ReadPin>
 8001aba:	4603      	mov	r3, r0
 8001abc:	2b00      	cmp	r3, #0
 8001abe:	bf14      	ite	ne
 8001ac0:	2301      	movne	r3, #1
 8001ac2:	2300      	moveq	r3, #0
 8001ac4:	72fb      	strb	r3, [r7, #11]
		Previous_Pin8_State = HAL_GPIO_ReadPin(GPIOC, GPIO_PIN_8);
 8001ac6:	f44f 7180 	mov.w	r1, #256	; 0x100
 8001aca:	4871      	ldr	r0, [pc, #452]	; (8001c90 <Freq_Calibration_Mode+0x2d0>)
 8001acc:	f002 f882 	bl	8003bd4 <HAL_GPIO_ReadPin>
 8001ad0:	4603      	mov	r3, r0
 8001ad2:	2b00      	cmp	r3, #0
 8001ad4:	bf14      	ite	ne
 8001ad6:	2301      	movne	r3, #1
 8001ad8:	2300      	moveq	r3, #0
 8001ada:	72bb      	strb	r3, [r7, #10]
		for(int i = 0; i < 100000; i++); // wait between consecutive pin reads (above) to avoid bouncing around threshold (about 14 ms)
 8001adc:	2300      	movs	r3, #0
 8001ade:	613b      	str	r3, [r7, #16]
 8001ae0:	e002      	b.n	8001ae8 <Freq_Calibration_Mode+0x128>
 8001ae2:	693b      	ldr	r3, [r7, #16]
 8001ae4:	3301      	adds	r3, #1
 8001ae6:	613b      	str	r3, [r7, #16]
 8001ae8:	693b      	ldr	r3, [r7, #16]
 8001aea:	4a6a      	ldr	r2, [pc, #424]	; (8001c94 <Freq_Calibration_Mode+0x2d4>)
 8001aec:	4293      	cmp	r3, r2
 8001aee:	ddf8      	ble.n	8001ae2 <Freq_Calibration_Mode+0x122>

		if(HAL_GPIO_ReadPin(GPIOC, GPIO_PIN_6) == 0 && Previous_Pin6_State == 1)
 8001af0:	2140      	movs	r1, #64	; 0x40
 8001af2:	4867      	ldr	r0, [pc, #412]	; (8001c90 <Freq_Calibration_Mode+0x2d0>)
 8001af4:	f002 f86e 	bl	8003bd4 <HAL_GPIO_ReadPin>
 8001af8:	4603      	mov	r3, r0
 8001afa:	2b00      	cmp	r3, #0
 8001afc:	d14d      	bne.n	8001b9a <Freq_Calibration_Mode+0x1da>
 8001afe:	7afb      	ldrb	r3, [r7, #11]
 8001b00:	2b00      	cmp	r3, #0
 8001b02:	d04a      	beq.n	8001b9a <Freq_Calibration_Mode+0x1da>
		{
			FrequencyCalibrationFactor += 0.0001;
 8001b04:	4b5f      	ldr	r3, [pc, #380]	; (8001c84 <Freq_Calibration_Mode+0x2c4>)
 8001b06:	681b      	ldr	r3, [r3, #0]
 8001b08:	4618      	mov	r0, r3
 8001b0a:	f7fe fd1d 	bl	8000548 <__aeabi_f2d>
 8001b0e:	a354      	add	r3, pc, #336	; (adr r3, 8001c60 <Freq_Calibration_Mode+0x2a0>)
 8001b10:	e9d3 2300 	ldrd	r2, r3, [r3]
 8001b14:	f7fe fbba 	bl	800028c <__adddf3>
 8001b18:	4603      	mov	r3, r0
 8001b1a:	460c      	mov	r4, r1
 8001b1c:	4618      	mov	r0, r3
 8001b1e:	4621      	mov	r1, r4
 8001b20:	f7ff f862 	bl	8000be8 <__aeabi_d2f>
 8001b24:	4602      	mov	r2, r0
 8001b26:	4b57      	ldr	r3, [pc, #348]	; (8001c84 <Freq_Calibration_Mode+0x2c4>)
 8001b28:	601a      	str	r2, [r3, #0]
			if(FrequencyCalibrationFactor > FREQUENCY_CF_UPPER_LIMIT) FrequencyCalibrationFactor = FREQUENCY_CF_UPPER_LIMIT;
 8001b2a:	4b56      	ldr	r3, [pc, #344]	; (8001c84 <Freq_Calibration_Mode+0x2c4>)
 8001b2c:	681b      	ldr	r3, [r3, #0]
 8001b2e:	4618      	mov	r0, r3
 8001b30:	f7fe fd0a 	bl	8000548 <__aeabi_f2d>
 8001b34:	a34c      	add	r3, pc, #304	; (adr r3, 8001c68 <Freq_Calibration_Mode+0x2a8>)
 8001b36:	e9d3 2300 	ldrd	r2, r3, [r3]
 8001b3a:	f7fe ffed 	bl	8000b18 <__aeabi_dcmpgt>
 8001b3e:	4603      	mov	r3, r0
 8001b40:	2b00      	cmp	r3, #0
 8001b42:	d002      	beq.n	8001b4a <Freq_Calibration_Mode+0x18a>
 8001b44:	4b4f      	ldr	r3, [pc, #316]	; (8001c84 <Freq_Calibration_Mode+0x2c4>)
 8001b46:	4a54      	ldr	r2, [pc, #336]	; (8001c98 <Freq_Calibration_Mode+0x2d8>)
 8001b48:	601a      	str	r2, [r3, #0]
			Previous_Pin6_State = 0;
 8001b4a:	2300      	movs	r3, #0
 8001b4c:	72fb      	strb	r3, [r7, #11]
			TIM2->CNT = 0;
 8001b4e:	f04f 4380 	mov.w	r3, #1073741824	; 0x40000000
 8001b52:	2200      	movs	r2, #0
 8001b54:	625a      	str	r2, [r3, #36]	; 0x24
			TIM2->ARR = round(CalibrationFrequency_ARR * FrequencyCalibrationFactor);
 8001b56:	687b      	ldr	r3, [r7, #4]
 8001b58:	ee07 3a90 	vmov	s15, r3
 8001b5c:	eeb8 7a67 	vcvt.f32.u32	s14, s15
 8001b60:	4b48      	ldr	r3, [pc, #288]	; (8001c84 <Freq_Calibration_Mode+0x2c4>)
 8001b62:	edd3 7a00 	vldr	s15, [r3]
 8001b66:	ee67 7a27 	vmul.f32	s15, s14, s15
 8001b6a:	ee17 0a90 	vmov	r0, s15
 8001b6e:	f7fe fceb 	bl	8000548 <__aeabi_f2d>
 8001b72:	4603      	mov	r3, r0
 8001b74:	460c      	mov	r4, r1
 8001b76:	ec44 3b10 	vmov	d0, r3, r4
 8001b7a:	f007 fac9 	bl	8009110 <round>
 8001b7e:	ec53 2b10 	vmov	r2, r3, d0
 8001b82:	f04f 4480 	mov.w	r4, #1073741824	; 0x40000000
 8001b86:	4610      	mov	r0, r2
 8001b88:	4619      	mov	r1, r3
 8001b8a:	f7ff f80d 	bl	8000ba8 <__aeabi_d2uiz>
 8001b8e:	4603      	mov	r3, r0
 8001b90:	62e3      	str	r3, [r4, #44]	; 0x2c
			UpdateFrequencyCalibrationDisplay();
 8001b92:	f7ff fe69 	bl	8001868 <UpdateFrequencyCalibrationDisplay>
			FrequencyCalibrationUpdated = true;
 8001b96:	2301      	movs	r3, #1
 8001b98:	77fb      	strb	r3, [r7, #31]
		}

		if(HAL_GPIO_ReadPin(GPIOC, GPIO_PIN_8) == 0 && Previous_Pin8_State == 1)
 8001b9a:	f44f 7180 	mov.w	r1, #256	; 0x100
 8001b9e:	483c      	ldr	r0, [pc, #240]	; (8001c90 <Freq_Calibration_Mode+0x2d0>)
 8001ba0:	f002 f818 	bl	8003bd4 <HAL_GPIO_ReadPin>
 8001ba4:	4603      	mov	r3, r0
 8001ba6:	2b00      	cmp	r3, #0
 8001ba8:	d14d      	bne.n	8001c46 <Freq_Calibration_Mode+0x286>
 8001baa:	7abb      	ldrb	r3, [r7, #10]
 8001bac:	2b00      	cmp	r3, #0
 8001bae:	d04a      	beq.n	8001c46 <Freq_Calibration_Mode+0x286>
		{
			FrequencyCalibrationFactor -= 0.0001;
 8001bb0:	4b34      	ldr	r3, [pc, #208]	; (8001c84 <Freq_Calibration_Mode+0x2c4>)
 8001bb2:	681b      	ldr	r3, [r3, #0]
 8001bb4:	4618      	mov	r0, r3
 8001bb6:	f7fe fcc7 	bl	8000548 <__aeabi_f2d>
 8001bba:	a329      	add	r3, pc, #164	; (adr r3, 8001c60 <Freq_Calibration_Mode+0x2a0>)
 8001bbc:	e9d3 2300 	ldrd	r2, r3, [r3]
 8001bc0:	f7fe fb62 	bl	8000288 <__aeabi_dsub>
 8001bc4:	4603      	mov	r3, r0
 8001bc6:	460c      	mov	r4, r1
 8001bc8:	4618      	mov	r0, r3
 8001bca:	4621      	mov	r1, r4
 8001bcc:	f7ff f80c 	bl	8000be8 <__aeabi_d2f>
 8001bd0:	4602      	mov	r2, r0
 8001bd2:	4b2c      	ldr	r3, [pc, #176]	; (8001c84 <Freq_Calibration_Mode+0x2c4>)
 8001bd4:	601a      	str	r2, [r3, #0]
			if(FrequencyCalibrationFactor < FREQUENCY_CF_LOWER_LIMIT) FrequencyCalibrationFactor = FREQUENCY_CF_LOWER_LIMIT;
 8001bd6:	4b2b      	ldr	r3, [pc, #172]	; (8001c84 <Freq_Calibration_Mode+0x2c4>)
 8001bd8:	681b      	ldr	r3, [r3, #0]
 8001bda:	4618      	mov	r0, r3
 8001bdc:	f7fe fcb4 	bl	8000548 <__aeabi_f2d>
 8001be0:	a323      	add	r3, pc, #140	; (adr r3, 8001c70 <Freq_Calibration_Mode+0x2b0>)
 8001be2:	e9d3 2300 	ldrd	r2, r3, [r3]
 8001be6:	f7fe ff79 	bl	8000adc <__aeabi_dcmplt>
 8001bea:	4603      	mov	r3, r0
 8001bec:	2b00      	cmp	r3, #0
 8001bee:	d002      	beq.n	8001bf6 <Freq_Calibration_Mode+0x236>
 8001bf0:	4b24      	ldr	r3, [pc, #144]	; (8001c84 <Freq_Calibration_Mode+0x2c4>)
 8001bf2:	4a2a      	ldr	r2, [pc, #168]	; (8001c9c <Freq_Calibration_Mode+0x2dc>)
 8001bf4:	601a      	str	r2, [r3, #0]
			Previous_Pin8_State = 0;
 8001bf6:	2300      	movs	r3, #0
 8001bf8:	72bb      	strb	r3, [r7, #10]
			TIM2->CNT = 0;
 8001bfa:	f04f 4380 	mov.w	r3, #1073741824	; 0x40000000
 8001bfe:	2200      	movs	r2, #0
 8001c00:	625a      	str	r2, [r3, #36]	; 0x24
			TIM2->ARR = round(CalibrationFrequency_ARR * FrequencyCalibrationFactor);
 8001c02:	687b      	ldr	r3, [r7, #4]
 8001c04:	ee07 3a90 	vmov	s15, r3
 8001c08:	eeb8 7a67 	vcvt.f32.u32	s14, s15
 8001c0c:	4b1d      	ldr	r3, [pc, #116]	; (8001c84 <Freq_Calibration_Mode+0x2c4>)
 8001c0e:	edd3 7a00 	vldr	s15, [r3]
 8001c12:	ee67 7a27 	vmul.f32	s15, s14, s15
 8001c16:	ee17 0a90 	vmov	r0, s15
 8001c1a:	f7fe fc95 	bl	8000548 <__aeabi_f2d>
 8001c1e:	4603      	mov	r3, r0
 8001c20:	460c      	mov	r4, r1
 8001c22:	ec44 3b10 	vmov	d0, r3, r4
 8001c26:	f007 fa73 	bl	8009110 <round>
 8001c2a:	ec53 2b10 	vmov	r2, r3, d0
 8001c2e:	f04f 4480 	mov.w	r4, #1073741824	; 0x40000000
 8001c32:	4610      	mov	r0, r2
 8001c34:	4619      	mov	r1, r3
 8001c36:	f7fe ffb7 	bl	8000ba8 <__aeabi_d2uiz>
 8001c3a:	4603      	mov	r3, r0
 8001c3c:	62e3      	str	r3, [r4, #44]	; 0x2c
			UpdateFrequencyCalibrationDisplay();
 8001c3e:	f7ff fe13 	bl	8001868 <UpdateFrequencyCalibrationDisplay>
			FrequencyCalibrationUpdated = true;
 8001c42:	2301      	movs	r3, #1
 8001c44:	77fb      	strb	r3, [r7, #31]
	while(HAL_GPIO_ReadPin(GPIOC, GPIO_PIN_13) == 0)
 8001c46:	f44f 5100 	mov.w	r1, #8192	; 0x2000
 8001c4a:	4811      	ldr	r0, [pc, #68]	; (8001c90 <Freq_Calibration_Mode+0x2d0>)
 8001c4c:	f001 ffc2 	bl	8003bd4 <HAL_GPIO_ReadPin>
 8001c50:	4603      	mov	r3, r0
 8001c52:	2b00      	cmp	r3, #0
 8001c54:	f43f af18 	beq.w	8001a88 <Freq_Calibration_Mode+0xc8>
		}
	}

	for(int i = 0; i < 1000000; i++); // about 140 ms
 8001c58:	2300      	movs	r3, #0
 8001c5a:	60fb      	str	r3, [r7, #12]
 8001c5c:	e023      	b.n	8001ca6 <Freq_Calibration_Mode+0x2e6>
 8001c5e:	bf00      	nop
 8001c60:	eb1c432d 	.word	0xeb1c432d
 8001c64:	3f1a36e2 	.word	0x3f1a36e2
 8001c68:	c28f5c29 	.word	0xc28f5c29
 8001c6c:	3ff028f5 	.word	0x3ff028f5
 8001c70:	7ae147ae 	.word	0x7ae147ae
 8001c74:	3fefae14 	.word	0x3fefae14
 8001c78:	000f423f 	.word	0x000f423f
 8001c7c:	20000988 	.word	0x20000988
 8001c80:	40000400 	.word	0x40000400
 8001c84:	20000924 	.word	0x20000924
 8001c88:	42a00000 	.word	0x42a00000
 8001c8c:	20000934 	.word	0x20000934
 8001c90:	48000800 	.word	0x48000800
 8001c94:	0001869f 	.word	0x0001869f
 8001c98:	3f8147ae 	.word	0x3f8147ae
 8001c9c:	3f7d70a4 	.word	0x3f7d70a4
 8001ca0:	68fb      	ldr	r3, [r7, #12]
 8001ca2:	3301      	adds	r3, #1
 8001ca4:	60fb      	str	r3, [r7, #12]
 8001ca6:	68fb      	ldr	r3, [r7, #12]
 8001ca8:	4a1f      	ldr	r2, [pc, #124]	; (8001d28 <Freq_Calibration_Mode+0x368>)
 8001caa:	4293      	cmp	r3, r2
 8001cac:	ddf8      	ble.n	8001ca0 <Freq_Calibration_Mode+0x2e0>
	FrequencyCalibrationModeFlag = false;
 8001cae:	4b1f      	ldr	r3, [pc, #124]	; (8001d2c <Freq_Calibration_Mode+0x36c>)
 8001cb0:	2200      	movs	r2, #0
 8001cb2:	701a      	strb	r2, [r3, #0]


	if(FrequencyCalibrationUpdated)
 8001cb4:	7ffb      	ldrb	r3, [r7, #31]
 8001cb6:	2b00      	cmp	r3, #0
 8001cb8:	d020      	beq.n	8001cfc <Freq_Calibration_Mode+0x33c>
	{
		UpdateCalibratedCasesArray();
 8001cba:	f000 f9e7 	bl	800208c <UpdateCalibratedCasesArray>
		SaveCalibrationFactorInFlash();
 8001cbe:	f7ff fd13 	bl	80016e8 <SaveCalibrationFactorInFlash>

		// Calibration saved message on Display
		ssd1306_Fill(Black);
 8001cc2:	2000      	movs	r0, #0
 8001cc4:	f005 f83a 	bl	8006d3c <ssd1306_Fill>
		ssd1306_SetCursor(0, 10);
 8001cc8:	210a      	movs	r1, #10
 8001cca:	2000      	movs	r0, #0
 8001ccc:	f005 f984 	bl	8006fd8 <ssd1306_SetCursor>
		ssd1306_WriteString("CALIBRATION:", Font_11x18, White);
 8001cd0:	4a17      	ldr	r2, [pc, #92]	; (8001d30 <Freq_Calibration_Mode+0x370>)
 8001cd2:	2301      	movs	r3, #1
 8001cd4:	ca06      	ldmia	r2, {r1, r2}
 8001cd6:	4817      	ldr	r0, [pc, #92]	; (8001d34 <Freq_Calibration_Mode+0x374>)
 8001cd8:	f005 f958 	bl	8006f8c <ssd1306_WriteString>
		ssd1306_SetCursor(0, 30);
 8001cdc:	211e      	movs	r1, #30
 8001cde:	2000      	movs	r0, #0
 8001ce0:	f005 f97a 	bl	8006fd8 <ssd1306_SetCursor>
		ssd1306_WriteString("   SAVED", Font_11x18, White);
 8001ce4:	4a12      	ldr	r2, [pc, #72]	; (8001d30 <Freq_Calibration_Mode+0x370>)
 8001ce6:	2301      	movs	r3, #1
 8001ce8:	ca06      	ldmia	r2, {r1, r2}
 8001cea:	4813      	ldr	r0, [pc, #76]	; (8001d38 <Freq_Calibration_Mode+0x378>)
 8001cec:	f005 f94e 	bl	8006f8c <ssd1306_WriteString>
		ssd1306_UpdateScreen();
 8001cf0:	f005 f846 	bl	8006d80 <ssd1306_UpdateScreen>
		HAL_Delay(2000);
 8001cf4:	f44f 60fa 	mov.w	r0, #2000	; 0x7d0
 8001cf8:	f001 f9d0 	bl	800309c <HAL_Delay>
	}

	OLED_Update_Display_Case(OLEDDisplayState);
 8001cfc:	4b0f      	ldr	r3, [pc, #60]	; (8001d3c <Freq_Calibration_Mode+0x37c>)
 8001cfe:	781b      	ldrb	r3, [r3, #0]
 8001d00:	4618      	mov	r0, r3
 8001d02:	f7ff f809 	bl	8000d18 <OLED_Update_Display_Case>
	__HAL_GPIO_EXTI_CLEAR_IT(GPIO_PIN_6);	// buttons used here are used somewhere else as EXTI so any flags has to be cleared
 8001d06:	4b0e      	ldr	r3, [pc, #56]	; (8001d40 <Freq_Calibration_Mode+0x380>)
 8001d08:	2240      	movs	r2, #64	; 0x40
 8001d0a:	615a      	str	r2, [r3, #20]
	__HAL_GPIO_EXTI_CLEAR_IT(GPIO_PIN_8);
 8001d0c:	4b0c      	ldr	r3, [pc, #48]	; (8001d40 <Freq_Calibration_Mode+0x380>)
 8001d0e:	f44f 7280 	mov.w	r2, #256	; 0x100
 8001d12:	615a      	str	r2, [r3, #20]
	HAL_NVIC_EnableIRQ(EXTI9_5_IRQn);
 8001d14:	2017      	movs	r0, #23
 8001d16:	f001 fafc 	bl	8003312 <HAL_NVIC_EnableIRQ>
	HAL_TIM_Base_Start_IT(&htim3); // start frequency switching
 8001d1a:	480a      	ldr	r0, [pc, #40]	; (8001d44 <Freq_Calibration_Mode+0x384>)
 8001d1c:	f003 fede 	bl	8005adc <HAL_TIM_Base_Start_IT>
}
 8001d20:	bf00      	nop
 8001d22:	3724      	adds	r7, #36	; 0x24
 8001d24:	46bd      	mov	sp, r7
 8001d26:	bd90      	pop	{r4, r7, pc}
 8001d28:	000f423f 	.word	0x000f423f
 8001d2c:	20000921 	.word	0x20000921
 8001d30:	200002e8 	.word	0x200002e8
 8001d34:	08009520 	.word	0x08009520
 8001d38:	08009530 	.word	0x08009530
 8001d3c:	20000000 	.word	0x20000000
 8001d40:	40010400 	.word	0x40010400
 8001d44:	20000988 	.word	0x20000988

08001d48 <Pulse_Adjustment_Mode>:


void Pulse_Adjustment_Mode(void)
{
 8001d48:	b590      	push	{r4, r7, lr}
 8001d4a:	b089      	sub	sp, #36	; 0x24
 8001d4c:	af00      	add	r7, sp, #0
	bool PW_OffsetUpdated = false;
 8001d4e:	2300      	movs	r3, #0
 8001d50:	77fb      	strb	r3, [r7, #31]
	bool Previous_Pin6_State = 1;
 8001d52:	2301      	movs	r3, #1
 8001d54:	72fb      	strb	r3, [r7, #11]
	bool Previous_Pin8_State = 1;
 8001d56:	2301      	movs	r3, #1
 8001d58:	72bb      	strb	r3, [r7, #10]
	uint32_t CalibrationPulseWidth_CCR1 = 16; // nominal pulse width = 0.2u
 8001d5a:	2310      	movs	r3, #16
 8001d5c:	607b      	str	r3, [r7, #4]

	for(int i = 0; i < 1000000; i++); // about 140 ms
 8001d5e:	2300      	movs	r3, #0
 8001d60:	61bb      	str	r3, [r7, #24]
 8001d62:	e002      	b.n	8001d6a <Pulse_Adjustment_Mode+0x22>
 8001d64:	69bb      	ldr	r3, [r7, #24]
 8001d66:	3301      	adds	r3, #1
 8001d68:	61bb      	str	r3, [r7, #24]
 8001d6a:	69bb      	ldr	r3, [r7, #24]
 8001d6c:	4ab6      	ldr	r2, [pc, #728]	; (8002048 <Pulse_Adjustment_Mode+0x300>)
 8001d6e:	4293      	cmp	r3, r2
 8001d70:	ddf8      	ble.n	8001d64 <Pulse_Adjustment_Mode+0x1c>
	HAL_NVIC_DisableIRQ(EXTI9_5_IRQn);	// disable switch function implemented in ISR to use this switch here for calibration
 8001d72:	2017      	movs	r0, #23
 8001d74:	f001 fadb 	bl	800332e <HAL_NVIC_DisableIRQ>
	UpdatePulseAdjustmentDisplay();
 8001d78:	f7ff fdc8 	bl	800190c <UpdatePulseAdjustmentDisplay>

	HAL_TIM_Base_Stop_IT(&htim3);	// stop frequency switching
 8001d7c:	48b3      	ldr	r0, [pc, #716]	; (800204c <Pulse_Adjustment_Mode+0x304>)
 8001d7e:	f003 ff1d 	bl	8005bbc <HAL_TIM_Base_Stop_IT>
	TIM3->CNT = 0;
 8001d82:	4bb3      	ldr	r3, [pc, #716]	; (8002050 <Pulse_Adjustment_Mode+0x308>)
 8001d84:	2200      	movs	r2, #0
 8001d86:	625a      	str	r2, [r3, #36]	; 0x24
	TIM2->CNT = 0;
 8001d88:	f04f 4380 	mov.w	r3, #1073741824	; 0x40000000
 8001d8c:	2200      	movs	r2, #0
 8001d8e:	625a      	str	r2, [r3, #36]	; 0x24
	TIM2->ARR = round(7999 * FrequencyCalibrationFactor);	// frequency = 10 kHz (arbitrary number for pulse calibration)
 8001d90:	4bb0      	ldr	r3, [pc, #704]	; (8002054 <Pulse_Adjustment_Mode+0x30c>)
 8001d92:	edd3 7a00 	vldr	s15, [r3]
 8001d96:	ed9f 7ab0 	vldr	s14, [pc, #704]	; 8002058 <Pulse_Adjustment_Mode+0x310>
 8001d9a:	ee67 7a87 	vmul.f32	s15, s15, s14
 8001d9e:	ee17 0a90 	vmov	r0, s15
 8001da2:	f7fe fbd1 	bl	8000548 <__aeabi_f2d>
 8001da6:	4603      	mov	r3, r0
 8001da8:	460c      	mov	r4, r1
 8001daa:	ec44 3b10 	vmov	d0, r3, r4
 8001dae:	f007 f9af 	bl	8009110 <round>
 8001db2:	ec53 2b10 	vmov	r2, r3, d0
 8001db6:	f04f 4480 	mov.w	r4, #1073741824	; 0x40000000
 8001dba:	4610      	mov	r0, r2
 8001dbc:	4619      	mov	r1, r3
 8001dbe:	f7fe fef3 	bl	8000ba8 <__aeabi_d2uiz>
 8001dc2:	4603      	mov	r3, r0
 8001dc4:	62e3      	str	r3, [r4, #44]	; 0x2c
	TIM2->CCR1 = round(CalibrationPulseWidth_CCR1 * FrequencyCalibrationFactor + PulseWidthOffset);  // set pulse width
 8001dc6:	687b      	ldr	r3, [r7, #4]
 8001dc8:	ee07 3a90 	vmov	s15, r3
 8001dcc:	eeb8 7a67 	vcvt.f32.u32	s14, s15
 8001dd0:	4ba0      	ldr	r3, [pc, #640]	; (8002054 <Pulse_Adjustment_Mode+0x30c>)
 8001dd2:	edd3 7a00 	vldr	s15, [r3]
 8001dd6:	ee27 7a27 	vmul.f32	s14, s14, s15
 8001dda:	4ba0      	ldr	r3, [pc, #640]	; (800205c <Pulse_Adjustment_Mode+0x314>)
 8001ddc:	edd3 7a00 	vldr	s15, [r3]
 8001de0:	ee77 7a27 	vadd.f32	s15, s14, s15
 8001de4:	ee17 0a90 	vmov	r0, s15
 8001de8:	f7fe fbae 	bl	8000548 <__aeabi_f2d>
 8001dec:	4603      	mov	r3, r0
 8001dee:	460c      	mov	r4, r1
 8001df0:	ec44 3b10 	vmov	d0, r3, r4
 8001df4:	f007 f98c 	bl	8009110 <round>
 8001df8:	ec53 2b10 	vmov	r2, r3, d0
 8001dfc:	f04f 4480 	mov.w	r4, #1073741824	; 0x40000000
 8001e00:	4610      	mov	r0, r2
 8001e02:	4619      	mov	r1, r3
 8001e04:	f7fe fed0 	bl	8000ba8 <__aeabi_d2uiz>
 8001e08:	4603      	mov	r3, r0
 8001e0a:	6363      	str	r3, [r4, #52]	; 0x34

	while(HAL_GPIO_ReadPin(GPIOA, GPIO_PIN_11) == 0)
 8001e0c:	e0cb      	b.n	8001fa6 <Pulse_Adjustment_Mode+0x25e>
	{
		//just for scope trigger output
		GPIOC->BSRR |= (1u << 4); // set pin 4
 8001e0e:	4b94      	ldr	r3, [pc, #592]	; (8002060 <Pulse_Adjustment_Mode+0x318>)
 8001e10:	699b      	ldr	r3, [r3, #24]
 8001e12:	4a93      	ldr	r2, [pc, #588]	; (8002060 <Pulse_Adjustment_Mode+0x318>)
 8001e14:	f043 0310 	orr.w	r3, r3, #16
 8001e18:	6193      	str	r3, [r2, #24]
		for(int i = 0; i < 25; i++); // about 3 us
 8001e1a:	2300      	movs	r3, #0
 8001e1c:	617b      	str	r3, [r7, #20]
 8001e1e:	e002      	b.n	8001e26 <Pulse_Adjustment_Mode+0xde>
 8001e20:	697b      	ldr	r3, [r7, #20]
 8001e22:	3301      	adds	r3, #1
 8001e24:	617b      	str	r3, [r7, #20]
 8001e26:	697b      	ldr	r3, [r7, #20]
 8001e28:	2b18      	cmp	r3, #24
 8001e2a:	ddf9      	ble.n	8001e20 <Pulse_Adjustment_Mode+0xd8>
		GPIOC->BSRR |= (1u << 20); // reset pin 4
 8001e2c:	4b8c      	ldr	r3, [pc, #560]	; (8002060 <Pulse_Adjustment_Mode+0x318>)
 8001e2e:	699b      	ldr	r3, [r3, #24]
 8001e30:	4a8b      	ldr	r2, [pc, #556]	; (8002060 <Pulse_Adjustment_Mode+0x318>)
 8001e32:	f443 1380 	orr.w	r3, r3, #1048576	; 0x100000
 8001e36:	6193      	str	r3, [r2, #24]

		Previous_Pin6_State = HAL_GPIO_ReadPin(GPIOC, GPIO_PIN_6);
 8001e38:	2140      	movs	r1, #64	; 0x40
 8001e3a:	4889      	ldr	r0, [pc, #548]	; (8002060 <Pulse_Adjustment_Mode+0x318>)
 8001e3c:	f001 feca 	bl	8003bd4 <HAL_GPIO_ReadPin>
 8001e40:	4603      	mov	r3, r0
 8001e42:	2b00      	cmp	r3, #0
 8001e44:	bf14      	ite	ne
 8001e46:	2301      	movne	r3, #1
 8001e48:	2300      	moveq	r3, #0
 8001e4a:	72fb      	strb	r3, [r7, #11]
		Previous_Pin8_State = HAL_GPIO_ReadPin(GPIOC, GPIO_PIN_8);
 8001e4c:	f44f 7180 	mov.w	r1, #256	; 0x100
 8001e50:	4883      	ldr	r0, [pc, #524]	; (8002060 <Pulse_Adjustment_Mode+0x318>)
 8001e52:	f001 febf 	bl	8003bd4 <HAL_GPIO_ReadPin>
 8001e56:	4603      	mov	r3, r0
 8001e58:	2b00      	cmp	r3, #0
 8001e5a:	bf14      	ite	ne
 8001e5c:	2301      	movne	r3, #1
 8001e5e:	2300      	moveq	r3, #0
 8001e60:	72bb      	strb	r3, [r7, #10]

		for(int i = 0; i < 100000; i++); // de-bouncing (about 14 ms)
 8001e62:	2300      	movs	r3, #0
 8001e64:	613b      	str	r3, [r7, #16]
 8001e66:	e002      	b.n	8001e6e <Pulse_Adjustment_Mode+0x126>
 8001e68:	693b      	ldr	r3, [r7, #16]
 8001e6a:	3301      	adds	r3, #1
 8001e6c:	613b      	str	r3, [r7, #16]
 8001e6e:	693b      	ldr	r3, [r7, #16]
 8001e70:	4a7c      	ldr	r2, [pc, #496]	; (8002064 <Pulse_Adjustment_Mode+0x31c>)
 8001e72:	4293      	cmp	r3, r2
 8001e74:	ddf8      	ble.n	8001e68 <Pulse_Adjustment_Mode+0x120>

        if(HAL_GPIO_ReadPin(GPIOC, GPIO_PIN_6) == 0 && Previous_Pin6_State == 1)
 8001e76:	2140      	movs	r1, #64	; 0x40
 8001e78:	4879      	ldr	r0, [pc, #484]	; (8002060 <Pulse_Adjustment_Mode+0x318>)
 8001e7a:	f001 feab 	bl	8003bd4 <HAL_GPIO_ReadPin>
 8001e7e:	4603      	mov	r3, r0
 8001e80:	2b00      	cmp	r3, #0
 8001e82:	d146      	bne.n	8001f12 <Pulse_Adjustment_Mode+0x1ca>
 8001e84:	7afb      	ldrb	r3, [r7, #11]
 8001e86:	2b00      	cmp	r3, #0
 8001e88:	d043      	beq.n	8001f12 <Pulse_Adjustment_Mode+0x1ca>
		{
			PulseWidthOffset += 1;
 8001e8a:	4b74      	ldr	r3, [pc, #464]	; (800205c <Pulse_Adjustment_Mode+0x314>)
 8001e8c:	edd3 7a00 	vldr	s15, [r3]
 8001e90:	eeb7 7a00 	vmov.f32	s14, #112	; 0x3f800000  1.0
 8001e94:	ee77 7a87 	vadd.f32	s15, s15, s14
 8001e98:	4b70      	ldr	r3, [pc, #448]	; (800205c <Pulse_Adjustment_Mode+0x314>)
 8001e9a:	edc3 7a00 	vstr	s15, [r3]
			if(PulseWidthOffset > PW_OFFSET_UPPER_LIMIT) PulseWidthOffset = PW_OFFSET_UPPER_LIMIT;
 8001e9e:	4b6f      	ldr	r3, [pc, #444]	; (800205c <Pulse_Adjustment_Mode+0x314>)
 8001ea0:	edd3 7a00 	vldr	s15, [r3]
 8001ea4:	ed9f 7a70 	vldr	s14, [pc, #448]	; 8002068 <Pulse_Adjustment_Mode+0x320>
 8001ea8:	eef4 7ac7 	vcmpe.f32	s15, s14
 8001eac:	eef1 fa10 	vmrs	APSR_nzcv, fpscr
 8001eb0:	dd02      	ble.n	8001eb8 <Pulse_Adjustment_Mode+0x170>
 8001eb2:	4b6a      	ldr	r3, [pc, #424]	; (800205c <Pulse_Adjustment_Mode+0x314>)
 8001eb4:	4a6d      	ldr	r2, [pc, #436]	; (800206c <Pulse_Adjustment_Mode+0x324>)
 8001eb6:	601a      	str	r2, [r3, #0]
			Previous_Pin6_State = 0;
 8001eb8:	2300      	movs	r3, #0
 8001eba:	72fb      	strb	r3, [r7, #11]
			TIM2->CNT = 0;
 8001ebc:	f04f 4380 	mov.w	r3, #1073741824	; 0x40000000
 8001ec0:	2200      	movs	r2, #0
 8001ec2:	625a      	str	r2, [r3, #36]	; 0x24
			TIM2->CCR1 = round(CalibrationPulseWidth_CCR1 * FrequencyCalibrationFactor + PulseWidthOffset);
 8001ec4:	687b      	ldr	r3, [r7, #4]
 8001ec6:	ee07 3a90 	vmov	s15, r3
 8001eca:	eeb8 7a67 	vcvt.f32.u32	s14, s15
 8001ece:	4b61      	ldr	r3, [pc, #388]	; (8002054 <Pulse_Adjustment_Mode+0x30c>)
 8001ed0:	edd3 7a00 	vldr	s15, [r3]
 8001ed4:	ee27 7a27 	vmul.f32	s14, s14, s15
 8001ed8:	4b60      	ldr	r3, [pc, #384]	; (800205c <Pulse_Adjustment_Mode+0x314>)
 8001eda:	edd3 7a00 	vldr	s15, [r3]
 8001ede:	ee77 7a27 	vadd.f32	s15, s14, s15
 8001ee2:	ee17 0a90 	vmov	r0, s15
 8001ee6:	f7fe fb2f 	bl	8000548 <__aeabi_f2d>
 8001eea:	4603      	mov	r3, r0
 8001eec:	460c      	mov	r4, r1
 8001eee:	ec44 3b10 	vmov	d0, r3, r4
 8001ef2:	f007 f90d 	bl	8009110 <round>
 8001ef6:	ec53 2b10 	vmov	r2, r3, d0
 8001efa:	f04f 4480 	mov.w	r4, #1073741824	; 0x40000000
 8001efe:	4610      	mov	r0, r2
 8001f00:	4619      	mov	r1, r3
 8001f02:	f7fe fe51 	bl	8000ba8 <__aeabi_d2uiz>
 8001f06:	4603      	mov	r3, r0
 8001f08:	6363      	str	r3, [r4, #52]	; 0x34
			UpdatePulseAdjustmentDisplay();
 8001f0a:	f7ff fcff 	bl	800190c <UpdatePulseAdjustmentDisplay>
			PW_OffsetUpdated = true;
 8001f0e:	2301      	movs	r3, #1
 8001f10:	77fb      	strb	r3, [r7, #31]
		}

		if(HAL_GPIO_ReadPin(GPIOC, GPIO_PIN_8) == 0 && Previous_Pin8_State == 1)
 8001f12:	f44f 7180 	mov.w	r1, #256	; 0x100
 8001f16:	4852      	ldr	r0, [pc, #328]	; (8002060 <Pulse_Adjustment_Mode+0x318>)
 8001f18:	f001 fe5c 	bl	8003bd4 <HAL_GPIO_ReadPin>
 8001f1c:	4603      	mov	r3, r0
 8001f1e:	2b00      	cmp	r3, #0
 8001f20:	d141      	bne.n	8001fa6 <Pulse_Adjustment_Mode+0x25e>
 8001f22:	7abb      	ldrb	r3, [r7, #10]
 8001f24:	2b00      	cmp	r3, #0
 8001f26:	d03e      	beq.n	8001fa6 <Pulse_Adjustment_Mode+0x25e>
		{
			PulseWidthOffset -= 1;
 8001f28:	4b4c      	ldr	r3, [pc, #304]	; (800205c <Pulse_Adjustment_Mode+0x314>)
 8001f2a:	edd3 7a00 	vldr	s15, [r3]
 8001f2e:	eeb7 7a00 	vmov.f32	s14, #112	; 0x3f800000  1.0
 8001f32:	ee77 7ac7 	vsub.f32	s15, s15, s14
 8001f36:	4b49      	ldr	r3, [pc, #292]	; (800205c <Pulse_Adjustment_Mode+0x314>)
 8001f38:	edc3 7a00 	vstr	s15, [r3]
			if(PulseWidthOffset < PW_OFFSET_LOWER_LIMIT) PulseWidthOffset = PW_OFFSET_LOWER_LIMIT; // limit offset
 8001f3c:	4b47      	ldr	r3, [pc, #284]	; (800205c <Pulse_Adjustment_Mode+0x314>)
 8001f3e:	edd3 7a00 	vldr	s15, [r3]
 8001f42:	eeba 7a04 	vmov.f32	s14, #164	; 0xc1200000 -10.0
 8001f46:	eef4 7ac7 	vcmpe.f32	s15, s14
 8001f4a:	eef1 fa10 	vmrs	APSR_nzcv, fpscr
 8001f4e:	d502      	bpl.n	8001f56 <Pulse_Adjustment_Mode+0x20e>
 8001f50:	4b42      	ldr	r3, [pc, #264]	; (800205c <Pulse_Adjustment_Mode+0x314>)
 8001f52:	4a47      	ldr	r2, [pc, #284]	; (8002070 <Pulse_Adjustment_Mode+0x328>)
 8001f54:	601a      	str	r2, [r3, #0]
			Previous_Pin8_State = 0;
 8001f56:	2300      	movs	r3, #0
 8001f58:	72bb      	strb	r3, [r7, #10]
			TIM2->CNT = 0;
 8001f5a:	f04f 4380 	mov.w	r3, #1073741824	; 0x40000000
 8001f5e:	2200      	movs	r2, #0
 8001f60:	625a      	str	r2, [r3, #36]	; 0x24
			TIM2->CCR1 = round(CalibrationPulseWidth_CCR1 - PulseWidthOffset);
 8001f62:	687b      	ldr	r3, [r7, #4]
 8001f64:	ee07 3a90 	vmov	s15, r3
 8001f68:	eeb8 7a67 	vcvt.f32.u32	s14, s15
 8001f6c:	4b3b      	ldr	r3, [pc, #236]	; (800205c <Pulse_Adjustment_Mode+0x314>)
 8001f6e:	edd3 7a00 	vldr	s15, [r3]
 8001f72:	ee77 7a67 	vsub.f32	s15, s14, s15
 8001f76:	ee17 0a90 	vmov	r0, s15
 8001f7a:	f7fe fae5 	bl	8000548 <__aeabi_f2d>
 8001f7e:	4603      	mov	r3, r0
 8001f80:	460c      	mov	r4, r1
 8001f82:	ec44 3b10 	vmov	d0, r3, r4
 8001f86:	f007 f8c3 	bl	8009110 <round>
 8001f8a:	ec53 2b10 	vmov	r2, r3, d0
 8001f8e:	f04f 4480 	mov.w	r4, #1073741824	; 0x40000000
 8001f92:	4610      	mov	r0, r2
 8001f94:	4619      	mov	r1, r3
 8001f96:	f7fe fe07 	bl	8000ba8 <__aeabi_d2uiz>
 8001f9a:	4603      	mov	r3, r0
 8001f9c:	6363      	str	r3, [r4, #52]	; 0x34
			UpdatePulseAdjustmentDisplay();
 8001f9e:	f7ff fcb5 	bl	800190c <UpdatePulseAdjustmentDisplay>
			PW_OffsetUpdated = true;
 8001fa2:	2301      	movs	r3, #1
 8001fa4:	77fb      	strb	r3, [r7, #31]
	while(HAL_GPIO_ReadPin(GPIOA, GPIO_PIN_11) == 0)
 8001fa6:	f44f 6100 	mov.w	r1, #2048	; 0x800
 8001faa:	f04f 4090 	mov.w	r0, #1207959552	; 0x48000000
 8001fae:	f001 fe11 	bl	8003bd4 <HAL_GPIO_ReadPin>
 8001fb2:	4603      	mov	r3, r0
 8001fb4:	2b00      	cmp	r3, #0
 8001fb6:	f43f af2a 	beq.w	8001e0e <Pulse_Adjustment_Mode+0xc6>
		}
	}

	for(int i = 0; i < 1000000; i++); // about 140 ms
 8001fba:	2300      	movs	r3, #0
 8001fbc:	60fb      	str	r3, [r7, #12]
 8001fbe:	e002      	b.n	8001fc6 <Pulse_Adjustment_Mode+0x27e>
 8001fc0:	68fb      	ldr	r3, [r7, #12]
 8001fc2:	3301      	adds	r3, #1
 8001fc4:	60fb      	str	r3, [r7, #12]
 8001fc6:	68fb      	ldr	r3, [r7, #12]
 8001fc8:	4a1f      	ldr	r2, [pc, #124]	; (8002048 <Pulse_Adjustment_Mode+0x300>)
 8001fca:	4293      	cmp	r3, r2
 8001fcc:	ddf8      	ble.n	8001fc0 <Pulse_Adjustment_Mode+0x278>
	PulseOffsetAdjustmentModeFlag = false;
 8001fce:	4b29      	ldr	r3, [pc, #164]	; (8002074 <Pulse_Adjustment_Mode+0x32c>)
 8001fd0:	2200      	movs	r2, #0
 8001fd2:	701a      	strb	r2, [r3, #0]


	if(PW_OffsetUpdated)
 8001fd4:	7ffb      	ldrb	r3, [r7, #31]
 8001fd6:	2b00      	cmp	r3, #0
 8001fd8:	d020      	beq.n	800201c <Pulse_Adjustment_Mode+0x2d4>
	{
		UpdateCalibratedCasesArray();
 8001fda:	f000 f857 	bl	800208c <UpdateCalibratedCasesArray>
		SaveCalibrationFactorInFlash();
 8001fde:	f7ff fb83 	bl	80016e8 <SaveCalibrationFactorInFlash>

		// Calibration saved message on Display
		ssd1306_Fill(Black);
 8001fe2:	2000      	movs	r0, #0
 8001fe4:	f004 feaa 	bl	8006d3c <ssd1306_Fill>
		ssd1306_SetCursor(0, 10);
 8001fe8:	210a      	movs	r1, #10
 8001fea:	2000      	movs	r0, #0
 8001fec:	f004 fff4 	bl	8006fd8 <ssd1306_SetCursor>
		ssd1306_WriteString(" PW OFFSET", Font_11x18, White);
 8001ff0:	4a21      	ldr	r2, [pc, #132]	; (8002078 <Pulse_Adjustment_Mode+0x330>)
 8001ff2:	2301      	movs	r3, #1
 8001ff4:	ca06      	ldmia	r2, {r1, r2}
 8001ff6:	4821      	ldr	r0, [pc, #132]	; (800207c <Pulse_Adjustment_Mode+0x334>)
 8001ff8:	f004 ffc8 	bl	8006f8c <ssd1306_WriteString>
		ssd1306_SetCursor(0, 30);
 8001ffc:	211e      	movs	r1, #30
 8001ffe:	2000      	movs	r0, #0
 8002000:	f004 ffea 	bl	8006fd8 <ssd1306_SetCursor>
		ssd1306_WriteString("   SAVED", Font_11x18, White);
 8002004:	4a1c      	ldr	r2, [pc, #112]	; (8002078 <Pulse_Adjustment_Mode+0x330>)
 8002006:	2301      	movs	r3, #1
 8002008:	ca06      	ldmia	r2, {r1, r2}
 800200a:	481d      	ldr	r0, [pc, #116]	; (8002080 <Pulse_Adjustment_Mode+0x338>)
 800200c:	f004 ffbe 	bl	8006f8c <ssd1306_WriteString>
		ssd1306_UpdateScreen();
 8002010:	f004 feb6 	bl	8006d80 <ssd1306_UpdateScreen>
		HAL_Delay(2000);
 8002014:	f44f 60fa 	mov.w	r0, #2000	; 0x7d0
 8002018:	f001 f840 	bl	800309c <HAL_Delay>
	}

	OLED_Update_Display_Case(OLEDDisplayState);
 800201c:	4b19      	ldr	r3, [pc, #100]	; (8002084 <Pulse_Adjustment_Mode+0x33c>)
 800201e:	781b      	ldrb	r3, [r3, #0]
 8002020:	4618      	mov	r0, r3
 8002022:	f7fe fe79 	bl	8000d18 <OLED_Update_Display_Case>
	__HAL_GPIO_EXTI_CLEAR_IT(GPIO_PIN_6);	// buttons used here are used somewhere else as EXTI so it has to be cleared
 8002026:	4b18      	ldr	r3, [pc, #96]	; (8002088 <Pulse_Adjustment_Mode+0x340>)
 8002028:	2240      	movs	r2, #64	; 0x40
 800202a:	615a      	str	r2, [r3, #20]
	__HAL_GPIO_EXTI_CLEAR_IT(GPIO_PIN_8);
 800202c:	4b16      	ldr	r3, [pc, #88]	; (8002088 <Pulse_Adjustment_Mode+0x340>)
 800202e:	f44f 7280 	mov.w	r2, #256	; 0x100
 8002032:	615a      	str	r2, [r3, #20]
	HAL_NVIC_EnableIRQ(EXTI9_5_IRQn);
 8002034:	2017      	movs	r0, #23
 8002036:	f001 f96c 	bl	8003312 <HAL_NVIC_EnableIRQ>
	HAL_TIM_Base_Start_IT(&htim3); // start frequency switching
 800203a:	4804      	ldr	r0, [pc, #16]	; (800204c <Pulse_Adjustment_Mode+0x304>)
 800203c:	f003 fd4e 	bl	8005adc <HAL_TIM_Base_Start_IT>
}
 8002040:	bf00      	nop
 8002042:	3724      	adds	r7, #36	; 0x24
 8002044:	46bd      	mov	sp, r7
 8002046:	bd90      	pop	{r4, r7, pc}
 8002048:	000f423f 	.word	0x000f423f
 800204c:	20000988 	.word	0x20000988
 8002050:	40000400 	.word	0x40000400
 8002054:	20000924 	.word	0x20000924
 8002058:	45f9f800 	.word	0x45f9f800
 800205c:	20000934 	.word	0x20000934
 8002060:	48000800 	.word	0x48000800
 8002064:	0001869f 	.word	0x0001869f
 8002068:	42480000 	.word	0x42480000
 800206c:	42480000 	.word	0x42480000
 8002070:	c1200000 	.word	0xc1200000
 8002074:	20000920 	.word	0x20000920
 8002078:	200002e8 	.word	0x200002e8
 800207c:	0800953c 	.word	0x0800953c
 8002080:	08009530 	.word	0x08009530
 8002084:	20000000 	.word	0x20000000
 8002088:	40010400 	.word	0x40010400

0800208c <UpdateCalibratedCasesArray>:
												 [Leonardo_Duty_15P].Pulse1 = 800, [Leonardo_Duty_15P].Pulse2 = 800,		// 10 us
												 [Leonardo_Pattern_Q].Pulse1 = 1600, [Leonardo_Pattern_Q].Pulse2 = 800,		// 20 us / 10 us (Pattern Q)
											};

void UpdateCalibratedCasesArray(void)
{
 800208c:	b590      	push	{r4, r7, lr}
 800208e:	b083      	sub	sp, #12
 8002090:	af00      	add	r7, sp, #0
	for(int i = 0;i < (  (sizeof(UncalibratedCasesLeonardo)) / sizeof(UncalibratedCasesLeonardo[0])  ); i++)
 8002092:	2300      	movs	r3, #0
 8002094:	607b      	str	r3, [r7, #4]
 8002096:	e0a2      	b.n	80021de <UpdateCalibratedCasesArray+0x152>
	{
		CalibratedCasesLeonardo[i].Freq1 = round(UncalibratedCasesLeonardo[i].Freq1 * FrequencyCalibrationFactor);
 8002098:	4a55      	ldr	r2, [pc, #340]	; (80021f0 <UpdateCalibratedCasesArray+0x164>)
 800209a:	687b      	ldr	r3, [r7, #4]
 800209c:	011b      	lsls	r3, r3, #4
 800209e:	4413      	add	r3, r2
 80020a0:	681b      	ldr	r3, [r3, #0]
 80020a2:	ee07 3a90 	vmov	s15, r3
 80020a6:	eeb8 7a67 	vcvt.f32.u32	s14, s15
 80020aa:	4b52      	ldr	r3, [pc, #328]	; (80021f4 <UpdateCalibratedCasesArray+0x168>)
 80020ac:	edd3 7a00 	vldr	s15, [r3]
 80020b0:	ee67 7a27 	vmul.f32	s15, s14, s15
 80020b4:	ee17 0a90 	vmov	r0, s15
 80020b8:	f7fe fa46 	bl	8000548 <__aeabi_f2d>
 80020bc:	4603      	mov	r3, r0
 80020be:	460c      	mov	r4, r1
 80020c0:	ec44 3b10 	vmov	d0, r3, r4
 80020c4:	f007 f824 	bl	8009110 <round>
 80020c8:	ec54 3b10 	vmov	r3, r4, d0
 80020cc:	4618      	mov	r0, r3
 80020ce:	4621      	mov	r1, r4
 80020d0:	f7fe fd6a 	bl	8000ba8 <__aeabi_d2uiz>
 80020d4:	4601      	mov	r1, r0
 80020d6:	4a48      	ldr	r2, [pc, #288]	; (80021f8 <UpdateCalibratedCasesArray+0x16c>)
 80020d8:	687b      	ldr	r3, [r7, #4]
 80020da:	011b      	lsls	r3, r3, #4
 80020dc:	4413      	add	r3, r2
 80020de:	6019      	str	r1, [r3, #0]
		CalibratedCasesLeonardo[i].Freq2 = round(UncalibratedCasesLeonardo[i].Freq2 * FrequencyCalibrationFactor);
 80020e0:	4a43      	ldr	r2, [pc, #268]	; (80021f0 <UpdateCalibratedCasesArray+0x164>)
 80020e2:	687b      	ldr	r3, [r7, #4]
 80020e4:	011b      	lsls	r3, r3, #4
 80020e6:	4413      	add	r3, r2
 80020e8:	3304      	adds	r3, #4
 80020ea:	681b      	ldr	r3, [r3, #0]
 80020ec:	ee07 3a90 	vmov	s15, r3
 80020f0:	eeb8 7a67 	vcvt.f32.u32	s14, s15
 80020f4:	4b3f      	ldr	r3, [pc, #252]	; (80021f4 <UpdateCalibratedCasesArray+0x168>)
 80020f6:	edd3 7a00 	vldr	s15, [r3]
 80020fa:	ee67 7a27 	vmul.f32	s15, s14, s15
 80020fe:	ee17 0a90 	vmov	r0, s15
 8002102:	f7fe fa21 	bl	8000548 <__aeabi_f2d>
 8002106:	4603      	mov	r3, r0
 8002108:	460c      	mov	r4, r1
 800210a:	ec44 3b10 	vmov	d0, r3, r4
 800210e:	f006 ffff 	bl	8009110 <round>
 8002112:	ec54 3b10 	vmov	r3, r4, d0
 8002116:	4618      	mov	r0, r3
 8002118:	4621      	mov	r1, r4
 800211a:	f7fe fd45 	bl	8000ba8 <__aeabi_d2uiz>
 800211e:	4601      	mov	r1, r0
 8002120:	4a35      	ldr	r2, [pc, #212]	; (80021f8 <UpdateCalibratedCasesArray+0x16c>)
 8002122:	687b      	ldr	r3, [r7, #4]
 8002124:	011b      	lsls	r3, r3, #4
 8002126:	4413      	add	r3, r2
 8002128:	3304      	adds	r3, #4
 800212a:	6019      	str	r1, [r3, #0]
		CalibratedCasesLeonardo[i].Pulse1 = round(UncalibratedCasesLeonardo[i].Pulse1 * FrequencyCalibrationFactor + PulseWidthOffset);
 800212c:	4a30      	ldr	r2, [pc, #192]	; (80021f0 <UpdateCalibratedCasesArray+0x164>)
 800212e:	687b      	ldr	r3, [r7, #4]
 8002130:	011b      	lsls	r3, r3, #4
 8002132:	4413      	add	r3, r2
 8002134:	3308      	adds	r3, #8
 8002136:	681b      	ldr	r3, [r3, #0]
 8002138:	ee07 3a90 	vmov	s15, r3
 800213c:	eeb8 7a67 	vcvt.f32.u32	s14, s15
 8002140:	4b2c      	ldr	r3, [pc, #176]	; (80021f4 <UpdateCalibratedCasesArray+0x168>)
 8002142:	edd3 7a00 	vldr	s15, [r3]
 8002146:	ee27 7a27 	vmul.f32	s14, s14, s15
 800214a:	4b2c      	ldr	r3, [pc, #176]	; (80021fc <UpdateCalibratedCasesArray+0x170>)
 800214c:	edd3 7a00 	vldr	s15, [r3]
 8002150:	ee77 7a27 	vadd.f32	s15, s14, s15
 8002154:	ee17 0a90 	vmov	r0, s15
 8002158:	f7fe f9f6 	bl	8000548 <__aeabi_f2d>
 800215c:	4603      	mov	r3, r0
 800215e:	460c      	mov	r4, r1
 8002160:	ec44 3b10 	vmov	d0, r3, r4
 8002164:	f006 ffd4 	bl	8009110 <round>
 8002168:	ec54 3b10 	vmov	r3, r4, d0
 800216c:	4618      	mov	r0, r3
 800216e:	4621      	mov	r1, r4
 8002170:	f7fe fd1a 	bl	8000ba8 <__aeabi_d2uiz>
 8002174:	4601      	mov	r1, r0
 8002176:	4a20      	ldr	r2, [pc, #128]	; (80021f8 <UpdateCalibratedCasesArray+0x16c>)
 8002178:	687b      	ldr	r3, [r7, #4]
 800217a:	011b      	lsls	r3, r3, #4
 800217c:	4413      	add	r3, r2
 800217e:	3308      	adds	r3, #8
 8002180:	6019      	str	r1, [r3, #0]
		CalibratedCasesLeonardo[i].Pulse2 = round(UncalibratedCasesLeonardo[i].Pulse2 * FrequencyCalibrationFactor + PulseWidthOffset);
 8002182:	4a1b      	ldr	r2, [pc, #108]	; (80021f0 <UpdateCalibratedCasesArray+0x164>)
 8002184:	687b      	ldr	r3, [r7, #4]
 8002186:	011b      	lsls	r3, r3, #4
 8002188:	4413      	add	r3, r2
 800218a:	330c      	adds	r3, #12
 800218c:	681b      	ldr	r3, [r3, #0]
 800218e:	ee07 3a90 	vmov	s15, r3
 8002192:	eeb8 7a67 	vcvt.f32.u32	s14, s15
 8002196:	4b17      	ldr	r3, [pc, #92]	; (80021f4 <UpdateCalibratedCasesArray+0x168>)
 8002198:	edd3 7a00 	vldr	s15, [r3]
 800219c:	ee27 7a27 	vmul.f32	s14, s14, s15
 80021a0:	4b16      	ldr	r3, [pc, #88]	; (80021fc <UpdateCalibratedCasesArray+0x170>)
 80021a2:	edd3 7a00 	vldr	s15, [r3]
 80021a6:	ee77 7a27 	vadd.f32	s15, s14, s15
 80021aa:	ee17 0a90 	vmov	r0, s15
 80021ae:	f7fe f9cb 	bl	8000548 <__aeabi_f2d>
 80021b2:	4603      	mov	r3, r0
 80021b4:	460c      	mov	r4, r1
 80021b6:	ec44 3b10 	vmov	d0, r3, r4
 80021ba:	f006 ffa9 	bl	8009110 <round>
 80021be:	ec54 3b10 	vmov	r3, r4, d0
 80021c2:	4618      	mov	r0, r3
 80021c4:	4621      	mov	r1, r4
 80021c6:	f7fe fcef 	bl	8000ba8 <__aeabi_d2uiz>
 80021ca:	4601      	mov	r1, r0
 80021cc:	4a0a      	ldr	r2, [pc, #40]	; (80021f8 <UpdateCalibratedCasesArray+0x16c>)
 80021ce:	687b      	ldr	r3, [r7, #4]
 80021d0:	011b      	lsls	r3, r3, #4
 80021d2:	4413      	add	r3, r2
 80021d4:	330c      	adds	r3, #12
 80021d6:	6019      	str	r1, [r3, #0]
	for(int i = 0;i < (  (sizeof(UncalibratedCasesLeonardo)) / sizeof(UncalibratedCasesLeonardo[0])  ); i++)
 80021d8:	687b      	ldr	r3, [r7, #4]
 80021da:	3301      	adds	r3, #1
 80021dc:	607b      	str	r3, [r7, #4]
 80021de:	687b      	ldr	r3, [r7, #4]
 80021e0:	2b14      	cmp	r3, #20
 80021e2:	f67f af59 	bls.w	8002098 <UpdateCalibratedCasesArray+0xc>
	}
}
 80021e6:	bf00      	nop
 80021e8:	370c      	adds	r7, #12
 80021ea:	46bd      	mov	sp, r7
 80021ec:	bd90      	pop	{r4, r7, pc}
 80021ee:	bf00      	nop
 80021f0:	20000014 	.word	0x20000014
 80021f4:	20000924 	.word	0x20000924
 80021f8:	20000164 	.word	0x20000164
 80021fc:	20000934 	.word	0x20000934

08002200 <InitPatternGenerator>:
*/



void InitPatternGenerator(void)
{
 8002200:	b580      	push	{r7, lr}
 8002202:	af00      	add	r7, sp, #0
	UpdateCalibratedCasesArray();
 8002204:	f7ff ff42 	bl	800208c <UpdateCalibratedCasesArray>

	//Initialise to Case1 and Freq1
	OLEDDisplayState = Leonardo_TC1;
 8002208:	4b05      	ldr	r3, [pc, #20]	; (8002220 <InitPatternGenerator+0x20>)
 800220a:	2200      	movs	r2, #0
 800220c:	701a      	strb	r2, [r3, #0]
	CurrentCase = Leonardo_TC1;
 800220e:	4b05      	ldr	r3, [pc, #20]	; (8002224 <InitPatternGenerator+0x24>)
 8002210:	2200      	movs	r2, #0
 8002212:	601a      	str	r2, [r3, #0]
	CurrentFrequency = 1;
 8002214:	4b04      	ldr	r3, [pc, #16]	; (8002228 <InitPatternGenerator+0x28>)
 8002216:	2201      	movs	r2, #1
 8002218:	601a      	str	r2, [r3, #0]
}
 800221a:	bf00      	nop
 800221c:	bd80      	pop	{r7, pc}
 800221e:	bf00      	nop
 8002220:	20000000 	.word	0x20000000
 8002224:	20000928 	.word	0x20000928
 8002228:	20000930 	.word	0x20000930

0800222c <TIM3_IRQHandler>:

// interrupt handler without HAL to fix pin toggle jitter
void TIM3_IRQHandler(void)
{
 800222c:	b580      	push	{r7, lr}
 800222e:	b082      	sub	sp, #8
 8002230:	af00      	add	r7, sp, #0
//	char PC_GUI_message[200] = {0};		// debug only
//	extern UART_HandleTypeDef huart2; 	// debug only

	// cases with varying frequency (interval = 15 pulses)
	if(CurrentCase >= Leonardo_Case1 && CurrentCase <= Leonardo_Case7)
 8002232:	4b77      	ldr	r3, [pc, #476]	; (8002410 <TIM3_IRQHandler+0x1e4>)
 8002234:	681b      	ldr	r3, [r3, #0]
 8002236:	2b01      	cmp	r3, #1
 8002238:	dd3b      	ble.n	80022b2 <TIM3_IRQHandler+0x86>
 800223a:	4b75      	ldr	r3, [pc, #468]	; (8002410 <TIM3_IRQHandler+0x1e4>)
 800223c:	681b      	ldr	r3, [r3, #0]
 800223e:	2b08      	cmp	r3, #8
 8002240:	dc37      	bgt.n	80022b2 <TIM3_IRQHandler+0x86>
	{
		ScopeTriggerFromISR();
 8002242:	f000 f8ef 	bl	8002424 <ScopeTriggerFromISR>

		if(TIM2->ARR == CalibratedCasesLeonardo[CurrentCase].Freq1)
 8002246:	f04f 4380 	mov.w	r3, #1073741824	; 0x40000000
 800224a:	6ada      	ldr	r2, [r3, #44]	; 0x2c
 800224c:	4b70      	ldr	r3, [pc, #448]	; (8002410 <TIM3_IRQHandler+0x1e4>)
 800224e:	681b      	ldr	r3, [r3, #0]
 8002250:	4970      	ldr	r1, [pc, #448]	; (8002414 <TIM3_IRQHandler+0x1e8>)
 8002252:	011b      	lsls	r3, r3, #4
 8002254:	440b      	add	r3, r1
 8002256:	681b      	ldr	r3, [r3, #0]
 8002258:	429a      	cmp	r2, r3
 800225a:	d114      	bne.n	8002286 <TIM3_IRQHandler+0x5a>
		{
			TIM2->ARR = CalibratedCasesLeonardo[CurrentCase].Freq2;
 800225c:	4b6c      	ldr	r3, [pc, #432]	; (8002410 <TIM3_IRQHandler+0x1e4>)
 800225e:	681b      	ldr	r3, [r3, #0]
 8002260:	f04f 4280 	mov.w	r2, #1073741824	; 0x40000000
 8002264:	496b      	ldr	r1, [pc, #428]	; (8002414 <TIM3_IRQHandler+0x1e8>)
 8002266:	011b      	lsls	r3, r3, #4
 8002268:	440b      	add	r3, r1
 800226a:	3304      	adds	r3, #4
 800226c:	681b      	ldr	r3, [r3, #0]
 800226e:	62d3      	str	r3, [r2, #44]	; 0x2c
			TIM2->CCR1 = CalibratedCasesLeonardo[CurrentCase].Pulse2;
 8002270:	4b67      	ldr	r3, [pc, #412]	; (8002410 <TIM3_IRQHandler+0x1e4>)
 8002272:	681b      	ldr	r3, [r3, #0]
 8002274:	f04f 4280 	mov.w	r2, #1073741824	; 0x40000000
 8002278:	4966      	ldr	r1, [pc, #408]	; (8002414 <TIM3_IRQHandler+0x1e8>)
 800227a:	011b      	lsls	r3, r3, #4
 800227c:	440b      	add	r3, r1
 800227e:	330c      	adds	r3, #12
 8002280:	681b      	ldr	r3, [r3, #0]
 8002282:	6353      	str	r3, [r2, #52]	; 0x34
 8002284:	e012      	b.n	80022ac <TIM3_IRQHandler+0x80>
		}
		else
		{
			TIM2->ARR = CalibratedCasesLeonardo[CurrentCase].Freq1;
 8002286:	4b62      	ldr	r3, [pc, #392]	; (8002410 <TIM3_IRQHandler+0x1e4>)
 8002288:	681b      	ldr	r3, [r3, #0]
 800228a:	f04f 4280 	mov.w	r2, #1073741824	; 0x40000000
 800228e:	4961      	ldr	r1, [pc, #388]	; (8002414 <TIM3_IRQHandler+0x1e8>)
 8002290:	011b      	lsls	r3, r3, #4
 8002292:	440b      	add	r3, r1
 8002294:	681b      	ldr	r3, [r3, #0]
 8002296:	62d3      	str	r3, [r2, #44]	; 0x2c
			TIM2->CCR1 = CalibratedCasesLeonardo[CurrentCase].Pulse1;
 8002298:	4b5d      	ldr	r3, [pc, #372]	; (8002410 <TIM3_IRQHandler+0x1e4>)
 800229a:	681b      	ldr	r3, [r3, #0]
 800229c:	f04f 4280 	mov.w	r2, #1073741824	; 0x40000000
 80022a0:	495c      	ldr	r1, [pc, #368]	; (8002414 <TIM3_IRQHandler+0x1e8>)
 80022a2:	011b      	lsls	r3, r3, #4
 80022a4:	440b      	add	r3, r1
 80022a6:	3308      	adds	r3, #8
 80022a8:	681b      	ldr	r3, [r3, #0]
 80022aa:	6353      	str	r3, [r2, #52]	; 0x34
		}
		TIM3->ARR = 14;
 80022ac:	4b5a      	ldr	r3, [pc, #360]	; (8002418 <TIM3_IRQHandler+0x1ec>)
 80022ae:	220e      	movs	r2, #14
 80022b0:	62da      	str	r2, [r3, #44]	; 0x2c
	}

	// cases with constant frequency and constant pulse
	if((CurrentCase >= Leonardo_PRF1 && CurrentCase <= Leonardo_PRF9) || CurrentCase == Leonardo_Duty_12P || CurrentCase == Leonardo_TC1 || CurrentCase == Leonardo_TC2)
 80022b2:	4b57      	ldr	r3, [pc, #348]	; (8002410 <TIM3_IRQHandler+0x1e4>)
 80022b4:	681b      	ldr	r3, [r3, #0]
 80022b6:	2b08      	cmp	r3, #8
 80022b8:	dd03      	ble.n	80022c2 <TIM3_IRQHandler+0x96>
 80022ba:	4b55      	ldr	r3, [pc, #340]	; (8002410 <TIM3_IRQHandler+0x1e4>)
 80022bc:	681b      	ldr	r3, [r3, #0]
 80022be:	2b11      	cmp	r3, #17
 80022c0:	dd0b      	ble.n	80022da <TIM3_IRQHandler+0xae>
 80022c2:	4b53      	ldr	r3, [pc, #332]	; (8002410 <TIM3_IRQHandler+0x1e4>)
 80022c4:	681b      	ldr	r3, [r3, #0]
 80022c6:	2b12      	cmp	r3, #18
 80022c8:	d007      	beq.n	80022da <TIM3_IRQHandler+0xae>
 80022ca:	4b51      	ldr	r3, [pc, #324]	; (8002410 <TIM3_IRQHandler+0x1e4>)
 80022cc:	681b      	ldr	r3, [r3, #0]
 80022ce:	2b00      	cmp	r3, #0
 80022d0:	d003      	beq.n	80022da <TIM3_IRQHandler+0xae>
 80022d2:	4b4f      	ldr	r3, [pc, #316]	; (8002410 <TIM3_IRQHandler+0x1e4>)
 80022d4:	681b      	ldr	r3, [r3, #0]
 80022d6:	2b01      	cmp	r3, #1
 80022d8:	d117      	bne.n	800230a <TIM3_IRQHandler+0xde>
	{
		ScopeTriggerFromISR();
 80022da:	f000 f8a3 	bl	8002424 <ScopeTriggerFromISR>

		TIM2->ARR = CalibratedCasesLeonardo[CurrentCase].Freq1;
 80022de:	4b4c      	ldr	r3, [pc, #304]	; (8002410 <TIM3_IRQHandler+0x1e4>)
 80022e0:	681b      	ldr	r3, [r3, #0]
 80022e2:	f04f 4280 	mov.w	r2, #1073741824	; 0x40000000
 80022e6:	494b      	ldr	r1, [pc, #300]	; (8002414 <TIM3_IRQHandler+0x1e8>)
 80022e8:	011b      	lsls	r3, r3, #4
 80022ea:	440b      	add	r3, r1
 80022ec:	681b      	ldr	r3, [r3, #0]
 80022ee:	62d3      	str	r3, [r2, #44]	; 0x2c
		TIM2->CCR1 = CalibratedCasesLeonardo[CurrentCase].Pulse1;  // capture/compare register used for pulse length
 80022f0:	4b47      	ldr	r3, [pc, #284]	; (8002410 <TIM3_IRQHandler+0x1e4>)
 80022f2:	681b      	ldr	r3, [r3, #0]
 80022f4:	f04f 4280 	mov.w	r2, #1073741824	; 0x40000000
 80022f8:	4946      	ldr	r1, [pc, #280]	; (8002414 <TIM3_IRQHandler+0x1e8>)
 80022fa:	011b      	lsls	r3, r3, #4
 80022fc:	440b      	add	r3, r1
 80022fe:	3308      	adds	r3, #8
 8002300:	681b      	ldr	r3, [r3, #0]
 8002302:	6353      	str	r3, [r2, #52]	; 0x34
		TIM3->ARR = 14;	// arbitrary number
 8002304:	4b44      	ldr	r3, [pc, #272]	; (8002418 <TIM3_IRQHandler+0x1ec>)
 8002306:	220e      	movs	r2, #14
 8002308:	62da      	str	r2, [r3, #44]	; 0x2c
//		TIM2->CCR1 = CalibratedCasesLeonardo[CurrentCase].Pulse1;  // capture/compare register used for pulse length
//		TIM3->ARR = 14;	// arbitrary number
//	}

	// case with varying frequency (custom interval)
	if(CurrentCase == Leonardo_Duty_15P)
 800230a:	4b41      	ldr	r3, [pc, #260]	; (8002410 <TIM3_IRQHandler+0x1e4>)
 800230c:	681b      	ldr	r3, [r3, #0]
 800230e:	2b13      	cmp	r3, #19
 8002310:	d130      	bne.n	8002374 <TIM3_IRQHandler+0x148>
	{
		ScopeTriggerFromISR();
 8002312:	f000 f887 	bl	8002424 <ScopeTriggerFromISR>
		TIM2->CCR1 = CalibratedCasesLeonardo[CurrentCase].Pulse1;
 8002316:	4b3e      	ldr	r3, [pc, #248]	; (8002410 <TIM3_IRQHandler+0x1e4>)
 8002318:	681b      	ldr	r3, [r3, #0]
 800231a:	f04f 4280 	mov.w	r2, #1073741824	; 0x40000000
 800231e:	493d      	ldr	r1, [pc, #244]	; (8002414 <TIM3_IRQHandler+0x1e8>)
 8002320:	011b      	lsls	r3, r3, #4
 8002322:	440b      	add	r3, r1
 8002324:	3308      	adds	r3, #8
 8002326:	681b      	ldr	r3, [r3, #0]
 8002328:	6353      	str	r3, [r2, #52]	; 0x34

		if(TIM2->ARR == CalibratedCasesLeonardo[CurrentCase].Freq1)
 800232a:	f04f 4380 	mov.w	r3, #1073741824	; 0x40000000
 800232e:	6ada      	ldr	r2, [r3, #44]	; 0x2c
 8002330:	4b37      	ldr	r3, [pc, #220]	; (8002410 <TIM3_IRQHandler+0x1e4>)
 8002332:	681b      	ldr	r3, [r3, #0]
 8002334:	4937      	ldr	r1, [pc, #220]	; (8002414 <TIM3_IRQHandler+0x1e8>)
 8002336:	011b      	lsls	r3, r3, #4
 8002338:	440b      	add	r3, r1
 800233a:	681b      	ldr	r3, [r3, #0]
 800233c:	429a      	cmp	r2, r3
 800233e:	d10d      	bne.n	800235c <TIM3_IRQHandler+0x130>
		{
			TIM2->ARR = CalibratedCasesLeonardo[CurrentCase].Freq2;
 8002340:	4b33      	ldr	r3, [pc, #204]	; (8002410 <TIM3_IRQHandler+0x1e4>)
 8002342:	681b      	ldr	r3, [r3, #0]
 8002344:	f04f 4280 	mov.w	r2, #1073741824	; 0x40000000
 8002348:	4932      	ldr	r1, [pc, #200]	; (8002414 <TIM3_IRQHandler+0x1e8>)
 800234a:	011b      	lsls	r3, r3, #4
 800234c:	440b      	add	r3, r1
 800234e:	3304      	adds	r3, #4
 8002350:	681b      	ldr	r3, [r3, #0]
 8002352:	62d3      	str	r3, [r2, #44]	; 0x2c
			TIM3->ARR = 2;
 8002354:	4b30      	ldr	r3, [pc, #192]	; (8002418 <TIM3_IRQHandler+0x1ec>)
 8002356:	2202      	movs	r2, #2
 8002358:	62da      	str	r2, [r3, #44]	; 0x2c
 800235a:	e00b      	b.n	8002374 <TIM3_IRQHandler+0x148>
		}
		else
		{
			TIM2->ARR = CalibratedCasesLeonardo[CurrentCase].Freq1;
 800235c:	4b2c      	ldr	r3, [pc, #176]	; (8002410 <TIM3_IRQHandler+0x1e4>)
 800235e:	681b      	ldr	r3, [r3, #0]
 8002360:	f04f 4280 	mov.w	r2, #1073741824	; 0x40000000
 8002364:	492b      	ldr	r1, [pc, #172]	; (8002414 <TIM3_IRQHandler+0x1e8>)
 8002366:	011b      	lsls	r3, r3, #4
 8002368:	440b      	add	r3, r1
 800236a:	681b      	ldr	r3, [r3, #0]
 800236c:	62d3      	str	r3, [r2, #44]	; 0x2c
			TIM3->ARR = 23;
 800236e:	4b2a      	ldr	r3, [pc, #168]	; (8002418 <TIM3_IRQHandler+0x1ec>)
 8002370:	2217      	movs	r2, #23
 8002372:	62da      	str	r2, [r3, #44]	; 0x2c
		}
	}

	// "hand made" pattern and scope trigger
	if(CurrentCase == Leonardo_Pattern_Q)
 8002374:	4b26      	ldr	r3, [pc, #152]	; (8002410 <TIM3_IRQHandler+0x1e4>)
 8002376:	681b      	ldr	r3, [r3, #0]
 8002378:	2b14      	cmp	r3, #20
 800237a:	d13f      	bne.n	80023fc <TIM3_IRQHandler+0x1d0>
	{
		//scope trigger
		GPIOC->BSRR |= (1u << 4); // set pin 4
 800237c:	4b27      	ldr	r3, [pc, #156]	; (800241c <TIM3_IRQHandler+0x1f0>)
 800237e:	699b      	ldr	r3, [r3, #24]
 8002380:	4a26      	ldr	r2, [pc, #152]	; (800241c <TIM3_IRQHandler+0x1f0>)
 8002382:	f043 0310 	orr.w	r3, r3, #16
 8002386:	6193      	str	r3, [r2, #24]
		for(int i = 0; i < 25; i++); // about 3 us
 8002388:	2300      	movs	r3, #0
 800238a:	607b      	str	r3, [r7, #4]
 800238c:	e002      	b.n	8002394 <TIM3_IRQHandler+0x168>
 800238e:	687b      	ldr	r3, [r7, #4]
 8002390:	3301      	adds	r3, #1
 8002392:	607b      	str	r3, [r7, #4]
 8002394:	687b      	ldr	r3, [r7, #4]
 8002396:	2b18      	cmp	r3, #24
 8002398:	ddf9      	ble.n	800238e <TIM3_IRQHandler+0x162>
		GPIOC->BSRR |= (1u << 20); // reset pin 4
 800239a:	4b20      	ldr	r3, [pc, #128]	; (800241c <TIM3_IRQHandler+0x1f0>)
 800239c:	699b      	ldr	r3, [r3, #24]
 800239e:	4a1f      	ldr	r2, [pc, #124]	; (800241c <TIM3_IRQHandler+0x1f0>)
 80023a0:	f443 1380 	orr.w	r3, r3, #1048576	; 0x100000
 80023a4:	6193      	str	r3, [r2, #24]

		TIM2->ARR = CalibratedCasesLeonardo[CurrentCase].Freq1;
 80023a6:	4b1a      	ldr	r3, [pc, #104]	; (8002410 <TIM3_IRQHandler+0x1e4>)
 80023a8:	681b      	ldr	r3, [r3, #0]
 80023aa:	f04f 4280 	mov.w	r2, #1073741824	; 0x40000000
 80023ae:	4919      	ldr	r1, [pc, #100]	; (8002414 <TIM3_IRQHandler+0x1e8>)
 80023b0:	011b      	lsls	r3, r3, #4
 80023b2:	440b      	add	r3, r1
 80023b4:	681b      	ldr	r3, [r3, #0]
 80023b6:	62d3      	str	r3, [r2, #44]	; 0x2c
		TIM3->ARR = 23; // set to trigger this ISR
 80023b8:	4b17      	ldr	r3, [pc, #92]	; (8002418 <TIM3_IRQHandler+0x1ec>)
 80023ba:	2217      	movs	r2, #23
 80023bc:	62da      	str	r2, [r3, #44]	; 0x2c

		TIM2->CCR1 = CalibratedCasesLeonardo[CurrentCase].Pulse1;
 80023be:	4b14      	ldr	r3, [pc, #80]	; (8002410 <TIM3_IRQHandler+0x1e4>)
 80023c0:	681b      	ldr	r3, [r3, #0]
 80023c2:	f04f 4280 	mov.w	r2, #1073741824	; 0x40000000
 80023c6:	4913      	ldr	r1, [pc, #76]	; (8002414 <TIM3_IRQHandler+0x1e8>)
 80023c8:	011b      	lsls	r3, r3, #4
 80023ca:	440b      	add	r3, r1
 80023cc:	3308      	adds	r3, #8
 80023ce:	681b      	ldr	r3, [r3, #0]
 80023d0:	6353      	str	r3, [r2, #52]	; 0x34
		for(int i = 0; i < 1250; i++); // about 150 us (allow one pulse - dirty trick)
 80023d2:	2300      	movs	r3, #0
 80023d4:	603b      	str	r3, [r7, #0]
 80023d6:	e002      	b.n	80023de <TIM3_IRQHandler+0x1b2>
 80023d8:	683b      	ldr	r3, [r7, #0]
 80023da:	3301      	adds	r3, #1
 80023dc:	603b      	str	r3, [r7, #0]
 80023de:	683b      	ldr	r3, [r7, #0]
 80023e0:	f240 42e1 	movw	r2, #1249	; 0x4e1
 80023e4:	4293      	cmp	r3, r2
 80023e6:	ddf7      	ble.n	80023d8 <TIM3_IRQHandler+0x1ac>
		TIM2->CCR1 = CalibratedCasesLeonardo[CurrentCase].Pulse2;
 80023e8:	4b09      	ldr	r3, [pc, #36]	; (8002410 <TIM3_IRQHandler+0x1e4>)
 80023ea:	681b      	ldr	r3, [r3, #0]
 80023ec:	f04f 4280 	mov.w	r2, #1073741824	; 0x40000000
 80023f0:	4908      	ldr	r1, [pc, #32]	; (8002414 <TIM3_IRQHandler+0x1e8>)
 80023f2:	011b      	lsls	r3, r3, #4
 80023f4:	440b      	add	r3, r1
 80023f6:	330c      	adds	r3, #12
 80023f8:	681b      	ldr	r3, [r3, #0]
 80023fa:	6353      	str	r3, [r2, #52]	; 0x34
	}

//	  snprintf(PC_GUI_message, 200, " TIM2->CCR1 = %lu\n TIM3->ARR = %lu\n", TIM2->CCR1, TIM3->ARR);	// debug only
//	  HAL_UART_Transmit(&huart2, (unsigned char*)PC_GUI_message, strlen(PC_GUI_message), 100);			// debug only

	__HAL_TIM_CLEAR_IT(&htim3, TIM_IT_UPDATE); // not using HAL callback so it has to be done manually
 80023fc:	4b08      	ldr	r3, [pc, #32]	; (8002420 <TIM3_IRQHandler+0x1f4>)
 80023fe:	681b      	ldr	r3, [r3, #0]
 8002400:	f06f 0201 	mvn.w	r2, #1
 8002404:	611a      	str	r2, [r3, #16]
}
 8002406:	bf00      	nop
 8002408:	3708      	adds	r7, #8
 800240a:	46bd      	mov	sp, r7
 800240c:	bd80      	pop	{r7, pc}
 800240e:	bf00      	nop
 8002410:	20000928 	.word	0x20000928
 8002414:	20000164 	.word	0x20000164
 8002418:	40000400 	.word	0x40000400
 800241c:	48000800 	.word	0x48000800
 8002420:	20000988 	.word	0x20000988

08002424 <ScopeTriggerFromISR>:
}
*/


void ScopeTriggerFromISR(void)
{
 8002424:	b480      	push	{r7}
 8002426:	af00      	add	r7, sp, #0
	// scope trigger for dual frequency cases
	if(CalibratedCasesLeonardo[CurrentCase].Freq1 != CalibratedCasesLeonardo[CurrentCase].Freq2)
 8002428:	4b28      	ldr	r3, [pc, #160]	; (80024cc <ScopeTriggerFromISR+0xa8>)
 800242a:	681b      	ldr	r3, [r3, #0]
 800242c:	4a28      	ldr	r2, [pc, #160]	; (80024d0 <ScopeTriggerFromISR+0xac>)
 800242e:	011b      	lsls	r3, r3, #4
 8002430:	4413      	add	r3, r2
 8002432:	681a      	ldr	r2, [r3, #0]
 8002434:	4b25      	ldr	r3, [pc, #148]	; (80024cc <ScopeTriggerFromISR+0xa8>)
 8002436:	681b      	ldr	r3, [r3, #0]
 8002438:	4925      	ldr	r1, [pc, #148]	; (80024d0 <ScopeTriggerFromISR+0xac>)
 800243a:	011b      	lsls	r3, r3, #4
 800243c:	440b      	add	r3, r1
 800243e:	3304      	adds	r3, #4
 8002440:	681b      	ldr	r3, [r3, #0]
 8002442:	429a      	cmp	r2, r3
 8002444:	d017      	beq.n	8002476 <ScopeTriggerFromISR+0x52>
	{
		if(TIM2->ARR == CalibratedCasesLeonardo[CurrentCase].Freq1)
 8002446:	f04f 4380 	mov.w	r3, #1073741824	; 0x40000000
 800244a:	6ada      	ldr	r2, [r3, #44]	; 0x2c
 800244c:	4b1f      	ldr	r3, [pc, #124]	; (80024cc <ScopeTriggerFromISR+0xa8>)
 800244e:	681b      	ldr	r3, [r3, #0]
 8002450:	491f      	ldr	r1, [pc, #124]	; (80024d0 <ScopeTriggerFromISR+0xac>)
 8002452:	011b      	lsls	r3, r3, #4
 8002454:	440b      	add	r3, r1
 8002456:	681b      	ldr	r3, [r3, #0]
 8002458:	429a      	cmp	r2, r3
 800245a:	d106      	bne.n	800246a <ScopeTriggerFromISR+0x46>
		{
			GPIOC->BSRR |= (1u << 4); // set pin 4
 800245c:	4b1d      	ldr	r3, [pc, #116]	; (80024d4 <ScopeTriggerFromISR+0xb0>)
 800245e:	699b      	ldr	r3, [r3, #24]
 8002460:	4a1c      	ldr	r2, [pc, #112]	; (80024d4 <ScopeTriggerFromISR+0xb0>)
 8002462:	f043 0310 	orr.w	r3, r3, #16
 8002466:	6193      	str	r3, [r2, #24]
 8002468:	e005      	b.n	8002476 <ScopeTriggerFromISR+0x52>
		}
		else
		{
			GPIOC->BSRR |= (1u << 20); // reset pin 4
 800246a:	4b1a      	ldr	r3, [pc, #104]	; (80024d4 <ScopeTriggerFromISR+0xb0>)
 800246c:	699b      	ldr	r3, [r3, #24]
 800246e:	4a19      	ldr	r2, [pc, #100]	; (80024d4 <ScopeTriggerFromISR+0xb0>)
 8002470:	f443 1380 	orr.w	r3, r3, #1048576	; 0x100000
 8002474:	6193      	str	r3, [r2, #24]
		}
	}


	// scope trigger for single frequency cases (unnecessary but added for convenience to avoid need for switching trigger source in the scope)
	if(CalibratedCasesLeonardo[CurrentCase].Freq1 == CalibratedCasesLeonardo[CurrentCase].Freq2)
 8002476:	4b15      	ldr	r3, [pc, #84]	; (80024cc <ScopeTriggerFromISR+0xa8>)
 8002478:	681b      	ldr	r3, [r3, #0]
 800247a:	4a15      	ldr	r2, [pc, #84]	; (80024d0 <ScopeTriggerFromISR+0xac>)
 800247c:	011b      	lsls	r3, r3, #4
 800247e:	4413      	add	r3, r2
 8002480:	681a      	ldr	r2, [r3, #0]
 8002482:	4b12      	ldr	r3, [pc, #72]	; (80024cc <ScopeTriggerFromISR+0xa8>)
 8002484:	681b      	ldr	r3, [r3, #0]
 8002486:	4912      	ldr	r1, [pc, #72]	; (80024d0 <ScopeTriggerFromISR+0xac>)
 8002488:	011b      	lsls	r3, r3, #4
 800248a:	440b      	add	r3, r1
 800248c:	3304      	adds	r3, #4
 800248e:	681b      	ldr	r3, [r3, #0]
 8002490:	429a      	cmp	r2, r3
 8002492:	d116      	bne.n	80024c2 <ScopeTriggerFromISR+0x9e>
	{
		if(CurrentFrequency == 1)
 8002494:	4b10      	ldr	r3, [pc, #64]	; (80024d8 <ScopeTriggerFromISR+0xb4>)
 8002496:	681b      	ldr	r3, [r3, #0]
 8002498:	2b01      	cmp	r3, #1
 800249a:	d109      	bne.n	80024b0 <ScopeTriggerFromISR+0x8c>
		{
			GPIOC->BSRR |= (1u << 4); // set pin 4
 800249c:	4b0d      	ldr	r3, [pc, #52]	; (80024d4 <ScopeTriggerFromISR+0xb0>)
 800249e:	699b      	ldr	r3, [r3, #24]
 80024a0:	4a0c      	ldr	r2, [pc, #48]	; (80024d4 <ScopeTriggerFromISR+0xb0>)
 80024a2:	f043 0310 	orr.w	r3, r3, #16
 80024a6:	6193      	str	r3, [r2, #24]
			CurrentFrequency = 2;
 80024a8:	4b0b      	ldr	r3, [pc, #44]	; (80024d8 <ScopeTriggerFromISR+0xb4>)
 80024aa:	2202      	movs	r2, #2
 80024ac:	601a      	str	r2, [r3, #0]
		{
			GPIOC->BSRR |= (1u << 20); // reset pin 4
			CurrentFrequency = 1;
		}
	}
}
 80024ae:	e008      	b.n	80024c2 <ScopeTriggerFromISR+0x9e>
			GPIOC->BSRR |= (1u << 20); // reset pin 4
 80024b0:	4b08      	ldr	r3, [pc, #32]	; (80024d4 <ScopeTriggerFromISR+0xb0>)
 80024b2:	699b      	ldr	r3, [r3, #24]
 80024b4:	4a07      	ldr	r2, [pc, #28]	; (80024d4 <ScopeTriggerFromISR+0xb0>)
 80024b6:	f443 1380 	orr.w	r3, r3, #1048576	; 0x100000
 80024ba:	6193      	str	r3, [r2, #24]
			CurrentFrequency = 1;
 80024bc:	4b06      	ldr	r3, [pc, #24]	; (80024d8 <ScopeTriggerFromISR+0xb4>)
 80024be:	2201      	movs	r2, #1
 80024c0:	601a      	str	r2, [r3, #0]
}
 80024c2:	bf00      	nop
 80024c4:	46bd      	mov	sp, r7
 80024c6:	f85d 7b04 	ldr.w	r7, [sp], #4
 80024ca:	4770      	bx	lr
 80024cc:	20000928 	.word	0x20000928
 80024d0:	20000164 	.word	0x20000164
 80024d4:	48000800 	.word	0x48000800
 80024d8:	20000930 	.word	0x20000930

080024dc <NextFrequency>:

void NextFrequency(void)
{
 80024dc:	b580      	push	{r7, lr}
 80024de:	af00      	add	r7, sp, #0
	CurrentCase++;
 80024e0:	4b0b      	ldr	r3, [pc, #44]	; (8002510 <NextFrequency+0x34>)
 80024e2:	681b      	ldr	r3, [r3, #0]
 80024e4:	3301      	adds	r3, #1
 80024e6:	4a0a      	ldr	r2, [pc, #40]	; (8002510 <NextFrequency+0x34>)
 80024e8:	6013      	str	r3, [r2, #0]
	if(CurrentCase > NUMBER_OF_CASES - 1)
 80024ea:	4b09      	ldr	r3, [pc, #36]	; (8002510 <NextFrequency+0x34>)
 80024ec:	681b      	ldr	r3, [r3, #0]
 80024ee:	2b14      	cmp	r3, #20
 80024f0:	dd02      	ble.n	80024f8 <NextFrequency+0x1c>
		CurrentCase = 0;	// go to the beginning
 80024f2:	4b07      	ldr	r3, [pc, #28]	; (8002510 <NextFrequency+0x34>)
 80024f4:	2200      	movs	r2, #0
 80024f6:	601a      	str	r2, [r3, #0]

	OLEDDisplayState = CurrentCase;
 80024f8:	4b05      	ldr	r3, [pc, #20]	; (8002510 <NextFrequency+0x34>)
 80024fa:	681b      	ldr	r3, [r3, #0]
 80024fc:	b2da      	uxtb	r2, r3
 80024fe:	4b05      	ldr	r3, [pc, #20]	; (8002514 <NextFrequency+0x38>)
 8002500:	701a      	strb	r2, [r3, #0]
	OLED_Update_Display_Case(OLEDDisplayState);
 8002502:	4b04      	ldr	r3, [pc, #16]	; (8002514 <NextFrequency+0x38>)
 8002504:	781b      	ldrb	r3, [r3, #0]
 8002506:	4618      	mov	r0, r3
 8002508:	f7fe fc06 	bl	8000d18 <OLED_Update_Display_Case>
}
 800250c:	bf00      	nop
 800250e:	bd80      	pop	{r7, pc}
 8002510:	20000928 	.word	0x20000928
 8002514:	20000000 	.word	0x20000000

08002518 <PreviousFrequency>:

void PreviousFrequency(void)
{
 8002518:	b580      	push	{r7, lr}
 800251a:	af00      	add	r7, sp, #0
	CurrentCase--;
 800251c:	4b0b      	ldr	r3, [pc, #44]	; (800254c <PreviousFrequency+0x34>)
 800251e:	681b      	ldr	r3, [r3, #0]
 8002520:	3b01      	subs	r3, #1
 8002522:	4a0a      	ldr	r2, [pc, #40]	; (800254c <PreviousFrequency+0x34>)
 8002524:	6013      	str	r3, [r2, #0]
	if(CurrentCase < 0)
 8002526:	4b09      	ldr	r3, [pc, #36]	; (800254c <PreviousFrequency+0x34>)
 8002528:	681b      	ldr	r3, [r3, #0]
 800252a:	2b00      	cmp	r3, #0
 800252c:	da02      	bge.n	8002534 <PreviousFrequency+0x1c>
		CurrentCase = NUMBER_OF_CASES - 1; 		// go to the last one
 800252e:	4b07      	ldr	r3, [pc, #28]	; (800254c <PreviousFrequency+0x34>)
 8002530:	2214      	movs	r2, #20
 8002532:	601a      	str	r2, [r3, #0]

	OLEDDisplayState = CurrentCase;
 8002534:	4b05      	ldr	r3, [pc, #20]	; (800254c <PreviousFrequency+0x34>)
 8002536:	681b      	ldr	r3, [r3, #0]
 8002538:	b2da      	uxtb	r2, r3
 800253a:	4b05      	ldr	r3, [pc, #20]	; (8002550 <PreviousFrequency+0x38>)
 800253c:	701a      	strb	r2, [r3, #0]
	OLED_Update_Display_Case(OLEDDisplayState);
 800253e:	4b04      	ldr	r3, [pc, #16]	; (8002550 <PreviousFrequency+0x38>)
 8002540:	781b      	ldrb	r3, [r3, #0]
 8002542:	4618      	mov	r0, r3
 8002544:	f7fe fbe8 	bl	8000d18 <OLED_Update_Display_Case>
}
 8002548:	bf00      	nop
 800254a:	bd80      	pop	{r7, pc}
 800254c:	20000928 	.word	0x20000928
 8002550:	20000000 	.word	0x20000000

08002554 <MX_GPIO_Init>:
        * Output
        * EVENT_OUT
        * EXTI
*/
void MX_GPIO_Init(void)
{
 8002554:	b580      	push	{r7, lr}
 8002556:	b08a      	sub	sp, #40	; 0x28
 8002558:	af00      	add	r7, sp, #0

  GPIO_InitTypeDef GPIO_InitStruct = {0};
 800255a:	f107 0314 	add.w	r3, r7, #20
 800255e:	2200      	movs	r2, #0
 8002560:	601a      	str	r2, [r3, #0]
 8002562:	605a      	str	r2, [r3, #4]
 8002564:	609a      	str	r2, [r3, #8]
 8002566:	60da      	str	r2, [r3, #12]
 8002568:	611a      	str	r2, [r3, #16]

  /* GPIO Ports Clock Enable */
  __HAL_RCC_GPIOC_CLK_ENABLE();
 800256a:	4b63      	ldr	r3, [pc, #396]	; (80026f8 <MX_GPIO_Init+0x1a4>)
 800256c:	6cdb      	ldr	r3, [r3, #76]	; 0x4c
 800256e:	4a62      	ldr	r2, [pc, #392]	; (80026f8 <MX_GPIO_Init+0x1a4>)
 8002570:	f043 0304 	orr.w	r3, r3, #4
 8002574:	64d3      	str	r3, [r2, #76]	; 0x4c
 8002576:	4b60      	ldr	r3, [pc, #384]	; (80026f8 <MX_GPIO_Init+0x1a4>)
 8002578:	6cdb      	ldr	r3, [r3, #76]	; 0x4c
 800257a:	f003 0304 	and.w	r3, r3, #4
 800257e:	613b      	str	r3, [r7, #16]
 8002580:	693b      	ldr	r3, [r7, #16]
  __HAL_RCC_GPIOH_CLK_ENABLE();
 8002582:	4b5d      	ldr	r3, [pc, #372]	; (80026f8 <MX_GPIO_Init+0x1a4>)
 8002584:	6cdb      	ldr	r3, [r3, #76]	; 0x4c
 8002586:	4a5c      	ldr	r2, [pc, #368]	; (80026f8 <MX_GPIO_Init+0x1a4>)
 8002588:	f043 0380 	orr.w	r3, r3, #128	; 0x80
 800258c:	64d3      	str	r3, [r2, #76]	; 0x4c
 800258e:	4b5a      	ldr	r3, [pc, #360]	; (80026f8 <MX_GPIO_Init+0x1a4>)
 8002590:	6cdb      	ldr	r3, [r3, #76]	; 0x4c
 8002592:	f003 0380 	and.w	r3, r3, #128	; 0x80
 8002596:	60fb      	str	r3, [r7, #12]
 8002598:	68fb      	ldr	r3, [r7, #12]
  __HAL_RCC_GPIOA_CLK_ENABLE();
 800259a:	4b57      	ldr	r3, [pc, #348]	; (80026f8 <MX_GPIO_Init+0x1a4>)
 800259c:	6cdb      	ldr	r3, [r3, #76]	; 0x4c
 800259e:	4a56      	ldr	r2, [pc, #344]	; (80026f8 <MX_GPIO_Init+0x1a4>)
 80025a0:	f043 0301 	orr.w	r3, r3, #1
 80025a4:	64d3      	str	r3, [r2, #76]	; 0x4c
 80025a6:	4b54      	ldr	r3, [pc, #336]	; (80026f8 <MX_GPIO_Init+0x1a4>)
 80025a8:	6cdb      	ldr	r3, [r3, #76]	; 0x4c
 80025aa:	f003 0301 	and.w	r3, r3, #1
 80025ae:	60bb      	str	r3, [r7, #8]
 80025b0:	68bb      	ldr	r3, [r7, #8]
  __HAL_RCC_GPIOB_CLK_ENABLE();
 80025b2:	4b51      	ldr	r3, [pc, #324]	; (80026f8 <MX_GPIO_Init+0x1a4>)
 80025b4:	6cdb      	ldr	r3, [r3, #76]	; 0x4c
 80025b6:	4a50      	ldr	r2, [pc, #320]	; (80026f8 <MX_GPIO_Init+0x1a4>)
 80025b8:	f043 0302 	orr.w	r3, r3, #2
 80025bc:	64d3      	str	r3, [r2, #76]	; 0x4c
 80025be:	4b4e      	ldr	r3, [pc, #312]	; (80026f8 <MX_GPIO_Init+0x1a4>)
 80025c0:	6cdb      	ldr	r3, [r3, #76]	; 0x4c
 80025c2:	f003 0302 	and.w	r3, r3, #2
 80025c6:	607b      	str	r3, [r7, #4]
 80025c8:	687b      	ldr	r3, [r7, #4]
  __HAL_RCC_GPIOD_CLK_ENABLE();
 80025ca:	4b4b      	ldr	r3, [pc, #300]	; (80026f8 <MX_GPIO_Init+0x1a4>)
 80025cc:	6cdb      	ldr	r3, [r3, #76]	; 0x4c
 80025ce:	4a4a      	ldr	r2, [pc, #296]	; (80026f8 <MX_GPIO_Init+0x1a4>)
 80025d0:	f043 0308 	orr.w	r3, r3, #8
 80025d4:	64d3      	str	r3, [r2, #76]	; 0x4c
 80025d6:	4b48      	ldr	r3, [pc, #288]	; (80026f8 <MX_GPIO_Init+0x1a4>)
 80025d8:	6cdb      	ldr	r3, [r3, #76]	; 0x4c
 80025da:	f003 0308 	and.w	r3, r3, #8
 80025de:	603b      	str	r3, [r7, #0]
 80025e0:	683b      	ldr	r3, [r7, #0]

  /*Configure GPIO pin Output Level */
  HAL_GPIO_WritePin(GPIOC, GPIO_PIN_2|GPIO_PIN_3|GPIO_PIN_4|GPIO_PIN_5
 80025e2:	2200      	movs	r2, #0
 80025e4:	f641 61bc 	movw	r1, #7868	; 0x1ebc
 80025e8:	4844      	ldr	r0, [pc, #272]	; (80026fc <MX_GPIO_Init+0x1a8>)
 80025ea:	f001 fb0b 	bl	8003c04 <HAL_GPIO_WritePin>
                          |GPIO_PIN_7|GPIO_PIN_9|GPIO_PIN_10|GPIO_PIN_11
                          |GPIO_PIN_12, GPIO_PIN_RESET);

  /*Configure GPIO pin Output Level */
  HAL_GPIO_WritePin(GPIOA, GPIO_PIN_1|GPIO_PIN_2|GPIO_PIN_3|GPIO_PIN_4
 80025ee:	2200      	movs	r2, #0
 80025f0:	f249 71fe 	movw	r1, #38910	; 0x97fe
 80025f4:	f04f 4090 	mov.w	r0, #1207959552	; 0x48000000
 80025f8:	f001 fb04 	bl	8003c04 <HAL_GPIO_WritePin>
                          |GPIO_PIN_5|GPIO_PIN_6|GPIO_PIN_7|GPIO_PIN_8
                          |GPIO_PIN_9|GPIO_PIN_10|GPIO_PIN_12|GPIO_PIN_15, GPIO_PIN_RESET);

  /*Configure GPIO pin Output Level */
  HAL_GPIO_WritePin(GPIOB, GPIO_PIN_0|GPIO_PIN_1|GPIO_PIN_2|GPIO_PIN_10
 80025fc:	2200      	movs	r2, #0
 80025fe:	f64f 71f7 	movw	r1, #65527	; 0xfff7
 8002602:	483f      	ldr	r0, [pc, #252]	; (8002700 <MX_GPIO_Init+0x1ac>)
 8002604:	f001 fafe 	bl	8003c04 <HAL_GPIO_WritePin>
                          |GPIO_PIN_11|GPIO_PIN_12|GPIO_PIN_13|GPIO_PIN_14
                          |GPIO_PIN_15|GPIO_PIN_4|GPIO_PIN_5|GPIO_PIN_6
                          |GPIO_PIN_7|GPIO_PIN_8|GPIO_PIN_9, GPIO_PIN_RESET);

  /*Configure GPIO pin : PC13 */
  GPIO_InitStruct.Pin = GPIO_PIN_13;
 8002608:	f44f 5300 	mov.w	r3, #8192	; 0x2000
 800260c:	617b      	str	r3, [r7, #20]
  GPIO_InitStruct.Mode = GPIO_MODE_IT_FALLING;
 800260e:	4b3d      	ldr	r3, [pc, #244]	; (8002704 <MX_GPIO_Init+0x1b0>)
 8002610:	61bb      	str	r3, [r7, #24]
  GPIO_InitStruct.Pull = GPIO_NOPULL;
 8002612:	2300      	movs	r3, #0
 8002614:	61fb      	str	r3, [r7, #28]
  HAL_GPIO_Init(GPIOC, &GPIO_InitStruct);
 8002616:	f107 0314 	add.w	r3, r7, #20
 800261a:	4619      	mov	r1, r3
 800261c:	4837      	ldr	r0, [pc, #220]	; (80026fc <MX_GPIO_Init+0x1a8>)
 800261e:	f001 f931 	bl	8003884 <HAL_GPIO_Init>

  /*Configure GPIO pins : PC2 PC3 PC4 PC5
                           PC9 PC10 PC11 PC12 */
  GPIO_InitStruct.Pin = GPIO_PIN_2|GPIO_PIN_3|GPIO_PIN_4|GPIO_PIN_5
 8002622:	f641 633c 	movw	r3, #7740	; 0x1e3c
 8002626:	617b      	str	r3, [r7, #20]
                          |GPIO_PIN_9|GPIO_PIN_10|GPIO_PIN_11|GPIO_PIN_12;
  GPIO_InitStruct.Mode = GPIO_MODE_OUTPUT_PP;
 8002628:	2301      	movs	r3, #1
 800262a:	61bb      	str	r3, [r7, #24]
  GPIO_InitStruct.Pull = GPIO_NOPULL;
 800262c:	2300      	movs	r3, #0
 800262e:	61fb      	str	r3, [r7, #28]
  GPIO_InitStruct.Speed = GPIO_SPEED_FREQ_LOW;
 8002630:	2300      	movs	r3, #0
 8002632:	623b      	str	r3, [r7, #32]
  HAL_GPIO_Init(GPIOC, &GPIO_InitStruct);
 8002634:	f107 0314 	add.w	r3, r7, #20
 8002638:	4619      	mov	r1, r3
 800263a:	4830      	ldr	r0, [pc, #192]	; (80026fc <MX_GPIO_Init+0x1a8>)
 800263c:	f001 f922 	bl	8003884 <HAL_GPIO_Init>

  /*Configure GPIO pins : PA1 PA2 PA3 PA4
                           PA5 PA6 PA7 PA8
                           PA9 PA10 PA12 PA15 */
  GPIO_InitStruct.Pin = GPIO_PIN_1|GPIO_PIN_2|GPIO_PIN_3|GPIO_PIN_4
 8002640:	f249 73fe 	movw	r3, #38910	; 0x97fe
 8002644:	617b      	str	r3, [r7, #20]
                          |GPIO_PIN_5|GPIO_PIN_6|GPIO_PIN_7|GPIO_PIN_8
                          |GPIO_PIN_9|GPIO_PIN_10|GPIO_PIN_12|GPIO_PIN_15;
  GPIO_InitStruct.Mode = GPIO_MODE_OUTPUT_PP;
 8002646:	2301      	movs	r3, #1
 8002648:	61bb      	str	r3, [r7, #24]
  GPIO_InitStruct.Pull = GPIO_NOPULL;
 800264a:	2300      	movs	r3, #0
 800264c:	61fb      	str	r3, [r7, #28]
  GPIO_InitStruct.Speed = GPIO_SPEED_FREQ_LOW;
 800264e:	2300      	movs	r3, #0
 8002650:	623b      	str	r3, [r7, #32]
  HAL_GPIO_Init(GPIOA, &GPIO_InitStruct);
 8002652:	f107 0314 	add.w	r3, r7, #20
 8002656:	4619      	mov	r1, r3
 8002658:	f04f 4090 	mov.w	r0, #1207959552	; 0x48000000
 800265c:	f001 f912 	bl	8003884 <HAL_GPIO_Init>

  /*Configure GPIO pins : PB0 PB1 PB2 PB10
                           PB11 PB12 PB13 PB14
                           PB15 PB4 PB5 PB6
                           PB7 PB8 PB9 */
  GPIO_InitStruct.Pin = GPIO_PIN_0|GPIO_PIN_1|GPIO_PIN_2|GPIO_PIN_10
 8002660:	f64f 73f7 	movw	r3, #65527	; 0xfff7
 8002664:	617b      	str	r3, [r7, #20]
                          |GPIO_PIN_11|GPIO_PIN_12|GPIO_PIN_13|GPIO_PIN_14
                          |GPIO_PIN_15|GPIO_PIN_4|GPIO_PIN_5|GPIO_PIN_6
                          |GPIO_PIN_7|GPIO_PIN_8|GPIO_PIN_9;
  GPIO_InitStruct.Mode = GPIO_MODE_OUTPUT_PP;
 8002666:	2301      	movs	r3, #1
 8002668:	61bb      	str	r3, [r7, #24]
  GPIO_InitStruct.Pull = GPIO_NOPULL;
 800266a:	2300      	movs	r3, #0
 800266c:	61fb      	str	r3, [r7, #28]
  GPIO_InitStruct.Speed = GPIO_SPEED_FREQ_LOW;
 800266e:	2300      	movs	r3, #0
 8002670:	623b      	str	r3, [r7, #32]
  HAL_GPIO_Init(GPIOB, &GPIO_InitStruct);
 8002672:	f107 0314 	add.w	r3, r7, #20
 8002676:	4619      	mov	r1, r3
 8002678:	4821      	ldr	r0, [pc, #132]	; (8002700 <MX_GPIO_Init+0x1ac>)
 800267a:	f001 f903 	bl	8003884 <HAL_GPIO_Init>

  /*Configure GPIO pins : PC6 PC8 */
  GPIO_InitStruct.Pin = GPIO_PIN_6|GPIO_PIN_8;
 800267e:	f44f 73a0 	mov.w	r3, #320	; 0x140
 8002682:	617b      	str	r3, [r7, #20]
  GPIO_InitStruct.Mode = GPIO_MODE_IT_FALLING;
 8002684:	4b1f      	ldr	r3, [pc, #124]	; (8002704 <MX_GPIO_Init+0x1b0>)
 8002686:	61bb      	str	r3, [r7, #24]
  GPIO_InitStruct.Pull = GPIO_PULLUP;
 8002688:	2301      	movs	r3, #1
 800268a:	61fb      	str	r3, [r7, #28]
  HAL_GPIO_Init(GPIOC, &GPIO_InitStruct);
 800268c:	f107 0314 	add.w	r3, r7, #20
 8002690:	4619      	mov	r1, r3
 8002692:	481a      	ldr	r0, [pc, #104]	; (80026fc <MX_GPIO_Init+0x1a8>)
 8002694:	f001 f8f6 	bl	8003884 <HAL_GPIO_Init>

  /*Configure GPIO pin : PC7 */
  GPIO_InitStruct.Pin = GPIO_PIN_7;
 8002698:	2380      	movs	r3, #128	; 0x80
 800269a:	617b      	str	r3, [r7, #20]
  GPIO_InitStruct.Mode = GPIO_MODE_OUTPUT_PP;
 800269c:	2301      	movs	r3, #1
 800269e:	61bb      	str	r3, [r7, #24]
  GPIO_InitStruct.Pull = GPIO_NOPULL;
 80026a0:	2300      	movs	r3, #0
 80026a2:	61fb      	str	r3, [r7, #28]
  GPIO_InitStruct.Speed = GPIO_SPEED_FREQ_VERY_HIGH;
 80026a4:	2303      	movs	r3, #3
 80026a6:	623b      	str	r3, [r7, #32]
  HAL_GPIO_Init(GPIOC, &GPIO_InitStruct);
 80026a8:	f107 0314 	add.w	r3, r7, #20
 80026ac:	4619      	mov	r1, r3
 80026ae:	4813      	ldr	r0, [pc, #76]	; (80026fc <MX_GPIO_Init+0x1a8>)
 80026b0:	f001 f8e8 	bl	8003884 <HAL_GPIO_Init>

  /*Configure GPIO pin : PA11 */
  GPIO_InitStruct.Pin = GPIO_PIN_11;
 80026b4:	f44f 6300 	mov.w	r3, #2048	; 0x800
 80026b8:	617b      	str	r3, [r7, #20]
  GPIO_InitStruct.Mode = GPIO_MODE_IT_FALLING;
 80026ba:	4b12      	ldr	r3, [pc, #72]	; (8002704 <MX_GPIO_Init+0x1b0>)
 80026bc:	61bb      	str	r3, [r7, #24]
  GPIO_InitStruct.Pull = GPIO_PULLUP;
 80026be:	2301      	movs	r3, #1
 80026c0:	61fb      	str	r3, [r7, #28]
  HAL_GPIO_Init(GPIOA, &GPIO_InitStruct);
 80026c2:	f107 0314 	add.w	r3, r7, #20
 80026c6:	4619      	mov	r1, r3
 80026c8:	f04f 4090 	mov.w	r0, #1207959552	; 0x48000000
 80026cc:	f001 f8da 	bl	8003884 <HAL_GPIO_Init>

  /* EXTI interrupt init*/
  HAL_NVIC_SetPriority(EXTI9_5_IRQn, 0, 0);
 80026d0:	2200      	movs	r2, #0
 80026d2:	2100      	movs	r1, #0
 80026d4:	2017      	movs	r0, #23
 80026d6:	f000 fe00 	bl	80032da <HAL_NVIC_SetPriority>
  HAL_NVIC_EnableIRQ(EXTI9_5_IRQn);
 80026da:	2017      	movs	r0, #23
 80026dc:	f000 fe19 	bl	8003312 <HAL_NVIC_EnableIRQ>

  HAL_NVIC_SetPriority(EXTI15_10_IRQn, 0, 0);
 80026e0:	2200      	movs	r2, #0
 80026e2:	2100      	movs	r1, #0
 80026e4:	2028      	movs	r0, #40	; 0x28
 80026e6:	f000 fdf8 	bl	80032da <HAL_NVIC_SetPriority>
  HAL_NVIC_EnableIRQ(EXTI15_10_IRQn);
 80026ea:	2028      	movs	r0, #40	; 0x28
 80026ec:	f000 fe11 	bl	8003312 <HAL_NVIC_EnableIRQ>

}
 80026f0:	bf00      	nop
 80026f2:	3728      	adds	r7, #40	; 0x28
 80026f4:	46bd      	mov	sp, r7
 80026f6:	bd80      	pop	{r7, pc}
 80026f8:	40021000 	.word	0x40021000
 80026fc:	48000800 	.word	0x48000800
 8002700:	48000400 	.word	0x48000400
 8002704:	10210000 	.word	0x10210000

08002708 <HAL_GPIO_EXTI_Callback>:

/* USER CODE BEGIN 2 */

void HAL_GPIO_EXTI_Callback(uint16_t GPIO_Pin)
{
 8002708:	b580      	push	{r7, lr}
 800270a:	b084      	sub	sp, #16
 800270c:	af00      	add	r7, sp, #0
 800270e:	4603      	mov	r3, r0
 8002710:	80fb      	strh	r3, [r7, #6]
	if(GPIO_Pin == GPIO_PIN_6)	// next case button pressed (PC6)
 8002712:	88fb      	ldrh	r3, [r7, #6]
 8002714:	2b40      	cmp	r3, #64	; 0x40
 8002716:	d115      	bne.n	8002744 <HAL_GPIO_EXTI_Callback+0x3c>
	{
		NextFrequency();
 8002718:	f7ff fee0 	bl	80024dc <NextFrequency>
		for(int i = 0; i < 100000; i++); 		// about 14 ms debounce
 800271c:	2300      	movs	r3, #0
 800271e:	60fb      	str	r3, [r7, #12]
 8002720:	e002      	b.n	8002728 <HAL_GPIO_EXTI_Callback+0x20>
 8002722:	68fb      	ldr	r3, [r7, #12]
 8002724:	3301      	adds	r3, #1
 8002726:	60fb      	str	r3, [r7, #12]
 8002728:	68fb      	ldr	r3, [r7, #12]
 800272a:	4a1e      	ldr	r2, [pc, #120]	; (80027a4 <HAL_GPIO_EXTI_Callback+0x9c>)
 800272c:	4293      	cmp	r3, r2
 800272e:	ddf8      	ble.n	8002722 <HAL_GPIO_EXTI_Callback+0x1a>
		__HAL_GPIO_EXTI_CLEAR_IT(GPIO_PIN_6);
 8002730:	4b1d      	ldr	r3, [pc, #116]	; (80027a8 <HAL_GPIO_EXTI_Callback+0xa0>)
 8002732:	2240      	movs	r2, #64	; 0x40
 8002734:	615a      	str	r2, [r3, #20]
		TIM2->CNT = 0;							// avoid timer overflow when ARR register is changed
 8002736:	f04f 4380 	mov.w	r3, #1073741824	; 0x40000000
 800273a:	2200      	movs	r2, #0
 800273c:	625a      	str	r2, [r3, #36]	; 0x24
		TIM3->CNT = 0;							// avoid timer overflow when ARR register is changed
 800273e:	4b1b      	ldr	r3, [pc, #108]	; (80027ac <HAL_GPIO_EXTI_Callback+0xa4>)
 8002740:	2200      	movs	r2, #0
 8002742:	625a      	str	r2, [r3, #36]	; 0x24
	}

	if(GPIO_Pin == GPIO_PIN_8)	// previous case down button pressed (PC8)
 8002744:	88fb      	ldrh	r3, [r7, #6]
 8002746:	f5b3 7f80 	cmp.w	r3, #256	; 0x100
 800274a:	d116      	bne.n	800277a <HAL_GPIO_EXTI_Callback+0x72>
	{
		PreviousFrequency();
 800274c:	f7ff fee4 	bl	8002518 <PreviousFrequency>
		for(int i = 0; i < 100000; i++); // about 14 ms debounce
 8002750:	2300      	movs	r3, #0
 8002752:	60bb      	str	r3, [r7, #8]
 8002754:	e002      	b.n	800275c <HAL_GPIO_EXTI_Callback+0x54>
 8002756:	68bb      	ldr	r3, [r7, #8]
 8002758:	3301      	adds	r3, #1
 800275a:	60bb      	str	r3, [r7, #8]
 800275c:	68bb      	ldr	r3, [r7, #8]
 800275e:	4a11      	ldr	r2, [pc, #68]	; (80027a4 <HAL_GPIO_EXTI_Callback+0x9c>)
 8002760:	4293      	cmp	r3, r2
 8002762:	ddf8      	ble.n	8002756 <HAL_GPIO_EXTI_Callback+0x4e>
		__HAL_GPIO_EXTI_CLEAR_IT(GPIO_PIN_8);
 8002764:	4b10      	ldr	r3, [pc, #64]	; (80027a8 <HAL_GPIO_EXTI_Callback+0xa0>)
 8002766:	f44f 7280 	mov.w	r2, #256	; 0x100
 800276a:	615a      	str	r2, [r3, #20]
		TIM2->CNT = 0;							// avoid timer overflow when ARR register is changed
 800276c:	f04f 4380 	mov.w	r3, #1073741824	; 0x40000000
 8002770:	2200      	movs	r2, #0
 8002772:	625a      	str	r2, [r3, #36]	; 0x24
		TIM3->CNT = 0;							// avoid timer overflow when ARR register is changed
 8002774:	4b0d      	ldr	r3, [pc, #52]	; (80027ac <HAL_GPIO_EXTI_Callback+0xa4>)
 8002776:	2200      	movs	r2, #0
 8002778:	625a      	str	r2, [r3, #36]	; 0x24
	}

	if(GPIO_Pin == GPIO_PIN_13)	// Frequency calibration button
 800277a:	88fb      	ldrh	r3, [r7, #6]
 800277c:	f5b3 5f00 	cmp.w	r3, #8192	; 0x2000
 8002780:	d102      	bne.n	8002788 <HAL_GPIO_EXTI_Callback+0x80>
	{
		FrequencyCalibrationModeFlag = true;
 8002782:	4b0b      	ldr	r3, [pc, #44]	; (80027b0 <HAL_GPIO_EXTI_Callback+0xa8>)
 8002784:	2201      	movs	r2, #1
 8002786:	701a      	strb	r2, [r3, #0]
	}

	if(GPIO_Pin == GPIO_PIN_11)	// Pulse adjustment button
 8002788:	88fb      	ldrh	r3, [r7, #6]
 800278a:	f5b3 6f00 	cmp.w	r3, #2048	; 0x800
 800278e:	d102      	bne.n	8002796 <HAL_GPIO_EXTI_Callback+0x8e>
	{
		PulseOffsetAdjustmentModeFlag = true;
 8002790:	4b08      	ldr	r3, [pc, #32]	; (80027b4 <HAL_GPIO_EXTI_Callback+0xac>)
 8002792:	2201      	movs	r2, #1
 8002794:	701a      	strb	r2, [r3, #0]
	}


	__HAL_GPIO_EXTI_CLEAR_IT(GPIO_Pin); // clear interrupt manually again (it is done already in library function before this callback function but interrupt can occur again when this function is running).
 8002796:	4a04      	ldr	r2, [pc, #16]	; (80027a8 <HAL_GPIO_EXTI_Callback+0xa0>)
 8002798:	88fb      	ldrh	r3, [r7, #6]
 800279a:	6153      	str	r3, [r2, #20]
}
 800279c:	bf00      	nop
 800279e:	3710      	adds	r7, #16
 80027a0:	46bd      	mov	sp, r7
 80027a2:	bd80      	pop	{r7, pc}
 80027a4:	0001869f 	.word	0x0001869f
 80027a8:	40010400 	.word	0x40010400
 80027ac:	40000400 	.word	0x40000400
 80027b0:	20000921 	.word	0x20000921
 80027b4:	20000920 	.word	0x20000920

080027b8 <MX_I2C3_Init>:

I2C_HandleTypeDef hi2c3;

/* I2C3 init function */
void MX_I2C3_Init(void)
{
 80027b8:	b580      	push	{r7, lr}
 80027ba:	af00      	add	r7, sp, #0

  hi2c3.Instance = I2C3;
 80027bc:	4b1b      	ldr	r3, [pc, #108]	; (800282c <MX_I2C3_Init+0x74>)
 80027be:	4a1c      	ldr	r2, [pc, #112]	; (8002830 <MX_I2C3_Init+0x78>)
 80027c0:	601a      	str	r2, [r3, #0]
  hi2c3.Init.Timing = 0x10909CEC;
 80027c2:	4b1a      	ldr	r3, [pc, #104]	; (800282c <MX_I2C3_Init+0x74>)
 80027c4:	4a1b      	ldr	r2, [pc, #108]	; (8002834 <MX_I2C3_Init+0x7c>)
 80027c6:	605a      	str	r2, [r3, #4]
  hi2c3.Init.OwnAddress1 = 0;
 80027c8:	4b18      	ldr	r3, [pc, #96]	; (800282c <MX_I2C3_Init+0x74>)
 80027ca:	2200      	movs	r2, #0
 80027cc:	609a      	str	r2, [r3, #8]
  hi2c3.Init.AddressingMode = I2C_ADDRESSINGMODE_7BIT;
 80027ce:	4b17      	ldr	r3, [pc, #92]	; (800282c <MX_I2C3_Init+0x74>)
 80027d0:	2201      	movs	r2, #1
 80027d2:	60da      	str	r2, [r3, #12]
  hi2c3.Init.DualAddressMode = I2C_DUALADDRESS_DISABLE;
 80027d4:	4b15      	ldr	r3, [pc, #84]	; (800282c <MX_I2C3_Init+0x74>)
 80027d6:	2200      	movs	r2, #0
 80027d8:	611a      	str	r2, [r3, #16]
  hi2c3.Init.OwnAddress2 = 0;
 80027da:	4b14      	ldr	r3, [pc, #80]	; (800282c <MX_I2C3_Init+0x74>)
 80027dc:	2200      	movs	r2, #0
 80027de:	615a      	str	r2, [r3, #20]
  hi2c3.Init.OwnAddress2Masks = I2C_OA2_NOMASK;
 80027e0:	4b12      	ldr	r3, [pc, #72]	; (800282c <MX_I2C3_Init+0x74>)
 80027e2:	2200      	movs	r2, #0
 80027e4:	619a      	str	r2, [r3, #24]
  hi2c3.Init.GeneralCallMode = I2C_GENERALCALL_DISABLE;
 80027e6:	4b11      	ldr	r3, [pc, #68]	; (800282c <MX_I2C3_Init+0x74>)
 80027e8:	2200      	movs	r2, #0
 80027ea:	61da      	str	r2, [r3, #28]
  hi2c3.Init.NoStretchMode = I2C_NOSTRETCH_DISABLE;
 80027ec:	4b0f      	ldr	r3, [pc, #60]	; (800282c <MX_I2C3_Init+0x74>)
 80027ee:	2200      	movs	r2, #0
 80027f0:	621a      	str	r2, [r3, #32]
  if (HAL_I2C_Init(&hi2c3) != HAL_OK)
 80027f2:	480e      	ldr	r0, [pc, #56]	; (800282c <MX_I2C3_Init+0x74>)
 80027f4:	f001 fa50 	bl	8003c98 <HAL_I2C_Init>
 80027f8:	4603      	mov	r3, r0
 80027fa:	2b00      	cmp	r3, #0
 80027fc:	d001      	beq.n	8002802 <MX_I2C3_Init+0x4a>
  {
    Error_Handler();
 80027fe:	f000 f964 	bl	8002aca <Error_Handler>
  }
  /** Configure Analogue filter
  */
  if (HAL_I2CEx_ConfigAnalogFilter(&hi2c3, I2C_ANALOGFILTER_ENABLE) != HAL_OK)
 8002802:	2100      	movs	r1, #0
 8002804:	4809      	ldr	r0, [pc, #36]	; (800282c <MX_I2C3_Init+0x74>)
 8002806:	f001 fdb3 	bl	8004370 <HAL_I2CEx_ConfigAnalogFilter>
 800280a:	4603      	mov	r3, r0
 800280c:	2b00      	cmp	r3, #0
 800280e:	d001      	beq.n	8002814 <MX_I2C3_Init+0x5c>
  {
    Error_Handler();
 8002810:	f000 f95b 	bl	8002aca <Error_Handler>
  }
  /** Configure Digital filter
  */
  if (HAL_I2CEx_ConfigDigitalFilter(&hi2c3, 0) != HAL_OK)
 8002814:	2100      	movs	r1, #0
 8002816:	4805      	ldr	r0, [pc, #20]	; (800282c <MX_I2C3_Init+0x74>)
 8002818:	f001 fdf5 	bl	8004406 <HAL_I2CEx_ConfigDigitalFilter>
 800281c:	4603      	mov	r3, r0
 800281e:	2b00      	cmp	r3, #0
 8002820:	d001      	beq.n	8002826 <MX_I2C3_Init+0x6e>
  {
    Error_Handler();
 8002822:	f000 f952 	bl	8002aca <Error_Handler>
  }

}
 8002826:	bf00      	nop
 8002828:	bd80      	pop	{r7, pc}
 800282a:	bf00      	nop
 800282c:	2000093c 	.word	0x2000093c
 8002830:	40005c00 	.word	0x40005c00
 8002834:	10909cec 	.word	0x10909cec

08002838 <HAL_I2C_MspInit>:

void HAL_I2C_MspInit(I2C_HandleTypeDef* i2cHandle)
{
 8002838:	b580      	push	{r7, lr}
 800283a:	b08a      	sub	sp, #40	; 0x28
 800283c:	af00      	add	r7, sp, #0
 800283e:	6078      	str	r0, [r7, #4]

  GPIO_InitTypeDef GPIO_InitStruct = {0};
 8002840:	f107 0314 	add.w	r3, r7, #20
 8002844:	2200      	movs	r2, #0
 8002846:	601a      	str	r2, [r3, #0]
 8002848:	605a      	str	r2, [r3, #4]
 800284a:	609a      	str	r2, [r3, #8]
 800284c:	60da      	str	r2, [r3, #12]
 800284e:	611a      	str	r2, [r3, #16]
  if(i2cHandle->Instance==I2C3)
 8002850:	687b      	ldr	r3, [r7, #4]
 8002852:	681b      	ldr	r3, [r3, #0]
 8002854:	4a17      	ldr	r2, [pc, #92]	; (80028b4 <HAL_I2C_MspInit+0x7c>)
 8002856:	4293      	cmp	r3, r2
 8002858:	d127      	bne.n	80028aa <HAL_I2C_MspInit+0x72>
  {
  /* USER CODE BEGIN I2C3_MspInit 0 */

  /* USER CODE END I2C3_MspInit 0 */

    __HAL_RCC_GPIOC_CLK_ENABLE();
 800285a:	4b17      	ldr	r3, [pc, #92]	; (80028b8 <HAL_I2C_MspInit+0x80>)
 800285c:	6cdb      	ldr	r3, [r3, #76]	; 0x4c
 800285e:	4a16      	ldr	r2, [pc, #88]	; (80028b8 <HAL_I2C_MspInit+0x80>)
 8002860:	f043 0304 	orr.w	r3, r3, #4
 8002864:	64d3      	str	r3, [r2, #76]	; 0x4c
 8002866:	4b14      	ldr	r3, [pc, #80]	; (80028b8 <HAL_I2C_MspInit+0x80>)
 8002868:	6cdb      	ldr	r3, [r3, #76]	; 0x4c
 800286a:	f003 0304 	and.w	r3, r3, #4
 800286e:	613b      	str	r3, [r7, #16]
 8002870:	693b      	ldr	r3, [r7, #16]
    /**I2C3 GPIO Configuration
    PC0     ------> I2C3_SCL
    PC1     ------> I2C3_SDA
    */
    GPIO_InitStruct.Pin = GPIO_PIN_0|GPIO_PIN_1;
 8002872:	2303      	movs	r3, #3
 8002874:	617b      	str	r3, [r7, #20]
    GPIO_InitStruct.Mode = GPIO_MODE_AF_OD;
 8002876:	2312      	movs	r3, #18
 8002878:	61bb      	str	r3, [r7, #24]
    GPIO_InitStruct.Pull = GPIO_PULLUP;
 800287a:	2301      	movs	r3, #1
 800287c:	61fb      	str	r3, [r7, #28]
    GPIO_InitStruct.Speed = GPIO_SPEED_FREQ_VERY_HIGH;
 800287e:	2303      	movs	r3, #3
 8002880:	623b      	str	r3, [r7, #32]
    GPIO_InitStruct.Alternate = GPIO_AF4_I2C3;
 8002882:	2304      	movs	r3, #4
 8002884:	627b      	str	r3, [r7, #36]	; 0x24
    HAL_GPIO_Init(GPIOC, &GPIO_InitStruct);
 8002886:	f107 0314 	add.w	r3, r7, #20
 800288a:	4619      	mov	r1, r3
 800288c:	480b      	ldr	r0, [pc, #44]	; (80028bc <HAL_I2C_MspInit+0x84>)
 800288e:	f000 fff9 	bl	8003884 <HAL_GPIO_Init>

    /* I2C3 clock enable */
    __HAL_RCC_I2C3_CLK_ENABLE();
 8002892:	4b09      	ldr	r3, [pc, #36]	; (80028b8 <HAL_I2C_MspInit+0x80>)
 8002894:	6d9b      	ldr	r3, [r3, #88]	; 0x58
 8002896:	4a08      	ldr	r2, [pc, #32]	; (80028b8 <HAL_I2C_MspInit+0x80>)
 8002898:	f443 0300 	orr.w	r3, r3, #8388608	; 0x800000
 800289c:	6593      	str	r3, [r2, #88]	; 0x58
 800289e:	4b06      	ldr	r3, [pc, #24]	; (80028b8 <HAL_I2C_MspInit+0x80>)
 80028a0:	6d9b      	ldr	r3, [r3, #88]	; 0x58
 80028a2:	f403 0300 	and.w	r3, r3, #8388608	; 0x800000
 80028a6:	60fb      	str	r3, [r7, #12]
 80028a8:	68fb      	ldr	r3, [r7, #12]
  /* USER CODE BEGIN I2C3_MspInit 1 */

  /* USER CODE END I2C3_MspInit 1 */
  }
}
 80028aa:	bf00      	nop
 80028ac:	3728      	adds	r7, #40	; 0x28
 80028ae:	46bd      	mov	sp, r7
 80028b0:	bd80      	pop	{r7, pc}
 80028b2:	bf00      	nop
 80028b4:	40005c00 	.word	0x40005c00
 80028b8:	40021000 	.word	0x40021000
 80028bc:	48000800 	.word	0x48000800

080028c0 <main>:
/**
  * @brief  The application entry point.
  * @retval int
  */
int main(void)
{
 80028c0:	b580      	push	{r7, lr}
 80028c2:	af00      	add	r7, sp, #0
  /* USER CODE END 1 */

  /* MCU Configuration--------------------------------------------------------*/

  /* Reset of all peripherals, Initializes the Flash interface and the Systick. */
  HAL_Init();
 80028c4:	f000 fb75 	bl	8002fb2 <HAL_Init>
  /* USER CODE BEGIN Init */

  /* USER CODE END Init */

  /* Configure the system clock */
  SystemClock_Config();
 80028c8:	f000 f88c 	bl	80029e4 <SystemClock_Config>
  /* USER CODE BEGIN SysInit */

  /* USER CODE END SysInit */

  /* Initialize all configured peripherals */
  MX_GPIO_Init();
 80028cc:	f7ff fe42 	bl	8002554 <MX_GPIO_Init>
  MX_TIM2_Init();
 80028d0:	f000 f9e8 	bl	8002ca4 <MX_TIM2_Init>
  MX_TIM3_Init();
 80028d4:	f000 fa5e 	bl	8002d94 <MX_TIM3_Init>
  MX_I2C3_Init();
 80028d8:	f7ff ff6e 	bl	80027b8 <MX_I2C3_Init>
  /* USER CODE BEGIN 2 */

  //snprintf(PC_GUI_message, 200, "System Clock = %lu\n",  SystemCoreClock);					// debug only
  //HAL_UART_Transmit(&huart2, (unsigned char*)PC_GUI_message, strlen(PC_GUI_message), 100);	// debug only

  HAL_Delay(300);
 80028dc:	f44f 7096 	mov.w	r0, #300	; 0x12c
 80028e0:	f000 fbdc 	bl	800309c <HAL_Delay>

  // start screen
  ssd1306_Init();
 80028e4:	f004 f9bc 	bl	8006c60 <ssd1306_Init>
  ssd1306_Fill(Black);
 80028e8:	2000      	movs	r0, #0
 80028ea:	f004 fa27 	bl	8006d3c <ssd1306_Fill>
  ssd1306_SetCursor(0, 0);
 80028ee:	2100      	movs	r1, #0
 80028f0:	2000      	movs	r0, #0
 80028f2:	f004 fb71 	bl	8006fd8 <ssd1306_SetCursor>
  ssd1306_WriteString("       TMD", Font_7x10, White);
 80028f6:	4a2e      	ldr	r2, [pc, #184]	; (80029b0 <main+0xf0>)
 80028f8:	2301      	movs	r3, #1
 80028fa:	ca06      	ldmia	r2, {r1, r2}
 80028fc:	482d      	ldr	r0, [pc, #180]	; (80029b4 <main+0xf4>)
 80028fe:	f004 fb45 	bl	8006f8c <ssd1306_WriteString>
  ssd1306_SetCursor(0, 10);
 8002902:	210a      	movs	r1, #10
 8002904:	2000      	movs	r0, #0
 8002906:	f004 fb67 	bl	8006fd8 <ssd1306_SetCursor>
  ssd1306_WriteString("   Technologies", Font_7x10, White);
 800290a:	4a29      	ldr	r2, [pc, #164]	; (80029b0 <main+0xf0>)
 800290c:	2301      	movs	r3, #1
 800290e:	ca06      	ldmia	r2, {r1, r2}
 8002910:	4829      	ldr	r0, [pc, #164]	; (80029b8 <main+0xf8>)
 8002912:	f004 fb3b 	bl	8006f8c <ssd1306_WriteString>
  ssd1306_SetCursor(0, 24);
 8002916:	2118      	movs	r1, #24
 8002918:	2000      	movs	r0, #0
 800291a:	f004 fb5d 	bl	8006fd8 <ssd1306_SetCursor>
  ssd1306_WriteString("  PATTERN", Font_11x18, White);
 800291e:	4a27      	ldr	r2, [pc, #156]	; (80029bc <main+0xfc>)
 8002920:	2301      	movs	r3, #1
 8002922:	ca06      	ldmia	r2, {r1, r2}
 8002924:	4826      	ldr	r0, [pc, #152]	; (80029c0 <main+0x100>)
 8002926:	f004 fb31 	bl	8006f8c <ssd1306_WriteString>
  ssd1306_SetCursor(0, 44);
 800292a:	212c      	movs	r1, #44	; 0x2c
 800292c:	2000      	movs	r0, #0
 800292e:	f004 fb53 	bl	8006fd8 <ssd1306_SetCursor>
  ssd1306_WriteString(" GENERATOR", Font_11x18, White);
 8002932:	4a22      	ldr	r2, [pc, #136]	; (80029bc <main+0xfc>)
 8002934:	2301      	movs	r3, #1
 8002936:	ca06      	ldmia	r2, {r1, r2}
 8002938:	4822      	ldr	r0, [pc, #136]	; (80029c4 <main+0x104>)
 800293a:	f004 fb27 	bl	8006f8c <ssd1306_WriteString>
  ssd1306_UpdateScreen();
 800293e:	f004 fa1f 	bl	8006d80 <ssd1306_UpdateScreen>
  HAL_Delay(2500);
 8002942:	f640 10c4 	movw	r0, #2500	; 0x9c4
 8002946:	f000 fba9 	bl	800309c <HAL_Delay>

  InitDataInFlashSettings();
 800294a:	f7fe feb7 	bl	80016bc <InitDataInFlashSettings>
  FrequencyCalibrationFactor = ReadFrequencyCalibrationFactorFromFlash();
 800294e:	f7fe ff0f 	bl	8001770 <ReadFrequencyCalibrationFactorFromFlash>
 8002952:	eef0 7a40 	vmov.f32	s15, s0
 8002956:	4b1c      	ldr	r3, [pc, #112]	; (80029c8 <main+0x108>)
 8002958:	edc3 7a00 	vstr	s15, [r3]
  PulseWidthOffset = ReadPulseWidthOffsetFromFlash();
 800295c:	f7fe ff48 	bl	80017f0 <ReadPulseWidthOffsetFromFlash>
 8002960:	eef0 7a40 	vmov.f32	s15, s0
 8002964:	4b19      	ldr	r3, [pc, #100]	; (80029cc <main+0x10c>)
 8002966:	edc3 7a00 	vstr	s15, [r3]
  InitPatternGenerator();
 800296a:	f7ff fc49 	bl	8002200 <InitPatternGenerator>
  OLED_Update_Display_Case(OLEDDisplayState); //current case
 800296e:	4b18      	ldr	r3, [pc, #96]	; (80029d0 <main+0x110>)
 8002970:	781b      	ldrb	r3, [r3, #0]
 8002972:	4618      	mov	r0, r3
 8002974:	f7fe f9d0 	bl	8000d18 <OLED_Update_Display_Case>


  HAL_TIM_PWM_Start(&htim2, TIM_CHANNEL_1);
 8002978:	2100      	movs	r1, #0
 800297a:	4816      	ldr	r0, [pc, #88]	; (80029d4 <main+0x114>)
 800297c:	f003 f9ae 	bl	8005cdc <HAL_TIM_PWM_Start>
  HAL_TIM_Base_Start_IT(&htim3);
 8002980:	4815      	ldr	r0, [pc, #84]	; (80029d8 <main+0x118>)
 8002982:	f003 f8ab 	bl	8005adc <HAL_TIM_Base_Start_IT>
//	SystemCoreClockUpdate(); // Updates SystemCoreClock according to register settings. This function must be called if clock settings has been changed. Be aware that a value stored to SystemCoreClock during low level initialisation (i.e. SystemInit()) might get overwritten by C library startup code and/or .bss section initialization. Thus its highly recommended to call SystemCoreClockUpdate at the beginning of the user main() routine.
//	SysTick_Config(SystemCoreClock/1000); // SystemCoreClock - global variable that contains the system frequency. Configure SysTick to generate an interrupt timing (it will produce the same interval for any clock speed). SysTick can be used for timing if it is not used for operating system.  /1000 gives SysTick every 1ms, /100 gives SysTick every 10 ms

  while (1)
  {
	HAL_GPIO_TogglePin(GPIOA, GPIO_PIN_5);
 8002986:	2120      	movs	r1, #32
 8002988:	f04f 4090 	mov.w	r0, #1207959552	; 0x48000000
 800298c:	f001 f952 	bl	8003c34 <HAL_GPIO_TogglePin>
	HAL_Delay(100);
 8002990:	2064      	movs	r0, #100	; 0x64
 8002992:	f000 fb83 	bl	800309c <HAL_Delay>

    if(FrequencyCalibrationModeFlag)
 8002996:	4b11      	ldr	r3, [pc, #68]	; (80029dc <main+0x11c>)
 8002998:	781b      	ldrb	r3, [r3, #0]
 800299a:	2b00      	cmp	r3, #0
 800299c:	d001      	beq.n	80029a2 <main+0xe2>
    {
    	Freq_Calibration_Mode();
 800299e:	f7ff f80f 	bl	80019c0 <Freq_Calibration_Mode>
    }

    if(PulseOffsetAdjustmentModeFlag)
 80029a2:	4b0f      	ldr	r3, [pc, #60]	; (80029e0 <main+0x120>)
 80029a4:	781b      	ldrb	r3, [r3, #0]
 80029a6:	2b00      	cmp	r3, #0
 80029a8:	d0ed      	beq.n	8002986 <main+0xc6>
    {
    	Pulse_Adjustment_Mode();
 80029aa:	f7ff f9cd 	bl	8001d48 <Pulse_Adjustment_Mode>
	HAL_GPIO_TogglePin(GPIOA, GPIO_PIN_5);
 80029ae:	e7ea      	b.n	8002986 <main+0xc6>
 80029b0:	200002e0 	.word	0x200002e0
 80029b4:	08009548 	.word	0x08009548
 80029b8:	08009554 	.word	0x08009554
 80029bc:	200002e8 	.word	0x200002e8
 80029c0:	08009564 	.word	0x08009564
 80029c4:	08009570 	.word	0x08009570
 80029c8:	20000924 	.word	0x20000924
 80029cc:	20000934 	.word	0x20000934
 80029d0:	20000000 	.word	0x20000000
 80029d4:	200009d4 	.word	0x200009d4
 80029d8:	20000988 	.word	0x20000988
 80029dc:	20000921 	.word	0x20000921
 80029e0:	20000920 	.word	0x20000920

080029e4 <SystemClock_Config>:
/**
  * @brief System Clock Configuration
  * @retval None
  */
void SystemClock_Config(void)
{
 80029e4:	b580      	push	{r7, lr}
 80029e6:	b0b8      	sub	sp, #224	; 0xe0
 80029e8:	af00      	add	r7, sp, #0
  RCC_OscInitTypeDef RCC_OscInitStruct = {0};
 80029ea:	f107 039c 	add.w	r3, r7, #156	; 0x9c
 80029ee:	2244      	movs	r2, #68	; 0x44
 80029f0:	2100      	movs	r1, #0
 80029f2:	4618      	mov	r0, r3
 80029f4:	f004 fb4b 	bl	800708e <memset>
  RCC_ClkInitTypeDef RCC_ClkInitStruct = {0};
 80029f8:	f107 0388 	add.w	r3, r7, #136	; 0x88
 80029fc:	2200      	movs	r2, #0
 80029fe:	601a      	str	r2, [r3, #0]
 8002a00:	605a      	str	r2, [r3, #4]
 8002a02:	609a      	str	r2, [r3, #8]
 8002a04:	60da      	str	r2, [r3, #12]
 8002a06:	611a      	str	r2, [r3, #16]
  RCC_PeriphCLKInitTypeDef PeriphClkInit = {0};
 8002a08:	463b      	mov	r3, r7
 8002a0a:	2288      	movs	r2, #136	; 0x88
 8002a0c:	2100      	movs	r1, #0
 8002a0e:	4618      	mov	r0, r3
 8002a10:	f004 fb3d 	bl	800708e <memset>

  /** Initializes the RCC Oscillators according to the specified parameters
  * in the RCC_OscInitTypeDef structure.
  */
  RCC_OscInitStruct.OscillatorType = RCC_OSCILLATORTYPE_HSE;
 8002a14:	2301      	movs	r3, #1
 8002a16:	f8c7 309c 	str.w	r3, [r7, #156]	; 0x9c
  RCC_OscInitStruct.HSEState = RCC_HSE_ON;
 8002a1a:	f44f 3380 	mov.w	r3, #65536	; 0x10000
 8002a1e:	f8c7 30a0 	str.w	r3, [r7, #160]	; 0xa0
  RCC_OscInitStruct.PLL.PLLState = RCC_PLL_ON;
 8002a22:	2302      	movs	r3, #2
 8002a24:	f8c7 30c4 	str.w	r3, [r7, #196]	; 0xc4
  RCC_OscInitStruct.PLL.PLLSource = RCC_PLLSOURCE_HSE;
 8002a28:	2303      	movs	r3, #3
 8002a2a:	f8c7 30c8 	str.w	r3, [r7, #200]	; 0xc8
  RCC_OscInitStruct.PLL.PLLM = 1;
 8002a2e:	2301      	movs	r3, #1
 8002a30:	f8c7 30cc 	str.w	r3, [r7, #204]	; 0xcc
  RCC_OscInitStruct.PLL.PLLN = 20;
 8002a34:	2314      	movs	r3, #20
 8002a36:	f8c7 30d0 	str.w	r3, [r7, #208]	; 0xd0
  RCC_OscInitStruct.PLL.PLLP = RCC_PLLP_DIV7;
 8002a3a:	2307      	movs	r3, #7
 8002a3c:	f8c7 30d4 	str.w	r3, [r7, #212]	; 0xd4
  RCC_OscInitStruct.PLL.PLLQ = RCC_PLLQ_DIV2;
 8002a40:	2302      	movs	r3, #2
 8002a42:	f8c7 30d8 	str.w	r3, [r7, #216]	; 0xd8
  RCC_OscInitStruct.PLL.PLLR = RCC_PLLR_DIV2;
 8002a46:	2302      	movs	r3, #2
 8002a48:	f8c7 30dc 	str.w	r3, [r7, #220]	; 0xdc
  if (HAL_RCC_OscConfig(&RCC_OscInitStruct) != HAL_OK)
 8002a4c:	f107 039c 	add.w	r3, r7, #156	; 0x9c
 8002a50:	4618      	mov	r0, r3
 8002a52:	f001 fd89 	bl	8004568 <HAL_RCC_OscConfig>
 8002a56:	4603      	mov	r3, r0
 8002a58:	2b00      	cmp	r3, #0
 8002a5a:	d001      	beq.n	8002a60 <SystemClock_Config+0x7c>
  {
    Error_Handler();
 8002a5c:	f000 f835 	bl	8002aca <Error_Handler>
  }
  /** Initializes the CPU, AHB and APB buses clocks
  */
  RCC_ClkInitStruct.ClockType = RCC_CLOCKTYPE_HCLK|RCC_CLOCKTYPE_SYSCLK
 8002a60:	230f      	movs	r3, #15
 8002a62:	f8c7 3088 	str.w	r3, [r7, #136]	; 0x88
                              |RCC_CLOCKTYPE_PCLK1|RCC_CLOCKTYPE_PCLK2;
  RCC_ClkInitStruct.SYSCLKSource = RCC_SYSCLKSOURCE_PLLCLK;
 8002a66:	2303      	movs	r3, #3
 8002a68:	f8c7 308c 	str.w	r3, [r7, #140]	; 0x8c
  RCC_ClkInitStruct.AHBCLKDivider = RCC_SYSCLK_DIV1;
 8002a6c:	2300      	movs	r3, #0
 8002a6e:	f8c7 3090 	str.w	r3, [r7, #144]	; 0x90
  RCC_ClkInitStruct.APB1CLKDivider = RCC_HCLK_DIV1;
 8002a72:	2300      	movs	r3, #0
 8002a74:	f8c7 3094 	str.w	r3, [r7, #148]	; 0x94
  RCC_ClkInitStruct.APB2CLKDivider = RCC_HCLK_DIV1;
 8002a78:	2300      	movs	r3, #0
 8002a7a:	f8c7 3098 	str.w	r3, [r7, #152]	; 0x98

  if (HAL_RCC_ClockConfig(&RCC_ClkInitStruct, FLASH_LATENCY_4) != HAL_OK)
 8002a7e:	f107 0388 	add.w	r3, r7, #136	; 0x88
 8002a82:	2104      	movs	r1, #4
 8002a84:	4618      	mov	r0, r3
 8002a86:	f002 f955 	bl	8004d34 <HAL_RCC_ClockConfig>
 8002a8a:	4603      	mov	r3, r0
 8002a8c:	2b00      	cmp	r3, #0
 8002a8e:	d001      	beq.n	8002a94 <SystemClock_Config+0xb0>
  {
    Error_Handler();
 8002a90:	f000 f81b 	bl	8002aca <Error_Handler>
  }
  PeriphClkInit.PeriphClockSelection = RCC_PERIPHCLK_I2C3;
 8002a94:	f44f 7380 	mov.w	r3, #256	; 0x100
 8002a98:	603b      	str	r3, [r7, #0]
  PeriphClkInit.I2c3ClockSelection = RCC_I2C3CLKSOURCE_PCLK1;
 8002a9a:	2300      	movs	r3, #0
 8002a9c:	65bb      	str	r3, [r7, #88]	; 0x58
  if (HAL_RCCEx_PeriphCLKConfig(&PeriphClkInit) != HAL_OK)
 8002a9e:	463b      	mov	r3, r7
 8002aa0:	4618      	mov	r0, r3
 8002aa2:	f002 fb13 	bl	80050cc <HAL_RCCEx_PeriphCLKConfig>
 8002aa6:	4603      	mov	r3, r0
 8002aa8:	2b00      	cmp	r3, #0
 8002aaa:	d001      	beq.n	8002ab0 <SystemClock_Config+0xcc>
  {
    Error_Handler();
 8002aac:	f000 f80d 	bl	8002aca <Error_Handler>
  }
  /** Configure the main internal regulator output voltage
  */
  if (HAL_PWREx_ControlVoltageScaling(PWR_REGULATOR_VOLTAGE_SCALE1) != HAL_OK)
 8002ab0:	f44f 7000 	mov.w	r0, #512	; 0x200
 8002ab4:	f001 fd02 	bl	80044bc <HAL_PWREx_ControlVoltageScaling>
 8002ab8:	4603      	mov	r3, r0
 8002aba:	2b00      	cmp	r3, #0
 8002abc:	d001      	beq.n	8002ac2 <SystemClock_Config+0xde>
  {
    Error_Handler();
 8002abe:	f000 f804 	bl	8002aca <Error_Handler>
  }
}
 8002ac2:	bf00      	nop
 8002ac4:	37e0      	adds	r7, #224	; 0xe0
 8002ac6:	46bd      	mov	sp, r7
 8002ac8:	bd80      	pop	{r7, pc}

08002aca <Error_Handler>:
/**
  * @brief  This function is executed in case of error occurrence.
  * @retval None
  */
void Error_Handler(void)
{
 8002aca:	b480      	push	{r7}
 8002acc:	af00      	add	r7, sp, #0
  /* USER CODE BEGIN Error_Handler_Debug */
  /* User can add his own implementation to report the HAL error return state */

  /* USER CODE END Error_Handler_Debug */
}
 8002ace:	bf00      	nop
 8002ad0:	46bd      	mov	sp, r7
 8002ad2:	f85d 7b04 	ldr.w	r7, [sp], #4
 8002ad6:	4770      	bx	lr

08002ad8 <HAL_MspInit>:
/* USER CODE END 0 */
/**
  * Initializes the Global MSP.
  */
void HAL_MspInit(void)
{
 8002ad8:	b580      	push	{r7, lr}
 8002ada:	b082      	sub	sp, #8
 8002adc:	af00      	add	r7, sp, #0
  /* USER CODE BEGIN MspInit 0 */

  /* USER CODE END MspInit 0 */

  __HAL_RCC_SYSCFG_CLK_ENABLE();
 8002ade:	4b17      	ldr	r3, [pc, #92]	; (8002b3c <HAL_MspInit+0x64>)
 8002ae0:	6e1b      	ldr	r3, [r3, #96]	; 0x60
 8002ae2:	4a16      	ldr	r2, [pc, #88]	; (8002b3c <HAL_MspInit+0x64>)
 8002ae4:	f043 0301 	orr.w	r3, r3, #1
 8002ae8:	6613      	str	r3, [r2, #96]	; 0x60
 8002aea:	4b14      	ldr	r3, [pc, #80]	; (8002b3c <HAL_MspInit+0x64>)
 8002aec:	6e1b      	ldr	r3, [r3, #96]	; 0x60
 8002aee:	f003 0301 	and.w	r3, r3, #1
 8002af2:	607b      	str	r3, [r7, #4]
 8002af4:	687b      	ldr	r3, [r7, #4]
  __HAL_RCC_PWR_CLK_ENABLE();
 8002af6:	4b11      	ldr	r3, [pc, #68]	; (8002b3c <HAL_MspInit+0x64>)
 8002af8:	6d9b      	ldr	r3, [r3, #88]	; 0x58
 8002afa:	4a10      	ldr	r2, [pc, #64]	; (8002b3c <HAL_MspInit+0x64>)
 8002afc:	f043 5380 	orr.w	r3, r3, #268435456	; 0x10000000
 8002b00:	6593      	str	r3, [r2, #88]	; 0x58
 8002b02:	4b0e      	ldr	r3, [pc, #56]	; (8002b3c <HAL_MspInit+0x64>)
 8002b04:	6d9b      	ldr	r3, [r3, #88]	; 0x58
 8002b06:	f003 5380 	and.w	r3, r3, #268435456	; 0x10000000
 8002b0a:	603b      	str	r3, [r7, #0]
 8002b0c:	683b      	ldr	r3, [r7, #0]

  /* System interrupt init*/
  /* SVCall_IRQn interrupt configuration */
  HAL_NVIC_SetPriority(SVCall_IRQn, 1, 0);
 8002b0e:	2200      	movs	r2, #0
 8002b10:	2101      	movs	r1, #1
 8002b12:	f06f 0004 	mvn.w	r0, #4
 8002b16:	f000 fbe0 	bl	80032da <HAL_NVIC_SetPriority>
  /* DebugMonitor_IRQn interrupt configuration */
  HAL_NVIC_SetPriority(DebugMonitor_IRQn, 1, 0);
 8002b1a:	2200      	movs	r2, #0
 8002b1c:	2101      	movs	r1, #1
 8002b1e:	f06f 0003 	mvn.w	r0, #3
 8002b22:	f000 fbda 	bl	80032da <HAL_NVIC_SetPriority>
  /* PendSV_IRQn interrupt configuration */
  HAL_NVIC_SetPriority(PendSV_IRQn, 1, 0);
 8002b26:	2200      	movs	r2, #0
 8002b28:	2101      	movs	r1, #1
 8002b2a:	f06f 0001 	mvn.w	r0, #1
 8002b2e:	f000 fbd4 	bl	80032da <HAL_NVIC_SetPriority>

  /* USER CODE BEGIN MspInit 1 */

  /* USER CODE END MspInit 1 */
}
 8002b32:	bf00      	nop
 8002b34:	3708      	adds	r7, #8
 8002b36:	46bd      	mov	sp, r7
 8002b38:	bd80      	pop	{r7, pc}
 8002b3a:	bf00      	nop
 8002b3c:	40021000 	.word	0x40021000

08002b40 <NMI_Handler>:
/******************************************************************************/
/**
  * @brief This function handles Non maskable interrupt.
  */
void NMI_Handler(void)
{
 8002b40:	b480      	push	{r7}
 8002b42:	af00      	add	r7, sp, #0

  /* USER CODE END NonMaskableInt_IRQn 0 */
  /* USER CODE BEGIN NonMaskableInt_IRQn 1 */

  /* USER CODE END NonMaskableInt_IRQn 1 */
}
 8002b44:	bf00      	nop
 8002b46:	46bd      	mov	sp, r7
 8002b48:	f85d 7b04 	ldr.w	r7, [sp], #4
 8002b4c:	4770      	bx	lr

08002b4e <HardFault_Handler>:

/**
  * @brief This function handles Hard fault interrupt.
  */
void HardFault_Handler(void)
{
 8002b4e:	b480      	push	{r7}
 8002b50:	af00      	add	r7, sp, #0
  /* USER CODE BEGIN HardFault_IRQn 0 */

  /* USER CODE END HardFault_IRQn 0 */
  while (1)
 8002b52:	e7fe      	b.n	8002b52 <HardFault_Handler+0x4>

08002b54 <MemManage_Handler>:

/**
  * @brief This function handles Memory management fault.
  */
void MemManage_Handler(void)
{
 8002b54:	b480      	push	{r7}
 8002b56:	af00      	add	r7, sp, #0
  /* USER CODE BEGIN MemoryManagement_IRQn 0 */

  /* USER CODE END MemoryManagement_IRQn 0 */
  while (1)
 8002b58:	e7fe      	b.n	8002b58 <MemManage_Handler+0x4>

08002b5a <BusFault_Handler>:

/**
  * @brief This function handles Prefetch fault, memory access fault.
  */
void BusFault_Handler(void)
{
 8002b5a:	b480      	push	{r7}
 8002b5c:	af00      	add	r7, sp, #0
  /* USER CODE BEGIN BusFault_IRQn 0 */

  /* USER CODE END BusFault_IRQn 0 */
  while (1)
 8002b5e:	e7fe      	b.n	8002b5e <BusFault_Handler+0x4>

08002b60 <UsageFault_Handler>:

/**
  * @brief This function handles Undefined instruction or illegal state.
  */
void UsageFault_Handler(void)
{
 8002b60:	b480      	push	{r7}
 8002b62:	af00      	add	r7, sp, #0
  /* USER CODE BEGIN UsageFault_IRQn 0 */

  /* USER CODE END UsageFault_IRQn 0 */
  while (1)
 8002b64:	e7fe      	b.n	8002b64 <UsageFault_Handler+0x4>

08002b66 <SVC_Handler>:

/**
  * @brief This function handles System service call via SWI instruction.
  */
void SVC_Handler(void)
{
 8002b66:	b480      	push	{r7}
 8002b68:	af00      	add	r7, sp, #0

  /* USER CODE END SVCall_IRQn 0 */
  /* USER CODE BEGIN SVCall_IRQn 1 */

  /* USER CODE END SVCall_IRQn 1 */
}
 8002b6a:	bf00      	nop
 8002b6c:	46bd      	mov	sp, r7
 8002b6e:	f85d 7b04 	ldr.w	r7, [sp], #4
 8002b72:	4770      	bx	lr

08002b74 <DebugMon_Handler>:

/**
  * @brief This function handles Debug monitor.
  */
void DebugMon_Handler(void)
{
 8002b74:	b480      	push	{r7}
 8002b76:	af00      	add	r7, sp, #0

  /* USER CODE END DebugMonitor_IRQn 0 */
  /* USER CODE BEGIN DebugMonitor_IRQn 1 */

  /* USER CODE END DebugMonitor_IRQn 1 */
}
 8002b78:	bf00      	nop
 8002b7a:	46bd      	mov	sp, r7
 8002b7c:	f85d 7b04 	ldr.w	r7, [sp], #4
 8002b80:	4770      	bx	lr

08002b82 <PendSV_Handler>:

/**
  * @brief This function handles Pendable request for system service.
  */
void PendSV_Handler(void)
{
 8002b82:	b480      	push	{r7}
 8002b84:	af00      	add	r7, sp, #0

  /* USER CODE END PendSV_IRQn 0 */
  /* USER CODE BEGIN PendSV_IRQn 1 */

  /* USER CODE END PendSV_IRQn 1 */
}
 8002b86:	bf00      	nop
 8002b88:	46bd      	mov	sp, r7
 8002b8a:	f85d 7b04 	ldr.w	r7, [sp], #4
 8002b8e:	4770      	bx	lr

08002b90 <SysTick_Handler>:

/**
  * @brief This function handles System tick timer.
  */
void SysTick_Handler(void)
{
 8002b90:	b580      	push	{r7, lr}
 8002b92:	af00      	add	r7, sp, #0
  /* USER CODE BEGIN SysTick_IRQn 0 */

  /* USER CODE END SysTick_IRQn 0 */
  HAL_IncTick();
 8002b94:	f000 fa62 	bl	800305c <HAL_IncTick>
  /* USER CODE BEGIN SysTick_IRQn 1 */

  /* USER CODE END SysTick_IRQn 1 */
}
 8002b98:	bf00      	nop
 8002b9a:	bd80      	pop	{r7, pc}

08002b9c <EXTI9_5_IRQHandler>:

/**
  * @brief This function handles EXTI line[9:5] interrupts.
  */
void EXTI9_5_IRQHandler(void)
{
 8002b9c:	b580      	push	{r7, lr}
 8002b9e:	af00      	add	r7, sp, #0
  /* USER CODE BEGIN EXTI9_5_IRQn 0 */

  /* USER CODE END EXTI9_5_IRQn 0 */
  HAL_GPIO_EXTI_IRQHandler(GPIO_PIN_6);
 8002ba0:	2040      	movs	r0, #64	; 0x40
 8002ba2:	f001 f861 	bl	8003c68 <HAL_GPIO_EXTI_IRQHandler>
  HAL_GPIO_EXTI_IRQHandler(GPIO_PIN_8);
 8002ba6:	f44f 7080 	mov.w	r0, #256	; 0x100
 8002baa:	f001 f85d 	bl	8003c68 <HAL_GPIO_EXTI_IRQHandler>
  /* USER CODE BEGIN EXTI9_5_IRQn 1 */

  /* USER CODE END EXTI9_5_IRQn 1 */
}
 8002bae:	bf00      	nop
 8002bb0:	bd80      	pop	{r7, pc}

08002bb2 <EXTI15_10_IRQHandler>:

/**
  * @brief This function handles EXTI line[15:10] interrupts.
  */
void EXTI15_10_IRQHandler(void)
{
 8002bb2:	b580      	push	{r7, lr}
 8002bb4:	af00      	add	r7, sp, #0
  /* USER CODE BEGIN EXTI15_10_IRQn 0 */

  /* USER CODE END EXTI15_10_IRQn 0 */
  HAL_GPIO_EXTI_IRQHandler(GPIO_PIN_11);
 8002bb6:	f44f 6000 	mov.w	r0, #2048	; 0x800
 8002bba:	f001 f855 	bl	8003c68 <HAL_GPIO_EXTI_IRQHandler>
  HAL_GPIO_EXTI_IRQHandler(GPIO_PIN_13);
 8002bbe:	f44f 5000 	mov.w	r0, #8192	; 0x2000
 8002bc2:	f001 f851 	bl	8003c68 <HAL_GPIO_EXTI_IRQHandler>
  /* USER CODE BEGIN EXTI15_10_IRQn 1 */

  /* USER CODE END EXTI15_10_IRQn 1 */
}
 8002bc6:	bf00      	nop
 8002bc8:	bd80      	pop	{r7, pc}
	...

08002bcc <_sbrk>:
 *
 * @param incr Memory size
 * @return Pointer to allocated memory
 */
void *_sbrk(ptrdiff_t incr)
{
 8002bcc:	b580      	push	{r7, lr}
 8002bce:	b086      	sub	sp, #24
 8002bd0:	af00      	add	r7, sp, #0
 8002bd2:	6078      	str	r0, [r7, #4]
  extern uint8_t _end; /* Symbol defined in the linker script */
  extern uint8_t _estack; /* Symbol defined in the linker script */
  extern uint32_t _Min_Stack_Size; /* Symbol defined in the linker script */
  const uint32_t stack_limit = (uint32_t)&_estack - (uint32_t)&_Min_Stack_Size;
 8002bd4:	4a14      	ldr	r2, [pc, #80]	; (8002c28 <_sbrk+0x5c>)
 8002bd6:	4b15      	ldr	r3, [pc, #84]	; (8002c2c <_sbrk+0x60>)
 8002bd8:	1ad3      	subs	r3, r2, r3
 8002bda:	617b      	str	r3, [r7, #20]
  const uint8_t *max_heap = (uint8_t *)stack_limit;
 8002bdc:	697b      	ldr	r3, [r7, #20]
 8002bde:	613b      	str	r3, [r7, #16]
  uint8_t *prev_heap_end;

  /* Initalize heap end at first call */
  if (NULL == __sbrk_heap_end)
 8002be0:	4b13      	ldr	r3, [pc, #76]	; (8002c30 <_sbrk+0x64>)
 8002be2:	681b      	ldr	r3, [r3, #0]
 8002be4:	2b00      	cmp	r3, #0
 8002be6:	d102      	bne.n	8002bee <_sbrk+0x22>
  {
    __sbrk_heap_end = &_end;
 8002be8:	4b11      	ldr	r3, [pc, #68]	; (8002c30 <_sbrk+0x64>)
 8002bea:	4a12      	ldr	r2, [pc, #72]	; (8002c34 <_sbrk+0x68>)
 8002bec:	601a      	str	r2, [r3, #0]
  }

  /* Protect heap from growing into the reserved MSP stack */
  if (__sbrk_heap_end + incr > max_heap)
 8002bee:	4b10      	ldr	r3, [pc, #64]	; (8002c30 <_sbrk+0x64>)
 8002bf0:	681a      	ldr	r2, [r3, #0]
 8002bf2:	687b      	ldr	r3, [r7, #4]
 8002bf4:	4413      	add	r3, r2
 8002bf6:	693a      	ldr	r2, [r7, #16]
 8002bf8:	429a      	cmp	r2, r3
 8002bfa:	d207      	bcs.n	8002c0c <_sbrk+0x40>
  {
    errno = ENOMEM;
 8002bfc:	f004 fa04 	bl	8007008 <__errno>
 8002c00:	4602      	mov	r2, r0
 8002c02:	230c      	movs	r3, #12
 8002c04:	6013      	str	r3, [r2, #0]
    return (void *)-1;
 8002c06:	f04f 33ff 	mov.w	r3, #4294967295
 8002c0a:	e009      	b.n	8002c20 <_sbrk+0x54>
  }

  prev_heap_end = __sbrk_heap_end;
 8002c0c:	4b08      	ldr	r3, [pc, #32]	; (8002c30 <_sbrk+0x64>)
 8002c0e:	681b      	ldr	r3, [r3, #0]
 8002c10:	60fb      	str	r3, [r7, #12]
  __sbrk_heap_end += incr;
 8002c12:	4b07      	ldr	r3, [pc, #28]	; (8002c30 <_sbrk+0x64>)
 8002c14:	681a      	ldr	r2, [r3, #0]
 8002c16:	687b      	ldr	r3, [r7, #4]
 8002c18:	4413      	add	r3, r2
 8002c1a:	4a05      	ldr	r2, [pc, #20]	; (8002c30 <_sbrk+0x64>)
 8002c1c:	6013      	str	r3, [r2, #0]

  return (void *)prev_heap_end;
 8002c1e:	68fb      	ldr	r3, [r7, #12]
}
 8002c20:	4618      	mov	r0, r3
 8002c22:	3718      	adds	r7, #24
 8002c24:	46bd      	mov	sp, r7
 8002c26:	bd80      	pop	{r7, pc}
 8002c28:	20018000 	.word	0x20018000
 8002c2c:	00000400 	.word	0x00000400
 8002c30:	2000050c 	.word	0x2000050c
 8002c34:	20000a28 	.word	0x20000a28

08002c38 <SystemInit>:
  * @param  None
  * @retval None
  */

void SystemInit(void)
{
 8002c38:	b480      	push	{r7}
 8002c3a:	af00      	add	r7, sp, #0
  /* FPU settings ------------------------------------------------------------*/
  #if (__FPU_PRESENT == 1) && (__FPU_USED == 1)
    SCB->CPACR |= ((3UL << 10*2)|(3UL << 11*2));  /* set CP10 and CP11 Full Access */
 8002c3c:	4b17      	ldr	r3, [pc, #92]	; (8002c9c <SystemInit+0x64>)
 8002c3e:	f8d3 3088 	ldr.w	r3, [r3, #136]	; 0x88
 8002c42:	4a16      	ldr	r2, [pc, #88]	; (8002c9c <SystemInit+0x64>)
 8002c44:	f443 0370 	orr.w	r3, r3, #15728640	; 0xf00000
 8002c48:	f8c2 3088 	str.w	r3, [r2, #136]	; 0x88
  #endif

  /* Reset the RCC clock configuration to the default reset state ------------*/
  /* Set MSION bit */
  RCC->CR |= RCC_CR_MSION;
 8002c4c:	4b14      	ldr	r3, [pc, #80]	; (8002ca0 <SystemInit+0x68>)
 8002c4e:	681b      	ldr	r3, [r3, #0]
 8002c50:	4a13      	ldr	r2, [pc, #76]	; (8002ca0 <SystemInit+0x68>)
 8002c52:	f043 0301 	orr.w	r3, r3, #1
 8002c56:	6013      	str	r3, [r2, #0]

  /* Reset CFGR register */
  RCC->CFGR = 0x00000000U;
 8002c58:	4b11      	ldr	r3, [pc, #68]	; (8002ca0 <SystemInit+0x68>)
 8002c5a:	2200      	movs	r2, #0
 8002c5c:	609a      	str	r2, [r3, #8]

  /* Reset HSEON, CSSON , HSION, and PLLON bits */
  RCC->CR &= 0xEAF6FFFFU;
 8002c5e:	4b10      	ldr	r3, [pc, #64]	; (8002ca0 <SystemInit+0x68>)
 8002c60:	681b      	ldr	r3, [r3, #0]
 8002c62:	4a0f      	ldr	r2, [pc, #60]	; (8002ca0 <SystemInit+0x68>)
 8002c64:	f023 53a8 	bic.w	r3, r3, #352321536	; 0x15000000
 8002c68:	f423 2310 	bic.w	r3, r3, #589824	; 0x90000
 8002c6c:	6013      	str	r3, [r2, #0]

  /* Reset PLLCFGR register */
  RCC->PLLCFGR = 0x00001000U;
 8002c6e:	4b0c      	ldr	r3, [pc, #48]	; (8002ca0 <SystemInit+0x68>)
 8002c70:	f44f 5280 	mov.w	r2, #4096	; 0x1000
 8002c74:	60da      	str	r2, [r3, #12]

  /* Reset HSEBYP bit */
  RCC->CR &= 0xFFFBFFFFU;
 8002c76:	4b0a      	ldr	r3, [pc, #40]	; (8002ca0 <SystemInit+0x68>)
 8002c78:	681b      	ldr	r3, [r3, #0]
 8002c7a:	4a09      	ldr	r2, [pc, #36]	; (8002ca0 <SystemInit+0x68>)
 8002c7c:	f423 2380 	bic.w	r3, r3, #262144	; 0x40000
 8002c80:	6013      	str	r3, [r2, #0]

  /* Disable all interrupts */
  RCC->CIER = 0x00000000U;
 8002c82:	4b07      	ldr	r3, [pc, #28]	; (8002ca0 <SystemInit+0x68>)
 8002c84:	2200      	movs	r2, #0
 8002c86:	619a      	str	r2, [r3, #24]

  /* Configure the Vector Table location add offset address ------------------*/
#ifdef VECT_TAB_SRAM
  SCB->VTOR = SRAM_BASE | VECT_TAB_OFFSET; /* Vector Table Relocation in Internal SRAM */
#else
  SCB->VTOR = FLASH_BASE | VECT_TAB_OFFSET; /* Vector Table Relocation in Internal FLASH */
 8002c88:	4b04      	ldr	r3, [pc, #16]	; (8002c9c <SystemInit+0x64>)
 8002c8a:	f04f 6200 	mov.w	r2, #134217728	; 0x8000000
 8002c8e:	609a      	str	r2, [r3, #8]
#endif
}
 8002c90:	bf00      	nop
 8002c92:	46bd      	mov	sp, r7
 8002c94:	f85d 7b04 	ldr.w	r7, [sp], #4
 8002c98:	4770      	bx	lr
 8002c9a:	bf00      	nop
 8002c9c:	e000ed00 	.word	0xe000ed00
 8002ca0:	40021000 	.word	0x40021000

08002ca4 <MX_TIM2_Init>:
TIM_HandleTypeDef htim2;
TIM_HandleTypeDef htim3;

/* TIM2 init function */
void MX_TIM2_Init(void)
{
 8002ca4:	b580      	push	{r7, lr}
 8002ca6:	b08e      	sub	sp, #56	; 0x38
 8002ca8:	af00      	add	r7, sp, #0
  TIM_ClockConfigTypeDef sClockSourceConfig = {0};
 8002caa:	f107 0328 	add.w	r3, r7, #40	; 0x28
 8002cae:	2200      	movs	r2, #0
 8002cb0:	601a      	str	r2, [r3, #0]
 8002cb2:	605a      	str	r2, [r3, #4]
 8002cb4:	609a      	str	r2, [r3, #8]
 8002cb6:	60da      	str	r2, [r3, #12]
  TIM_MasterConfigTypeDef sMasterConfig = {0};
 8002cb8:	f107 031c 	add.w	r3, r7, #28
 8002cbc:	2200      	movs	r2, #0
 8002cbe:	601a      	str	r2, [r3, #0]
 8002cc0:	605a      	str	r2, [r3, #4]
 8002cc2:	609a      	str	r2, [r3, #8]
  TIM_OC_InitTypeDef sConfigOC = {0};
 8002cc4:	463b      	mov	r3, r7
 8002cc6:	2200      	movs	r2, #0
 8002cc8:	601a      	str	r2, [r3, #0]
 8002cca:	605a      	str	r2, [r3, #4]
 8002ccc:	609a      	str	r2, [r3, #8]
 8002cce:	60da      	str	r2, [r3, #12]
 8002cd0:	611a      	str	r2, [r3, #16]
 8002cd2:	615a      	str	r2, [r3, #20]
 8002cd4:	619a      	str	r2, [r3, #24]

  htim2.Instance = TIM2;
 8002cd6:	4b2d      	ldr	r3, [pc, #180]	; (8002d8c <MX_TIM2_Init+0xe8>)
 8002cd8:	f04f 4280 	mov.w	r2, #1073741824	; 0x40000000
 8002cdc:	601a      	str	r2, [r3, #0]
  htim2.Init.Prescaler = 0;
 8002cde:	4b2b      	ldr	r3, [pc, #172]	; (8002d8c <MX_TIM2_Init+0xe8>)
 8002ce0:	2200      	movs	r2, #0
 8002ce2:	605a      	str	r2, [r3, #4]
  htim2.Init.CounterMode = TIM_COUNTERMODE_UP;
 8002ce4:	4b29      	ldr	r3, [pc, #164]	; (8002d8c <MX_TIM2_Init+0xe8>)
 8002ce6:	2200      	movs	r2, #0
 8002ce8:	609a      	str	r2, [r3, #8]
  htim2.Init.Period = 94117;
 8002cea:	4b28      	ldr	r3, [pc, #160]	; (8002d8c <MX_TIM2_Init+0xe8>)
 8002cec:	4a28      	ldr	r2, [pc, #160]	; (8002d90 <MX_TIM2_Init+0xec>)
 8002cee:	60da      	str	r2, [r3, #12]
  htim2.Init.ClockDivision = TIM_CLOCKDIVISION_DIV1;
 8002cf0:	4b26      	ldr	r3, [pc, #152]	; (8002d8c <MX_TIM2_Init+0xe8>)
 8002cf2:	2200      	movs	r2, #0
 8002cf4:	611a      	str	r2, [r3, #16]
  htim2.Init.AutoReloadPreload = TIM_AUTORELOAD_PRELOAD_DISABLE;
 8002cf6:	4b25      	ldr	r3, [pc, #148]	; (8002d8c <MX_TIM2_Init+0xe8>)
 8002cf8:	2200      	movs	r2, #0
 8002cfa:	619a      	str	r2, [r3, #24]
  if (HAL_TIM_Base_Init(&htim2) != HAL_OK)
 8002cfc:	4823      	ldr	r0, [pc, #140]	; (8002d8c <MX_TIM2_Init+0xe8>)
 8002cfe:	f002 fe95 	bl	8005a2c <HAL_TIM_Base_Init>
 8002d02:	4603      	mov	r3, r0
 8002d04:	2b00      	cmp	r3, #0
 8002d06:	d001      	beq.n	8002d0c <MX_TIM2_Init+0x68>
  {
    Error_Handler();
 8002d08:	f7ff fedf 	bl	8002aca <Error_Handler>
  }
  sClockSourceConfig.ClockSource = TIM_CLOCKSOURCE_INTERNAL;
 8002d0c:	f44f 5380 	mov.w	r3, #4096	; 0x1000
 8002d10:	62bb      	str	r3, [r7, #40]	; 0x28
  if (HAL_TIM_ConfigClockSource(&htim2, &sClockSourceConfig) != HAL_OK)
 8002d12:	f107 0328 	add.w	r3, r7, #40	; 0x28
 8002d16:	4619      	mov	r1, r3
 8002d18:	481c      	ldr	r0, [pc, #112]	; (8002d8c <MX_TIM2_Init+0xe8>)
 8002d1a:	f003 f9f5 	bl	8006108 <HAL_TIM_ConfigClockSource>
 8002d1e:	4603      	mov	r3, r0
 8002d20:	2b00      	cmp	r3, #0
 8002d22:	d001      	beq.n	8002d28 <MX_TIM2_Init+0x84>
  {
    Error_Handler();
 8002d24:	f7ff fed1 	bl	8002aca <Error_Handler>
  }
  if (HAL_TIM_PWM_Init(&htim2) != HAL_OK)
 8002d28:	4818      	ldr	r0, [pc, #96]	; (8002d8c <MX_TIM2_Init+0xe8>)
 8002d2a:	f002 ff76 	bl	8005c1a <HAL_TIM_PWM_Init>
 8002d2e:	4603      	mov	r3, r0
 8002d30:	2b00      	cmp	r3, #0
 8002d32:	d001      	beq.n	8002d38 <MX_TIM2_Init+0x94>
  {
    Error_Handler();
 8002d34:	f7ff fec9 	bl	8002aca <Error_Handler>
  }
  sMasterConfig.MasterOutputTrigger = TIM_TRGO_UPDATE;
 8002d38:	2320      	movs	r3, #32
 8002d3a:	61fb      	str	r3, [r7, #28]
  sMasterConfig.MasterSlaveMode = TIM_MASTERSLAVEMODE_DISABLE;
 8002d3c:	2300      	movs	r3, #0
 8002d3e:	627b      	str	r3, [r7, #36]	; 0x24
  if (HAL_TIMEx_MasterConfigSynchronization(&htim2, &sMasterConfig) != HAL_OK)
 8002d40:	f107 031c 	add.w	r3, r7, #28
 8002d44:	4619      	mov	r1, r3
 8002d46:	4811      	ldr	r0, [pc, #68]	; (8002d8c <MX_TIM2_Init+0xe8>)
 8002d48:	f003 fec8 	bl	8006adc <HAL_TIMEx_MasterConfigSynchronization>
 8002d4c:	4603      	mov	r3, r0
 8002d4e:	2b00      	cmp	r3, #0
 8002d50:	d001      	beq.n	8002d56 <MX_TIM2_Init+0xb2>
  {
    Error_Handler();
 8002d52:	f7ff feba 	bl	8002aca <Error_Handler>
  }
  sConfigOC.OCMode = TIM_OCMODE_PWM1;
 8002d56:	2360      	movs	r3, #96	; 0x60
 8002d58:	603b      	str	r3, [r7, #0]
  sConfigOC.Pulse = 1600;
 8002d5a:	f44f 63c8 	mov.w	r3, #1600	; 0x640
 8002d5e:	607b      	str	r3, [r7, #4]
  sConfigOC.OCPolarity = TIM_OCPOLARITY_HIGH;
 8002d60:	2300      	movs	r3, #0
 8002d62:	60bb      	str	r3, [r7, #8]
  sConfigOC.OCFastMode = TIM_OCFAST_ENABLE;
 8002d64:	2304      	movs	r3, #4
 8002d66:	613b      	str	r3, [r7, #16]
  if (HAL_TIM_PWM_ConfigChannel(&htim2, &sConfigOC, TIM_CHANNEL_1) != HAL_OK)
 8002d68:	463b      	mov	r3, r7
 8002d6a:	2200      	movs	r2, #0
 8002d6c:	4619      	mov	r1, r3
 8002d6e:	4807      	ldr	r0, [pc, #28]	; (8002d8c <MX_TIM2_Init+0xe8>)
 8002d70:	f003 f8ba 	bl	8005ee8 <HAL_TIM_PWM_ConfigChannel>
 8002d74:	4603      	mov	r3, r0
 8002d76:	2b00      	cmp	r3, #0
 8002d78:	d001      	beq.n	8002d7e <MX_TIM2_Init+0xda>
  {
    Error_Handler();
 8002d7a:	f7ff fea6 	bl	8002aca <Error_Handler>
  }
  HAL_TIM_MspPostInit(&htim2);
 8002d7e:	4803      	ldr	r0, [pc, #12]	; (8002d8c <MX_TIM2_Init+0xe8>)
 8002d80:	f000 f8ba 	bl	8002ef8 <HAL_TIM_MspPostInit>

}
 8002d84:	bf00      	nop
 8002d86:	3738      	adds	r7, #56	; 0x38
 8002d88:	46bd      	mov	sp, r7
 8002d8a:	bd80      	pop	{r7, pc}
 8002d8c:	200009d4 	.word	0x200009d4
 8002d90:	00016fa5 	.word	0x00016fa5

08002d94 <MX_TIM3_Init>:
/* TIM3 init function */
void MX_TIM3_Init(void)
{
 8002d94:	b580      	push	{r7, lr}
 8002d96:	b088      	sub	sp, #32
 8002d98:	af00      	add	r7, sp, #0
  TIM_ClockConfigTypeDef sClockSourceConfig = {0};
 8002d9a:	f107 0310 	add.w	r3, r7, #16
 8002d9e:	2200      	movs	r2, #0
 8002da0:	601a      	str	r2, [r3, #0]
 8002da2:	605a      	str	r2, [r3, #4]
 8002da4:	609a      	str	r2, [r3, #8]
 8002da6:	60da      	str	r2, [r3, #12]
  TIM_MasterConfigTypeDef sMasterConfig = {0};
 8002da8:	1d3b      	adds	r3, r7, #4
 8002daa:	2200      	movs	r2, #0
 8002dac:	601a      	str	r2, [r3, #0]
 8002dae:	605a      	str	r2, [r3, #4]
 8002db0:	609a      	str	r2, [r3, #8]

  htim3.Instance = TIM3;
 8002db2:	4b20      	ldr	r3, [pc, #128]	; (8002e34 <MX_TIM3_Init+0xa0>)
 8002db4:	4a20      	ldr	r2, [pc, #128]	; (8002e38 <MX_TIM3_Init+0xa4>)
 8002db6:	601a      	str	r2, [r3, #0]
  htim3.Init.Prescaler = 0;
 8002db8:	4b1e      	ldr	r3, [pc, #120]	; (8002e34 <MX_TIM3_Init+0xa0>)
 8002dba:	2200      	movs	r2, #0
 8002dbc:	605a      	str	r2, [r3, #4]
  htim3.Init.CounterMode = TIM_COUNTERMODE_UP;
 8002dbe:	4b1d      	ldr	r3, [pc, #116]	; (8002e34 <MX_TIM3_Init+0xa0>)
 8002dc0:	2200      	movs	r2, #0
 8002dc2:	609a      	str	r2, [r3, #8]
  htim3.Init.Period = 14;
 8002dc4:	4b1b      	ldr	r3, [pc, #108]	; (8002e34 <MX_TIM3_Init+0xa0>)
 8002dc6:	220e      	movs	r2, #14
 8002dc8:	60da      	str	r2, [r3, #12]
  htim3.Init.ClockDivision = TIM_CLOCKDIVISION_DIV1;
 8002dca:	4b1a      	ldr	r3, [pc, #104]	; (8002e34 <MX_TIM3_Init+0xa0>)
 8002dcc:	2200      	movs	r2, #0
 8002dce:	611a      	str	r2, [r3, #16]
  htim3.Init.AutoReloadPreload = TIM_AUTORELOAD_PRELOAD_DISABLE;
 8002dd0:	4b18      	ldr	r3, [pc, #96]	; (8002e34 <MX_TIM3_Init+0xa0>)
 8002dd2:	2200      	movs	r2, #0
 8002dd4:	619a      	str	r2, [r3, #24]
  if (HAL_TIM_Base_Init(&htim3) != HAL_OK)
 8002dd6:	4817      	ldr	r0, [pc, #92]	; (8002e34 <MX_TIM3_Init+0xa0>)
 8002dd8:	f002 fe28 	bl	8005a2c <HAL_TIM_Base_Init>
 8002ddc:	4603      	mov	r3, r0
 8002dde:	2b00      	cmp	r3, #0
 8002de0:	d001      	beq.n	8002de6 <MX_TIM3_Init+0x52>
  {
    Error_Handler();
 8002de2:	f7ff fe72 	bl	8002aca <Error_Handler>
  }
  sClockSourceConfig.ClockSource = TIM_CLOCKSOURCE_ETRMODE2;
 8002de6:	f44f 5300 	mov.w	r3, #8192	; 0x2000
 8002dea:	613b      	str	r3, [r7, #16]
  sClockSourceConfig.ClockPolarity = TIM_CLOCKPOLARITY_NONINVERTED;
 8002dec:	2300      	movs	r3, #0
 8002dee:	617b      	str	r3, [r7, #20]
  sClockSourceConfig.ClockPrescaler = TIM_CLOCKPRESCALER_DIV1;
 8002df0:	2300      	movs	r3, #0
 8002df2:	61bb      	str	r3, [r7, #24]
  sClockSourceConfig.ClockFilter = 0;
 8002df4:	2300      	movs	r3, #0
 8002df6:	61fb      	str	r3, [r7, #28]
  if (HAL_TIM_ConfigClockSource(&htim3, &sClockSourceConfig) != HAL_OK)
 8002df8:	f107 0310 	add.w	r3, r7, #16
 8002dfc:	4619      	mov	r1, r3
 8002dfe:	480d      	ldr	r0, [pc, #52]	; (8002e34 <MX_TIM3_Init+0xa0>)
 8002e00:	f003 f982 	bl	8006108 <HAL_TIM_ConfigClockSource>
 8002e04:	4603      	mov	r3, r0
 8002e06:	2b00      	cmp	r3, #0
 8002e08:	d001      	beq.n	8002e0e <MX_TIM3_Init+0x7a>
  {
    Error_Handler();
 8002e0a:	f7ff fe5e 	bl	8002aca <Error_Handler>
  }
  sMasterConfig.MasterOutputTrigger = TIM_TRGO_RESET;
 8002e0e:	2300      	movs	r3, #0
 8002e10:	607b      	str	r3, [r7, #4]
  sMasterConfig.MasterSlaveMode = TIM_MASTERSLAVEMODE_DISABLE;
 8002e12:	2300      	movs	r3, #0
 8002e14:	60fb      	str	r3, [r7, #12]
  if (HAL_TIMEx_MasterConfigSynchronization(&htim3, &sMasterConfig) != HAL_OK)
 8002e16:	1d3b      	adds	r3, r7, #4
 8002e18:	4619      	mov	r1, r3
 8002e1a:	4806      	ldr	r0, [pc, #24]	; (8002e34 <MX_TIM3_Init+0xa0>)
 8002e1c:	f003 fe5e 	bl	8006adc <HAL_TIMEx_MasterConfigSynchronization>
 8002e20:	4603      	mov	r3, r0
 8002e22:	2b00      	cmp	r3, #0
 8002e24:	d001      	beq.n	8002e2a <MX_TIM3_Init+0x96>
  {
    Error_Handler();
 8002e26:	f7ff fe50 	bl	8002aca <Error_Handler>
  }

}
 8002e2a:	bf00      	nop
 8002e2c:	3720      	adds	r7, #32
 8002e2e:	46bd      	mov	sp, r7
 8002e30:	bd80      	pop	{r7, pc}
 8002e32:	bf00      	nop
 8002e34:	20000988 	.word	0x20000988
 8002e38:	40000400 	.word	0x40000400

08002e3c <HAL_TIM_Base_MspInit>:

void HAL_TIM_Base_MspInit(TIM_HandleTypeDef* tim_baseHandle)
{
 8002e3c:	b580      	push	{r7, lr}
 8002e3e:	b08a      	sub	sp, #40	; 0x28
 8002e40:	af00      	add	r7, sp, #0
 8002e42:	6078      	str	r0, [r7, #4]

  GPIO_InitTypeDef GPIO_InitStruct = {0};
 8002e44:	f107 0314 	add.w	r3, r7, #20
 8002e48:	2200      	movs	r2, #0
 8002e4a:	601a      	str	r2, [r3, #0]
 8002e4c:	605a      	str	r2, [r3, #4]
 8002e4e:	609a      	str	r2, [r3, #8]
 8002e50:	60da      	str	r2, [r3, #12]
 8002e52:	611a      	str	r2, [r3, #16]
  if(tim_baseHandle->Instance==TIM2)
 8002e54:	687b      	ldr	r3, [r7, #4]
 8002e56:	681b      	ldr	r3, [r3, #0]
 8002e58:	f1b3 4f80 	cmp.w	r3, #1073741824	; 0x40000000
 8002e5c:	d10c      	bne.n	8002e78 <HAL_TIM_Base_MspInit+0x3c>
  {
  /* USER CODE BEGIN TIM2_MspInit 0 */

  /* USER CODE END TIM2_MspInit 0 */
    /* TIM2 clock enable */
    __HAL_RCC_TIM2_CLK_ENABLE();
 8002e5e:	4b23      	ldr	r3, [pc, #140]	; (8002eec <HAL_TIM_Base_MspInit+0xb0>)
 8002e60:	6d9b      	ldr	r3, [r3, #88]	; 0x58
 8002e62:	4a22      	ldr	r2, [pc, #136]	; (8002eec <HAL_TIM_Base_MspInit+0xb0>)
 8002e64:	f043 0301 	orr.w	r3, r3, #1
 8002e68:	6593      	str	r3, [r2, #88]	; 0x58
 8002e6a:	4b20      	ldr	r3, [pc, #128]	; (8002eec <HAL_TIM_Base_MspInit+0xb0>)
 8002e6c:	6d9b      	ldr	r3, [r3, #88]	; 0x58
 8002e6e:	f003 0301 	and.w	r3, r3, #1
 8002e72:	613b      	str	r3, [r7, #16]
 8002e74:	693b      	ldr	r3, [r7, #16]
    HAL_NVIC_EnableIRQ(TIM3_IRQn);
  /* USER CODE BEGIN TIM3_MspInit 1 */

  /* USER CODE END TIM3_MspInit 1 */
  }
}
 8002e76:	e034      	b.n	8002ee2 <HAL_TIM_Base_MspInit+0xa6>
  else if(tim_baseHandle->Instance==TIM3)
 8002e78:	687b      	ldr	r3, [r7, #4]
 8002e7a:	681b      	ldr	r3, [r3, #0]
 8002e7c:	4a1c      	ldr	r2, [pc, #112]	; (8002ef0 <HAL_TIM_Base_MspInit+0xb4>)
 8002e7e:	4293      	cmp	r3, r2
 8002e80:	d12f      	bne.n	8002ee2 <HAL_TIM_Base_MspInit+0xa6>
    __HAL_RCC_TIM3_CLK_ENABLE();
 8002e82:	4b1a      	ldr	r3, [pc, #104]	; (8002eec <HAL_TIM_Base_MspInit+0xb0>)
 8002e84:	6d9b      	ldr	r3, [r3, #88]	; 0x58
 8002e86:	4a19      	ldr	r2, [pc, #100]	; (8002eec <HAL_TIM_Base_MspInit+0xb0>)
 8002e88:	f043 0302 	orr.w	r3, r3, #2
 8002e8c:	6593      	str	r3, [r2, #88]	; 0x58
 8002e8e:	4b17      	ldr	r3, [pc, #92]	; (8002eec <HAL_TIM_Base_MspInit+0xb0>)
 8002e90:	6d9b      	ldr	r3, [r3, #88]	; 0x58
 8002e92:	f003 0302 	and.w	r3, r3, #2
 8002e96:	60fb      	str	r3, [r7, #12]
 8002e98:	68fb      	ldr	r3, [r7, #12]
    __HAL_RCC_GPIOD_CLK_ENABLE();
 8002e9a:	4b14      	ldr	r3, [pc, #80]	; (8002eec <HAL_TIM_Base_MspInit+0xb0>)
 8002e9c:	6cdb      	ldr	r3, [r3, #76]	; 0x4c
 8002e9e:	4a13      	ldr	r2, [pc, #76]	; (8002eec <HAL_TIM_Base_MspInit+0xb0>)
 8002ea0:	f043 0308 	orr.w	r3, r3, #8
 8002ea4:	64d3      	str	r3, [r2, #76]	; 0x4c
 8002ea6:	4b11      	ldr	r3, [pc, #68]	; (8002eec <HAL_TIM_Base_MspInit+0xb0>)
 8002ea8:	6cdb      	ldr	r3, [r3, #76]	; 0x4c
 8002eaa:	f003 0308 	and.w	r3, r3, #8
 8002eae:	60bb      	str	r3, [r7, #8]
 8002eb0:	68bb      	ldr	r3, [r7, #8]
    GPIO_InitStruct.Pin = GPIO_PIN_2;
 8002eb2:	2304      	movs	r3, #4
 8002eb4:	617b      	str	r3, [r7, #20]
    GPIO_InitStruct.Mode = GPIO_MODE_AF_PP;
 8002eb6:	2302      	movs	r3, #2
 8002eb8:	61bb      	str	r3, [r7, #24]
    GPIO_InitStruct.Pull = GPIO_NOPULL;
 8002eba:	2300      	movs	r3, #0
 8002ebc:	61fb      	str	r3, [r7, #28]
    GPIO_InitStruct.Speed = GPIO_SPEED_FREQ_LOW;
 8002ebe:	2300      	movs	r3, #0
 8002ec0:	623b      	str	r3, [r7, #32]
    GPIO_InitStruct.Alternate = GPIO_AF2_TIM3;
 8002ec2:	2302      	movs	r3, #2
 8002ec4:	627b      	str	r3, [r7, #36]	; 0x24
    HAL_GPIO_Init(GPIOD, &GPIO_InitStruct);
 8002ec6:	f107 0314 	add.w	r3, r7, #20
 8002eca:	4619      	mov	r1, r3
 8002ecc:	4809      	ldr	r0, [pc, #36]	; (8002ef4 <HAL_TIM_Base_MspInit+0xb8>)
 8002ece:	f000 fcd9 	bl	8003884 <HAL_GPIO_Init>
    HAL_NVIC_SetPriority(TIM3_IRQn, 0, 0);
 8002ed2:	2200      	movs	r2, #0
 8002ed4:	2100      	movs	r1, #0
 8002ed6:	201d      	movs	r0, #29
 8002ed8:	f000 f9ff 	bl	80032da <HAL_NVIC_SetPriority>
    HAL_NVIC_EnableIRQ(TIM3_IRQn);
 8002edc:	201d      	movs	r0, #29
 8002ede:	f000 fa18 	bl	8003312 <HAL_NVIC_EnableIRQ>
}
 8002ee2:	bf00      	nop
 8002ee4:	3728      	adds	r7, #40	; 0x28
 8002ee6:	46bd      	mov	sp, r7
 8002ee8:	bd80      	pop	{r7, pc}
 8002eea:	bf00      	nop
 8002eec:	40021000 	.word	0x40021000
 8002ef0:	40000400 	.word	0x40000400
 8002ef4:	48000c00 	.word	0x48000c00

08002ef8 <HAL_TIM_MspPostInit>:
void HAL_TIM_MspPostInit(TIM_HandleTypeDef* timHandle)
{
 8002ef8:	b580      	push	{r7, lr}
 8002efa:	b088      	sub	sp, #32
 8002efc:	af00      	add	r7, sp, #0
 8002efe:	6078      	str	r0, [r7, #4]

  GPIO_InitTypeDef GPIO_InitStruct = {0};
 8002f00:	f107 030c 	add.w	r3, r7, #12
 8002f04:	2200      	movs	r2, #0
 8002f06:	601a      	str	r2, [r3, #0]
 8002f08:	605a      	str	r2, [r3, #4]
 8002f0a:	609a      	str	r2, [r3, #8]
 8002f0c:	60da      	str	r2, [r3, #12]
 8002f0e:	611a      	str	r2, [r3, #16]
  if(timHandle->Instance==TIM2)
 8002f10:	687b      	ldr	r3, [r7, #4]
 8002f12:	681b      	ldr	r3, [r3, #0]
 8002f14:	f1b3 4f80 	cmp.w	r3, #1073741824	; 0x40000000
 8002f18:	d11c      	bne.n	8002f54 <HAL_TIM_MspPostInit+0x5c>
  {
  /* USER CODE BEGIN TIM2_MspPostInit 0 */

  /* USER CODE END TIM2_MspPostInit 0 */

    __HAL_RCC_GPIOA_CLK_ENABLE();
 8002f1a:	4b10      	ldr	r3, [pc, #64]	; (8002f5c <HAL_TIM_MspPostInit+0x64>)
 8002f1c:	6cdb      	ldr	r3, [r3, #76]	; 0x4c
 8002f1e:	4a0f      	ldr	r2, [pc, #60]	; (8002f5c <HAL_TIM_MspPostInit+0x64>)
 8002f20:	f043 0301 	orr.w	r3, r3, #1
 8002f24:	64d3      	str	r3, [r2, #76]	; 0x4c
 8002f26:	4b0d      	ldr	r3, [pc, #52]	; (8002f5c <HAL_TIM_MspPostInit+0x64>)
 8002f28:	6cdb      	ldr	r3, [r3, #76]	; 0x4c
 8002f2a:	f003 0301 	and.w	r3, r3, #1
 8002f2e:	60bb      	str	r3, [r7, #8]
 8002f30:	68bb      	ldr	r3, [r7, #8]
    /**TIM2 GPIO Configuration
    PA0     ------> TIM2_CH1
    */
    GPIO_InitStruct.Pin = GPIO_PIN_0;
 8002f32:	2301      	movs	r3, #1
 8002f34:	60fb      	str	r3, [r7, #12]
    GPIO_InitStruct.Mode = GPIO_MODE_AF_PP;
 8002f36:	2302      	movs	r3, #2
 8002f38:	613b      	str	r3, [r7, #16]
    GPIO_InitStruct.Pull = GPIO_NOPULL;
 8002f3a:	2300      	movs	r3, #0
 8002f3c:	617b      	str	r3, [r7, #20]
    GPIO_InitStruct.Speed = GPIO_SPEED_FREQ_HIGH;
 8002f3e:	2302      	movs	r3, #2
 8002f40:	61bb      	str	r3, [r7, #24]
    GPIO_InitStruct.Alternate = GPIO_AF1_TIM2;
 8002f42:	2301      	movs	r3, #1
 8002f44:	61fb      	str	r3, [r7, #28]
    HAL_GPIO_Init(GPIOA, &GPIO_InitStruct);
 8002f46:	f107 030c 	add.w	r3, r7, #12
 8002f4a:	4619      	mov	r1, r3
 8002f4c:	f04f 4090 	mov.w	r0, #1207959552	; 0x48000000
 8002f50:	f000 fc98 	bl	8003884 <HAL_GPIO_Init>
  /* USER CODE BEGIN TIM2_MspPostInit 1 */

  /* USER CODE END TIM2_MspPostInit 1 */
  }

}
 8002f54:	bf00      	nop
 8002f56:	3720      	adds	r7, #32
 8002f58:	46bd      	mov	sp, r7
 8002f5a:	bd80      	pop	{r7, pc}
 8002f5c:	40021000 	.word	0x40021000

08002f60 <Reset_Handler>:

    .section	.text.Reset_Handler
	.weak	Reset_Handler
	.type	Reset_Handler, %function
Reset_Handler:
  ldr   sp, =_estack    /* Set stack pointer */
 8002f60:	f8df d034 	ldr.w	sp, [pc, #52]	; 8002f98 <LoopForever+0x2>

/* Call the clock system initialization function.*/
    bl  SystemInit
 8002f64:	f7ff fe68 	bl	8002c38 <SystemInit>

/* Copy the data segment initializers from flash to SRAM */
  movs	r1, #0
 8002f68:	2100      	movs	r1, #0
  b	LoopCopyDataInit
 8002f6a:	e003      	b.n	8002f74 <LoopCopyDataInit>

08002f6c <CopyDataInit>:

CopyDataInit:
	ldr	r3, =_sidata
 8002f6c:	4b0b      	ldr	r3, [pc, #44]	; (8002f9c <LoopForever+0x6>)
	ldr	r3, [r3, r1]
 8002f6e:	585b      	ldr	r3, [r3, r1]
	str	r3, [r0, r1]
 8002f70:	5043      	str	r3, [r0, r1]
	adds	r1, r1, #4
 8002f72:	3104      	adds	r1, #4

08002f74 <LoopCopyDataInit>:

LoopCopyDataInit:
	ldr	r0, =_sdata
 8002f74:	480a      	ldr	r0, [pc, #40]	; (8002fa0 <LoopForever+0xa>)
	ldr	r3, =_edata
 8002f76:	4b0b      	ldr	r3, [pc, #44]	; (8002fa4 <LoopForever+0xe>)
	adds	r2, r0, r1
 8002f78:	1842      	adds	r2, r0, r1
	cmp	r2, r3
 8002f7a:	429a      	cmp	r2, r3
	bcc	CopyDataInit
 8002f7c:	d3f6      	bcc.n	8002f6c <CopyDataInit>
	ldr	r2, =_sbss
 8002f7e:	4a0a      	ldr	r2, [pc, #40]	; (8002fa8 <LoopForever+0x12>)
	b	LoopFillZerobss
 8002f80:	e002      	b.n	8002f88 <LoopFillZerobss>

08002f82 <FillZerobss>:
/* Zero fill the bss segment. */
FillZerobss:
	movs	r3, #0
 8002f82:	2300      	movs	r3, #0
	str	r3, [r2], #4
 8002f84:	f842 3b04 	str.w	r3, [r2], #4

08002f88 <LoopFillZerobss>:

LoopFillZerobss:
	ldr	r3, = _ebss
 8002f88:	4b08      	ldr	r3, [pc, #32]	; (8002fac <LoopForever+0x16>)
	cmp	r2, r3
 8002f8a:	429a      	cmp	r2, r3
	bcc	FillZerobss
 8002f8c:	d3f9      	bcc.n	8002f82 <FillZerobss>

/* Call static constructors */
    bl __libc_init_array
 8002f8e:	f004 f841 	bl	8007014 <__libc_init_array>
/* Call the application's entry point.*/
	bl	main
 8002f92:	f7ff fc95 	bl	80028c0 <main>

08002f96 <LoopForever>:

LoopForever:
    b LoopForever
 8002f96:	e7fe      	b.n	8002f96 <LoopForever>
  ldr   sp, =_estack    /* Set stack pointer */
 8002f98:	20018000 	.word	0x20018000
	ldr	r3, =_sidata
 8002f9c:	0800c038 	.word	0x0800c038
	ldr	r0, =_sdata
 8002fa0:	20000000 	.word	0x20000000
	ldr	r3, =_edata
 8002fa4:	200004c8 	.word	0x200004c8
	ldr	r2, =_sbss
 8002fa8:	200004c8 	.word	0x200004c8
	ldr	r3, = _ebss
 8002fac:	20000a28 	.word	0x20000a28

08002fb0 <ADC1_2_IRQHandler>:
 * @retval : None
*/
    .section	.text.Default_Handler,"ax",%progbits
Default_Handler:
Infinite_Loop:
	b	Infinite_Loop
 8002fb0:	e7fe      	b.n	8002fb0 <ADC1_2_IRQHandler>

08002fb2 <HAL_Init>:
  *         each 1ms in the SysTick_Handler() interrupt handler.
  *
  * @retval HAL status
  */
HAL_StatusTypeDef HAL_Init(void)
{
 8002fb2:	b580      	push	{r7, lr}
 8002fb4:	b082      	sub	sp, #8
 8002fb6:	af00      	add	r7, sp, #0
  HAL_StatusTypeDef  status = HAL_OK;
 8002fb8:	2300      	movs	r3, #0
 8002fba:	71fb      	strb	r3, [r7, #7]
#if (PREFETCH_ENABLE != 0)
  __HAL_FLASH_PREFETCH_BUFFER_ENABLE();
#endif /* PREFETCH_ENABLE */

  /* Set Interrupt Group Priority */
  HAL_NVIC_SetPriorityGrouping(NVIC_PRIORITYGROUP_4);
 8002fbc:	2003      	movs	r0, #3
 8002fbe:	f000 f981 	bl	80032c4 <HAL_NVIC_SetPriorityGrouping>

  /* Use SysTick as time base source and configure 1ms tick (default clock after Reset is MSI) */
  if (HAL_InitTick(TICK_INT_PRIORITY) != HAL_OK)
 8002fc2:	2001      	movs	r0, #1
 8002fc4:	f000 f80e 	bl	8002fe4 <HAL_InitTick>
 8002fc8:	4603      	mov	r3, r0
 8002fca:	2b00      	cmp	r3, #0
 8002fcc:	d002      	beq.n	8002fd4 <HAL_Init+0x22>
  {
    status = HAL_ERROR;
 8002fce:	2301      	movs	r3, #1
 8002fd0:	71fb      	strb	r3, [r7, #7]
 8002fd2:	e001      	b.n	8002fd8 <HAL_Init+0x26>
  }
  else
  {
    /* Init the low level hardware */
    HAL_MspInit();
 8002fd4:	f7ff fd80 	bl	8002ad8 <HAL_MspInit>
  }

  /* Return function status */
  return status;
 8002fd8:	79fb      	ldrb	r3, [r7, #7]
}
 8002fda:	4618      	mov	r0, r3
 8002fdc:	3708      	adds	r7, #8
 8002fde:	46bd      	mov	sp, r7
 8002fe0:	bd80      	pop	{r7, pc}
	...

08002fe4 <HAL_InitTick>:
  *       implementation  in user file.
  * @param TickPriority  Tick interrupt priority.
  * @retval HAL status
  */
__weak HAL_StatusTypeDef HAL_InitTick(uint32_t TickPriority)
{
 8002fe4:	b580      	push	{r7, lr}
 8002fe6:	b084      	sub	sp, #16
 8002fe8:	af00      	add	r7, sp, #0
 8002fea:	6078      	str	r0, [r7, #4]
  HAL_StatusTypeDef  status = HAL_OK;
 8002fec:	2300      	movs	r3, #0
 8002fee:	73fb      	strb	r3, [r7, #15]

  /* Check uwTickFreq for MisraC 2012 (even if uwTickFreq is a enum type that doesn't take the value zero)*/
  if ((uint32_t)uwTickFreq != 0U)
 8002ff0:	4b17      	ldr	r3, [pc, #92]	; (8003050 <HAL_InitTick+0x6c>)
 8002ff2:	781b      	ldrb	r3, [r3, #0]
 8002ff4:	2b00      	cmp	r3, #0
 8002ff6:	d023      	beq.n	8003040 <HAL_InitTick+0x5c>
  {
    /*Configure the SysTick to have interrupt in 1ms time basis*/
    if (HAL_SYSTICK_Config(SystemCoreClock / (1000U / (uint32_t)uwTickFreq)) == 0U)
 8002ff8:	4b16      	ldr	r3, [pc, #88]	; (8003054 <HAL_InitTick+0x70>)
 8002ffa:	681a      	ldr	r2, [r3, #0]
 8002ffc:	4b14      	ldr	r3, [pc, #80]	; (8003050 <HAL_InitTick+0x6c>)
 8002ffe:	781b      	ldrb	r3, [r3, #0]
 8003000:	4619      	mov	r1, r3
 8003002:	f44f 737a 	mov.w	r3, #1000	; 0x3e8
 8003006:	fbb3 f3f1 	udiv	r3, r3, r1
 800300a:	fbb2 f3f3 	udiv	r3, r2, r3
 800300e:	4618      	mov	r0, r3
 8003010:	f000 f99b 	bl	800334a <HAL_SYSTICK_Config>
 8003014:	4603      	mov	r3, r0
 8003016:	2b00      	cmp	r3, #0
 8003018:	d10f      	bne.n	800303a <HAL_InitTick+0x56>
    {
      /* Configure the SysTick IRQ priority */
      if (TickPriority < (1UL << __NVIC_PRIO_BITS))
 800301a:	687b      	ldr	r3, [r7, #4]
 800301c:	2b0f      	cmp	r3, #15
 800301e:	d809      	bhi.n	8003034 <HAL_InitTick+0x50>
      {
        HAL_NVIC_SetPriority(SysTick_IRQn, TickPriority, 0U);
 8003020:	2200      	movs	r2, #0
 8003022:	6879      	ldr	r1, [r7, #4]
 8003024:	f04f 30ff 	mov.w	r0, #4294967295
 8003028:	f000 f957 	bl	80032da <HAL_NVIC_SetPriority>
        uwTickPrio = TickPriority;
 800302c:	4a0a      	ldr	r2, [pc, #40]	; (8003058 <HAL_InitTick+0x74>)
 800302e:	687b      	ldr	r3, [r7, #4]
 8003030:	6013      	str	r3, [r2, #0]
 8003032:	e007      	b.n	8003044 <HAL_InitTick+0x60>
      }
      else
      {
        status = HAL_ERROR;
 8003034:	2301      	movs	r3, #1
 8003036:	73fb      	strb	r3, [r7, #15]
 8003038:	e004      	b.n	8003044 <HAL_InitTick+0x60>
      }
    }
    else
    {
      status = HAL_ERROR;
 800303a:	2301      	movs	r3, #1
 800303c:	73fb      	strb	r3, [r7, #15]
 800303e:	e001      	b.n	8003044 <HAL_InitTick+0x60>
    }
  }
  else
  {
    status = HAL_ERROR;
 8003040:	2301      	movs	r3, #1
 8003042:	73fb      	strb	r3, [r7, #15]
  }

  /* Return function status */
  return status;
 8003044:	7bfb      	ldrb	r3, [r7, #15]
}
 8003046:	4618      	mov	r0, r3
 8003048:	3710      	adds	r7, #16
 800304a:	46bd      	mov	sp, r7
 800304c:	bd80      	pop	{r7, pc}
 800304e:	bf00      	nop
 8003050:	200002bc 	.word	0x200002bc
 8003054:	200002b4 	.word	0x200002b4
 8003058:	200002b8 	.word	0x200002b8

0800305c <HAL_IncTick>:
 * @note This function is declared as __weak to be overwritten in case of other
  *      implementations in user file.
  * @retval None
  */
__weak void HAL_IncTick(void)
{
 800305c:	b480      	push	{r7}
 800305e:	af00      	add	r7, sp, #0
  uwTick += (uint32_t)uwTickFreq;
 8003060:	4b06      	ldr	r3, [pc, #24]	; (800307c <HAL_IncTick+0x20>)
 8003062:	781b      	ldrb	r3, [r3, #0]
 8003064:	461a      	mov	r2, r3
 8003066:	4b06      	ldr	r3, [pc, #24]	; (8003080 <HAL_IncTick+0x24>)
 8003068:	681b      	ldr	r3, [r3, #0]
 800306a:	4413      	add	r3, r2
 800306c:	4a04      	ldr	r2, [pc, #16]	; (8003080 <HAL_IncTick+0x24>)
 800306e:	6013      	str	r3, [r2, #0]
}
 8003070:	bf00      	nop
 8003072:	46bd      	mov	sp, r7
 8003074:	f85d 7b04 	ldr.w	r7, [sp], #4
 8003078:	4770      	bx	lr
 800307a:	bf00      	nop
 800307c:	200002bc 	.word	0x200002bc
 8003080:	20000a20 	.word	0x20000a20

08003084 <HAL_GetTick>:
  * @note This function is declared as __weak to be overwritten in case of other
  *       implementations in user file.
  * @retval tick value
  */
__weak uint32_t HAL_GetTick(void)
{
 8003084:	b480      	push	{r7}
 8003086:	af00      	add	r7, sp, #0
  return uwTick;
 8003088:	4b03      	ldr	r3, [pc, #12]	; (8003098 <HAL_GetTick+0x14>)
 800308a:	681b      	ldr	r3, [r3, #0]
}
 800308c:	4618      	mov	r0, r3
 800308e:	46bd      	mov	sp, r7
 8003090:	f85d 7b04 	ldr.w	r7, [sp], #4
 8003094:	4770      	bx	lr
 8003096:	bf00      	nop
 8003098:	20000a20 	.word	0x20000a20

0800309c <HAL_Delay>:
  *       implementations in user file.
  * @param Delay  specifies the delay time length, in milliseconds.
  * @retval None
  */
__weak void HAL_Delay(uint32_t Delay)
{
 800309c:	b580      	push	{r7, lr}
 800309e:	b084      	sub	sp, #16
 80030a0:	af00      	add	r7, sp, #0
 80030a2:	6078      	str	r0, [r7, #4]
  uint32_t tickstart = HAL_GetTick();
 80030a4:	f7ff ffee 	bl	8003084 <HAL_GetTick>
 80030a8:	60b8      	str	r0, [r7, #8]
  uint32_t wait = Delay;
 80030aa:	687b      	ldr	r3, [r7, #4]
 80030ac:	60fb      	str	r3, [r7, #12]

  /* Add a period to guaranty minimum wait */
  if (wait < HAL_MAX_DELAY)
 80030ae:	68fb      	ldr	r3, [r7, #12]
 80030b0:	f1b3 3fff 	cmp.w	r3, #4294967295
 80030b4:	d005      	beq.n	80030c2 <HAL_Delay+0x26>
  {
    wait += (uint32_t)uwTickFreq;
 80030b6:	4b09      	ldr	r3, [pc, #36]	; (80030dc <HAL_Delay+0x40>)
 80030b8:	781b      	ldrb	r3, [r3, #0]
 80030ba:	461a      	mov	r2, r3
 80030bc:	68fb      	ldr	r3, [r7, #12]
 80030be:	4413      	add	r3, r2
 80030c0:	60fb      	str	r3, [r7, #12]
  }

  while ((HAL_GetTick() - tickstart) < wait)
 80030c2:	bf00      	nop
 80030c4:	f7ff ffde 	bl	8003084 <HAL_GetTick>
 80030c8:	4602      	mov	r2, r0
 80030ca:	68bb      	ldr	r3, [r7, #8]
 80030cc:	1ad3      	subs	r3, r2, r3
 80030ce:	68fa      	ldr	r2, [r7, #12]
 80030d0:	429a      	cmp	r2, r3
 80030d2:	d8f7      	bhi.n	80030c4 <HAL_Delay+0x28>
  {
  }
}
 80030d4:	bf00      	nop
 80030d6:	3710      	adds	r7, #16
 80030d8:	46bd      	mov	sp, r7
 80030da:	bd80      	pop	{r7, pc}
 80030dc:	200002bc 	.word	0x200002bc

080030e0 <__NVIC_SetPriorityGrouping>:
           In case of a conflict between priority grouping and available
           priority bits (__NVIC_PRIO_BITS), the smallest possible priority group is set.
  \param [in]      PriorityGroup  Priority grouping field.
 */
__STATIC_INLINE void __NVIC_SetPriorityGrouping(uint32_t PriorityGroup)
{
 80030e0:	b480      	push	{r7}
 80030e2:	b085      	sub	sp, #20
 80030e4:	af00      	add	r7, sp, #0
 80030e6:	6078      	str	r0, [r7, #4]
  uint32_t reg_value;
  uint32_t PriorityGroupTmp = (PriorityGroup & (uint32_t)0x07UL);             /* only values 0..7 are used          */
 80030e8:	687b      	ldr	r3, [r7, #4]
 80030ea:	f003 0307 	and.w	r3, r3, #7
 80030ee:	60fb      	str	r3, [r7, #12]

  reg_value  =  SCB->AIRCR;                                                   /* read old register configuration    */
 80030f0:	4b0c      	ldr	r3, [pc, #48]	; (8003124 <__NVIC_SetPriorityGrouping+0x44>)
 80030f2:	68db      	ldr	r3, [r3, #12]
 80030f4:	60bb      	str	r3, [r7, #8]
  reg_value &= ~((uint32_t)(SCB_AIRCR_VECTKEY_Msk | SCB_AIRCR_PRIGROUP_Msk)); /* clear bits to change               */
 80030f6:	68ba      	ldr	r2, [r7, #8]
 80030f8:	f64f 03ff 	movw	r3, #63743	; 0xf8ff
 80030fc:	4013      	ands	r3, r2
 80030fe:	60bb      	str	r3, [r7, #8]
  reg_value  =  (reg_value                                   |
                ((uint32_t)0x5FAUL << SCB_AIRCR_VECTKEY_Pos) |
                (PriorityGroupTmp << SCB_AIRCR_PRIGROUP_Pos)  );              /* Insert write key and priority group */
 8003100:	68fb      	ldr	r3, [r7, #12]
 8003102:	021a      	lsls	r2, r3, #8
                ((uint32_t)0x5FAUL << SCB_AIRCR_VECTKEY_Pos) |
 8003104:	68bb      	ldr	r3, [r7, #8]
 8003106:	4313      	orrs	r3, r2
  reg_value  =  (reg_value                                   |
 8003108:	f043 63bf 	orr.w	r3, r3, #100139008	; 0x5f80000
 800310c:	f443 3300 	orr.w	r3, r3, #131072	; 0x20000
 8003110:	60bb      	str	r3, [r7, #8]
  SCB->AIRCR =  reg_value;
 8003112:	4a04      	ldr	r2, [pc, #16]	; (8003124 <__NVIC_SetPriorityGrouping+0x44>)
 8003114:	68bb      	ldr	r3, [r7, #8]
 8003116:	60d3      	str	r3, [r2, #12]
}
 8003118:	bf00      	nop
 800311a:	3714      	adds	r7, #20
 800311c:	46bd      	mov	sp, r7
 800311e:	f85d 7b04 	ldr.w	r7, [sp], #4
 8003122:	4770      	bx	lr
 8003124:	e000ed00 	.word	0xe000ed00

08003128 <__NVIC_GetPriorityGrouping>:
  \brief   Get Priority Grouping
  \details Reads the priority grouping field from the NVIC Interrupt Controller.
  \return                Priority grouping field (SCB->AIRCR [10:8] PRIGROUP field).
 */
__STATIC_INLINE uint32_t __NVIC_GetPriorityGrouping(void)
{
 8003128:	b480      	push	{r7}
 800312a:	af00      	add	r7, sp, #0
  return ((uint32_t)((SCB->AIRCR & SCB_AIRCR_PRIGROUP_Msk) >> SCB_AIRCR_PRIGROUP_Pos));
 800312c:	4b04      	ldr	r3, [pc, #16]	; (8003140 <__NVIC_GetPriorityGrouping+0x18>)
 800312e:	68db      	ldr	r3, [r3, #12]
 8003130:	0a1b      	lsrs	r3, r3, #8
 8003132:	f003 0307 	and.w	r3, r3, #7
}
 8003136:	4618      	mov	r0, r3
 8003138:	46bd      	mov	sp, r7
 800313a:	f85d 7b04 	ldr.w	r7, [sp], #4
 800313e:	4770      	bx	lr
 8003140:	e000ed00 	.word	0xe000ed00

08003144 <__NVIC_EnableIRQ>:
  \details Enables a device specific interrupt in the NVIC interrupt controller.
  \param [in]      IRQn  Device specific interrupt number.
  \note    IRQn must not be negative.
 */
__STATIC_INLINE void __NVIC_EnableIRQ(IRQn_Type IRQn)
{
 8003144:	b480      	push	{r7}
 8003146:	b083      	sub	sp, #12
 8003148:	af00      	add	r7, sp, #0
 800314a:	4603      	mov	r3, r0
 800314c:	71fb      	strb	r3, [r7, #7]
  if ((int32_t)(IRQn) >= 0)
 800314e:	f997 3007 	ldrsb.w	r3, [r7, #7]
 8003152:	2b00      	cmp	r3, #0
 8003154:	db0b      	blt.n	800316e <__NVIC_EnableIRQ+0x2a>
  {
    __COMPILER_BARRIER();
    NVIC->ISER[(((uint32_t)IRQn) >> 5UL)] = (uint32_t)(1UL << (((uint32_t)IRQn) & 0x1FUL));
 8003156:	79fb      	ldrb	r3, [r7, #7]
 8003158:	f003 021f 	and.w	r2, r3, #31
 800315c:	4907      	ldr	r1, [pc, #28]	; (800317c <__NVIC_EnableIRQ+0x38>)
 800315e:	f997 3007 	ldrsb.w	r3, [r7, #7]
 8003162:	095b      	lsrs	r3, r3, #5
 8003164:	2001      	movs	r0, #1
 8003166:	fa00 f202 	lsl.w	r2, r0, r2
 800316a:	f841 2023 	str.w	r2, [r1, r3, lsl #2]
    __COMPILER_BARRIER();
  }
}
 800316e:	bf00      	nop
 8003170:	370c      	adds	r7, #12
 8003172:	46bd      	mov	sp, r7
 8003174:	f85d 7b04 	ldr.w	r7, [sp], #4
 8003178:	4770      	bx	lr
 800317a:	bf00      	nop
 800317c:	e000e100 	.word	0xe000e100

08003180 <__NVIC_DisableIRQ>:
  \details Disables a device specific interrupt in the NVIC interrupt controller.
  \param [in]      IRQn  Device specific interrupt number.
  \note    IRQn must not be negative.
 */
__STATIC_INLINE void __NVIC_DisableIRQ(IRQn_Type IRQn)
{
 8003180:	b480      	push	{r7}
 8003182:	b083      	sub	sp, #12
 8003184:	af00      	add	r7, sp, #0
 8003186:	4603      	mov	r3, r0
 8003188:	71fb      	strb	r3, [r7, #7]
  if ((int32_t)(IRQn) >= 0)
 800318a:	f997 3007 	ldrsb.w	r3, [r7, #7]
 800318e:	2b00      	cmp	r3, #0
 8003190:	db10      	blt.n	80031b4 <__NVIC_DisableIRQ+0x34>
  {
    NVIC->ICER[(((uint32_t)IRQn) >> 5UL)] = (uint32_t)(1UL << (((uint32_t)IRQn) & 0x1FUL));
 8003192:	79fb      	ldrb	r3, [r7, #7]
 8003194:	f003 021f 	and.w	r2, r3, #31
 8003198:	4909      	ldr	r1, [pc, #36]	; (80031c0 <__NVIC_DisableIRQ+0x40>)
 800319a:	f997 3007 	ldrsb.w	r3, [r7, #7]
 800319e:	095b      	lsrs	r3, r3, #5
 80031a0:	2001      	movs	r0, #1
 80031a2:	fa00 f202 	lsl.w	r2, r0, r2
 80031a6:	3320      	adds	r3, #32
 80031a8:	f841 2023 	str.w	r2, [r1, r3, lsl #2]
  \details Acts as a special kind of Data Memory Barrier.
           It completes when all explicit memory accesses before this instruction complete.
 */
__STATIC_FORCEINLINE void __DSB(void)
{
  __ASM volatile ("dsb 0xF":::"memory");
 80031ac:	f3bf 8f4f 	dsb	sy
  __ASM volatile ("isb 0xF":::"memory");
 80031b0:	f3bf 8f6f 	isb	sy
    __DSB();
    __ISB();
  }
}
 80031b4:	bf00      	nop
 80031b6:	370c      	adds	r7, #12
 80031b8:	46bd      	mov	sp, r7
 80031ba:	f85d 7b04 	ldr.w	r7, [sp], #4
 80031be:	4770      	bx	lr
 80031c0:	e000e100 	.word	0xe000e100

080031c4 <__NVIC_SetPriority>:
  \param [in]      IRQn  Interrupt number.
  \param [in]  priority  Priority to set.
  \note    The priority cannot be set for every processor exception.
 */
__STATIC_INLINE void __NVIC_SetPriority(IRQn_Type IRQn, uint32_t priority)
{
 80031c4:	b480      	push	{r7}
 80031c6:	b083      	sub	sp, #12
 80031c8:	af00      	add	r7, sp, #0
 80031ca:	4603      	mov	r3, r0
 80031cc:	6039      	str	r1, [r7, #0]
 80031ce:	71fb      	strb	r3, [r7, #7]
  if ((int32_t)(IRQn) >= 0)
 80031d0:	f997 3007 	ldrsb.w	r3, [r7, #7]
 80031d4:	2b00      	cmp	r3, #0
 80031d6:	db0a      	blt.n	80031ee <__NVIC_SetPriority+0x2a>
  {
    NVIC->IP[((uint32_t)IRQn)]               = (uint8_t)((priority << (8U - __NVIC_PRIO_BITS)) & (uint32_t)0xFFUL);
 80031d8:	683b      	ldr	r3, [r7, #0]
 80031da:	b2da      	uxtb	r2, r3
 80031dc:	490c      	ldr	r1, [pc, #48]	; (8003210 <__NVIC_SetPriority+0x4c>)
 80031de:	f997 3007 	ldrsb.w	r3, [r7, #7]
 80031e2:	0112      	lsls	r2, r2, #4
 80031e4:	b2d2      	uxtb	r2, r2
 80031e6:	440b      	add	r3, r1
 80031e8:	f883 2300 	strb.w	r2, [r3, #768]	; 0x300
  }
  else
  {
    SCB->SHP[(((uint32_t)IRQn) & 0xFUL)-4UL] = (uint8_t)((priority << (8U - __NVIC_PRIO_BITS)) & (uint32_t)0xFFUL);
  }
}
 80031ec:	e00a      	b.n	8003204 <__NVIC_SetPriority+0x40>
    SCB->SHP[(((uint32_t)IRQn) & 0xFUL)-4UL] = (uint8_t)((priority << (8U - __NVIC_PRIO_BITS)) & (uint32_t)0xFFUL);
 80031ee:	683b      	ldr	r3, [r7, #0]
 80031f0:	b2da      	uxtb	r2, r3
 80031f2:	4908      	ldr	r1, [pc, #32]	; (8003214 <__NVIC_SetPriority+0x50>)
 80031f4:	79fb      	ldrb	r3, [r7, #7]
 80031f6:	f003 030f 	and.w	r3, r3, #15
 80031fa:	3b04      	subs	r3, #4
 80031fc:	0112      	lsls	r2, r2, #4
 80031fe:	b2d2      	uxtb	r2, r2
 8003200:	440b      	add	r3, r1
 8003202:	761a      	strb	r2, [r3, #24]
}
 8003204:	bf00      	nop
 8003206:	370c      	adds	r7, #12
 8003208:	46bd      	mov	sp, r7
 800320a:	f85d 7b04 	ldr.w	r7, [sp], #4
 800320e:	4770      	bx	lr
 8003210:	e000e100 	.word	0xe000e100
 8003214:	e000ed00 	.word	0xe000ed00

08003218 <NVIC_EncodePriority>:
  \param [in]   PreemptPriority  Preemptive priority value (starting from 0).
  \param [in]       SubPriority  Subpriority value (starting from 0).
  \return                        Encoded priority. Value can be used in the function \ref NVIC_SetPriority().
 */
__STATIC_INLINE uint32_t NVIC_EncodePriority (uint32_t PriorityGroup, uint32_t PreemptPriority, uint32_t SubPriority)
{
 8003218:	b480      	push	{r7}
 800321a:	b089      	sub	sp, #36	; 0x24
 800321c:	af00      	add	r7, sp, #0
 800321e:	60f8      	str	r0, [r7, #12]
 8003220:	60b9      	str	r1, [r7, #8]
 8003222:	607a      	str	r2, [r7, #4]
  uint32_t PriorityGroupTmp = (PriorityGroup & (uint32_t)0x07UL);   /* only values 0..7 are used          */
 8003224:	68fb      	ldr	r3, [r7, #12]
 8003226:	f003 0307 	and.w	r3, r3, #7
 800322a:	61fb      	str	r3, [r7, #28]
  uint32_t PreemptPriorityBits;
  uint32_t SubPriorityBits;

  PreemptPriorityBits = ((7UL - PriorityGroupTmp) > (uint32_t)(__NVIC_PRIO_BITS)) ? (uint32_t)(__NVIC_PRIO_BITS) : (uint32_t)(7UL - PriorityGroupTmp);
 800322c:	69fb      	ldr	r3, [r7, #28]
 800322e:	f1c3 0307 	rsb	r3, r3, #7
 8003232:	2b04      	cmp	r3, #4
 8003234:	bf28      	it	cs
 8003236:	2304      	movcs	r3, #4
 8003238:	61bb      	str	r3, [r7, #24]
  SubPriorityBits     = ((PriorityGroupTmp + (uint32_t)(__NVIC_PRIO_BITS)) < (uint32_t)7UL) ? (uint32_t)0UL : (uint32_t)((PriorityGroupTmp - 7UL) + (uint32_t)(__NVIC_PRIO_BITS));
 800323a:	69fb      	ldr	r3, [r7, #28]
 800323c:	3304      	adds	r3, #4
 800323e:	2b06      	cmp	r3, #6
 8003240:	d902      	bls.n	8003248 <NVIC_EncodePriority+0x30>
 8003242:	69fb      	ldr	r3, [r7, #28]
 8003244:	3b03      	subs	r3, #3
 8003246:	e000      	b.n	800324a <NVIC_EncodePriority+0x32>
 8003248:	2300      	movs	r3, #0
 800324a:	617b      	str	r3, [r7, #20]

  return (
           ((PreemptPriority & (uint32_t)((1UL << (PreemptPriorityBits)) - 1UL)) << SubPriorityBits) |
 800324c:	f04f 32ff 	mov.w	r2, #4294967295
 8003250:	69bb      	ldr	r3, [r7, #24]
 8003252:	fa02 f303 	lsl.w	r3, r2, r3
 8003256:	43da      	mvns	r2, r3
 8003258:	68bb      	ldr	r3, [r7, #8]
 800325a:	401a      	ands	r2, r3
 800325c:	697b      	ldr	r3, [r7, #20]
 800325e:	409a      	lsls	r2, r3
           ((SubPriority     & (uint32_t)((1UL << (SubPriorityBits    )) - 1UL)))
 8003260:	f04f 31ff 	mov.w	r1, #4294967295
 8003264:	697b      	ldr	r3, [r7, #20]
 8003266:	fa01 f303 	lsl.w	r3, r1, r3
 800326a:	43d9      	mvns	r1, r3
 800326c:	687b      	ldr	r3, [r7, #4]
 800326e:	400b      	ands	r3, r1
           ((PreemptPriority & (uint32_t)((1UL << (PreemptPriorityBits)) - 1UL)) << SubPriorityBits) |
 8003270:	4313      	orrs	r3, r2
         );
}
 8003272:	4618      	mov	r0, r3
 8003274:	3724      	adds	r7, #36	; 0x24
 8003276:	46bd      	mov	sp, r7
 8003278:	f85d 7b04 	ldr.w	r7, [sp], #4
 800327c:	4770      	bx	lr
	...

08003280 <SysTick_Config>:
  \note    When the variable <b>__Vendor_SysTickConfig</b> is set to 1, then the
           function <b>SysTick_Config</b> is not included. In this case, the file <b><i>device</i>.h</b>
           must contain a vendor-specific implementation of this function.
 */
__STATIC_INLINE uint32_t SysTick_Config(uint32_t ticks)
{
 8003280:	b580      	push	{r7, lr}
 8003282:	b082      	sub	sp, #8
 8003284:	af00      	add	r7, sp, #0
 8003286:	6078      	str	r0, [r7, #4]
  if ((ticks - 1UL) > SysTick_LOAD_RELOAD_Msk)
 8003288:	687b      	ldr	r3, [r7, #4]
 800328a:	3b01      	subs	r3, #1
 800328c:	f1b3 7f80 	cmp.w	r3, #16777216	; 0x1000000
 8003290:	d301      	bcc.n	8003296 <SysTick_Config+0x16>
  {
    return (1UL);                                                   /* Reload value impossible */
 8003292:	2301      	movs	r3, #1
 8003294:	e00f      	b.n	80032b6 <SysTick_Config+0x36>
  }

  SysTick->LOAD  = (uint32_t)(ticks - 1UL);                         /* set reload register */
 8003296:	4a0a      	ldr	r2, [pc, #40]	; (80032c0 <SysTick_Config+0x40>)
 8003298:	687b      	ldr	r3, [r7, #4]
 800329a:	3b01      	subs	r3, #1
 800329c:	6053      	str	r3, [r2, #4]
  NVIC_SetPriority (SysTick_IRQn, (1UL << __NVIC_PRIO_BITS) - 1UL); /* set Priority for Systick Interrupt */
 800329e:	210f      	movs	r1, #15
 80032a0:	f04f 30ff 	mov.w	r0, #4294967295
 80032a4:	f7ff ff8e 	bl	80031c4 <__NVIC_SetPriority>
  SysTick->VAL   = 0UL;                                             /* Load the SysTick Counter Value */
 80032a8:	4b05      	ldr	r3, [pc, #20]	; (80032c0 <SysTick_Config+0x40>)
 80032aa:	2200      	movs	r2, #0
 80032ac:	609a      	str	r2, [r3, #8]
  SysTick->CTRL  = SysTick_CTRL_CLKSOURCE_Msk |
 80032ae:	4b04      	ldr	r3, [pc, #16]	; (80032c0 <SysTick_Config+0x40>)
 80032b0:	2207      	movs	r2, #7
 80032b2:	601a      	str	r2, [r3, #0]
                   SysTick_CTRL_TICKINT_Msk   |
                   SysTick_CTRL_ENABLE_Msk;                         /* Enable SysTick IRQ and SysTick Timer */
  return (0UL);                                                     /* Function successful */
 80032b4:	2300      	movs	r3, #0
}
 80032b6:	4618      	mov	r0, r3
 80032b8:	3708      	adds	r7, #8
 80032ba:	46bd      	mov	sp, r7
 80032bc:	bd80      	pop	{r7, pc}
 80032be:	bf00      	nop
 80032c0:	e000e010 	.word	0xe000e010

080032c4 <HAL_NVIC_SetPriorityGrouping>:
  * @note   When the NVIC_PriorityGroup_0 is selected, IRQ pre-emption is no more possible.
  *         The pending IRQ priority will be managed only by the subpriority.
  * @retval None
  */
void HAL_NVIC_SetPriorityGrouping(uint32_t PriorityGroup)
{
 80032c4:	b580      	push	{r7, lr}
 80032c6:	b082      	sub	sp, #8
 80032c8:	af00      	add	r7, sp, #0
 80032ca:	6078      	str	r0, [r7, #4]
  /* Check the parameters */
  assert_param(IS_NVIC_PRIORITY_GROUP(PriorityGroup));

  /* Set the PRIGROUP[10:8] bits according to the PriorityGroup parameter value */
  NVIC_SetPriorityGrouping(PriorityGroup);
 80032cc:	6878      	ldr	r0, [r7, #4]
 80032ce:	f7ff ff07 	bl	80030e0 <__NVIC_SetPriorityGrouping>
}
 80032d2:	bf00      	nop
 80032d4:	3708      	adds	r7, #8
 80032d6:	46bd      	mov	sp, r7
 80032d8:	bd80      	pop	{r7, pc}

080032da <HAL_NVIC_SetPriority>:
  *         This parameter can be a value between 0 and 15
  *         A lower priority value indicates a higher priority.
  * @retval None
  */
void HAL_NVIC_SetPriority(IRQn_Type IRQn, uint32_t PreemptPriority, uint32_t SubPriority)
{
 80032da:	b580      	push	{r7, lr}
 80032dc:	b086      	sub	sp, #24
 80032de:	af00      	add	r7, sp, #0
 80032e0:	4603      	mov	r3, r0
 80032e2:	60b9      	str	r1, [r7, #8]
 80032e4:	607a      	str	r2, [r7, #4]
 80032e6:	73fb      	strb	r3, [r7, #15]
  uint32_t prioritygroup = 0x00;
 80032e8:	2300      	movs	r3, #0
 80032ea:	617b      	str	r3, [r7, #20]

  /* Check the parameters */
  assert_param(IS_NVIC_SUB_PRIORITY(SubPriority));
  assert_param(IS_NVIC_PREEMPTION_PRIORITY(PreemptPriority));

  prioritygroup = NVIC_GetPriorityGrouping();
 80032ec:	f7ff ff1c 	bl	8003128 <__NVIC_GetPriorityGrouping>
 80032f0:	6178      	str	r0, [r7, #20]

  NVIC_SetPriority(IRQn, NVIC_EncodePriority(prioritygroup, PreemptPriority, SubPriority));
 80032f2:	687a      	ldr	r2, [r7, #4]
 80032f4:	68b9      	ldr	r1, [r7, #8]
 80032f6:	6978      	ldr	r0, [r7, #20]
 80032f8:	f7ff ff8e 	bl	8003218 <NVIC_EncodePriority>
 80032fc:	4602      	mov	r2, r0
 80032fe:	f997 300f 	ldrsb.w	r3, [r7, #15]
 8003302:	4611      	mov	r1, r2
 8003304:	4618      	mov	r0, r3
 8003306:	f7ff ff5d 	bl	80031c4 <__NVIC_SetPriority>
}
 800330a:	bf00      	nop
 800330c:	3718      	adds	r7, #24
 800330e:	46bd      	mov	sp, r7
 8003310:	bd80      	pop	{r7, pc}

08003312 <HAL_NVIC_EnableIRQ>:
  *         This parameter can be an enumerator of IRQn_Type enumeration
  *         (For the complete STM32 Devices IRQ Channels list, please refer to the appropriate CMSIS device file (stm32l4xxxx.h))
  * @retval None
  */
void HAL_NVIC_EnableIRQ(IRQn_Type IRQn)
{
 8003312:	b580      	push	{r7, lr}
 8003314:	b082      	sub	sp, #8
 8003316:	af00      	add	r7, sp, #0
 8003318:	4603      	mov	r3, r0
 800331a:	71fb      	strb	r3, [r7, #7]
  /* Check the parameters */
  assert_param(IS_NVIC_DEVICE_IRQ(IRQn));
  
  /* Enable interrupt */
  NVIC_EnableIRQ(IRQn);
 800331c:	f997 3007 	ldrsb.w	r3, [r7, #7]
 8003320:	4618      	mov	r0, r3
 8003322:	f7ff ff0f 	bl	8003144 <__NVIC_EnableIRQ>
}
 8003326:	bf00      	nop
 8003328:	3708      	adds	r7, #8
 800332a:	46bd      	mov	sp, r7
 800332c:	bd80      	pop	{r7, pc}

0800332e <HAL_NVIC_DisableIRQ>:
  *         This parameter can be an enumerator of IRQn_Type enumeration
  *         (For the complete STM32 Devices IRQ Channels list, please refer to the appropriate CMSIS device file (stm32l4xxxx.h))
  * @retval None
  */
void HAL_NVIC_DisableIRQ(IRQn_Type IRQn)
{
 800332e:	b580      	push	{r7, lr}
 8003330:	b082      	sub	sp, #8
 8003332:	af00      	add	r7, sp, #0
 8003334:	4603      	mov	r3, r0
 8003336:	71fb      	strb	r3, [r7, #7]
  /* Check the parameters */
  assert_param(IS_NVIC_DEVICE_IRQ(IRQn));
  
  /* Disable interrupt */
  NVIC_DisableIRQ(IRQn);
 8003338:	f997 3007 	ldrsb.w	r3, [r7, #7]
 800333c:	4618      	mov	r0, r3
 800333e:	f7ff ff1f 	bl	8003180 <__NVIC_DisableIRQ>
}
 8003342:	bf00      	nop
 8003344:	3708      	adds	r7, #8
 8003346:	46bd      	mov	sp, r7
 8003348:	bd80      	pop	{r7, pc}

0800334a <HAL_SYSTICK_Config>:
  * @param  TicksNumb: Specifies the ticks Number of ticks between two interrupts.
  * @retval status:  - 0  Function succeeded.
  *                  - 1  Function failed.
  */
uint32_t HAL_SYSTICK_Config(uint32_t TicksNumb)
{
 800334a:	b580      	push	{r7, lr}
 800334c:	b082      	sub	sp, #8
 800334e:	af00      	add	r7, sp, #0
 8003350:	6078      	str	r0, [r7, #4]
   return SysTick_Config(TicksNumb);
 8003352:	6878      	ldr	r0, [r7, #4]
 8003354:	f7ff ff94 	bl	8003280 <SysTick_Config>
 8003358:	4603      	mov	r3, r0
}
 800335a:	4618      	mov	r0, r3
 800335c:	3708      	adds	r7, #8
 800335e:	46bd      	mov	sp, r7
 8003360:	bd80      	pop	{r7, pc}
	...

08003364 <HAL_FLASH_Program>:
  *                are stored the data for the row fast program
  *
  * @retval HAL_StatusTypeDef HAL Status
  */
HAL_StatusTypeDef HAL_FLASH_Program(uint32_t TypeProgram, uint32_t Address, uint64_t Data)
{
 8003364:	b580      	push	{r7, lr}
 8003366:	b086      	sub	sp, #24
 8003368:	af00      	add	r7, sp, #0
 800336a:	60f8      	str	r0, [r7, #12]
 800336c:	60b9      	str	r1, [r7, #8]
 800336e:	e9c7 2300 	strd	r2, r3, [r7]
  HAL_StatusTypeDef status;
  uint32_t prog_bit = 0;
 8003372:	2300      	movs	r3, #0
 8003374:	613b      	str	r3, [r7, #16]

  /* Process Locked */
  __HAL_LOCK(&pFlash);
 8003376:	4b2f      	ldr	r3, [pc, #188]	; (8003434 <HAL_FLASH_Program+0xd0>)
 8003378:	781b      	ldrb	r3, [r3, #0]
 800337a:	2b01      	cmp	r3, #1
 800337c:	d101      	bne.n	8003382 <HAL_FLASH_Program+0x1e>
 800337e:	2302      	movs	r3, #2
 8003380:	e053      	b.n	800342a <HAL_FLASH_Program+0xc6>
 8003382:	4b2c      	ldr	r3, [pc, #176]	; (8003434 <HAL_FLASH_Program+0xd0>)
 8003384:	2201      	movs	r2, #1
 8003386:	701a      	strb	r2, [r3, #0]

  /* Check the parameters */
  assert_param(IS_FLASH_TYPEPROGRAM(TypeProgram));

  /* Wait for last operation to be completed */
  status = FLASH_WaitForLastOperation((uint32_t)FLASH_TIMEOUT_VALUE);
 8003388:	f24c 3050 	movw	r0, #50000	; 0xc350
 800338c:	f000 f888 	bl	80034a0 <FLASH_WaitForLastOperation>
 8003390:	4603      	mov	r3, r0
 8003392:	75fb      	strb	r3, [r7, #23]

  if(status == HAL_OK)
 8003394:	7dfb      	ldrb	r3, [r7, #23]
 8003396:	2b00      	cmp	r3, #0
 8003398:	d143      	bne.n	8003422 <HAL_FLASH_Program+0xbe>
  {
    pFlash.ErrorCode = HAL_FLASH_ERROR_NONE;
 800339a:	4b26      	ldr	r3, [pc, #152]	; (8003434 <HAL_FLASH_Program+0xd0>)
 800339c:	2200      	movs	r2, #0
 800339e:	605a      	str	r2, [r3, #4]

    /* Deactivate the data cache if they are activated to avoid data misbehavior */
    if(READ_BIT(FLASH->ACR, FLASH_ACR_DCEN) != 0U)
 80033a0:	4b25      	ldr	r3, [pc, #148]	; (8003438 <HAL_FLASH_Program+0xd4>)
 80033a2:	681b      	ldr	r3, [r3, #0]
 80033a4:	f403 6380 	and.w	r3, r3, #1024	; 0x400
 80033a8:	2b00      	cmp	r3, #0
 80033aa:	d009      	beq.n	80033c0 <HAL_FLASH_Program+0x5c>
    {
      /* Disable data cache  */
      __HAL_FLASH_DATA_CACHE_DISABLE();
 80033ac:	4b22      	ldr	r3, [pc, #136]	; (8003438 <HAL_FLASH_Program+0xd4>)
 80033ae:	681b      	ldr	r3, [r3, #0]
 80033b0:	4a21      	ldr	r2, [pc, #132]	; (8003438 <HAL_FLASH_Program+0xd4>)
 80033b2:	f423 6380 	bic.w	r3, r3, #1024	; 0x400
 80033b6:	6013      	str	r3, [r2, #0]
      pFlash.CacheToReactivate = FLASH_CACHE_DCACHE_ENABLED;
 80033b8:	4b1e      	ldr	r3, [pc, #120]	; (8003434 <HAL_FLASH_Program+0xd0>)
 80033ba:	2202      	movs	r2, #2
 80033bc:	771a      	strb	r2, [r3, #28]
 80033be:	e002      	b.n	80033c6 <HAL_FLASH_Program+0x62>
    }
    else
    {
      pFlash.CacheToReactivate = FLASH_CACHE_DISABLED;
 80033c0:	4b1c      	ldr	r3, [pc, #112]	; (8003434 <HAL_FLASH_Program+0xd0>)
 80033c2:	2200      	movs	r2, #0
 80033c4:	771a      	strb	r2, [r3, #28]
    }

    if(TypeProgram == FLASH_TYPEPROGRAM_DOUBLEWORD)
 80033c6:	68fb      	ldr	r3, [r7, #12]
 80033c8:	2b00      	cmp	r3, #0
 80033ca:	d107      	bne.n	80033dc <HAL_FLASH_Program+0x78>
    {
      /* Program double-word (64-bit) at a specified address */
      FLASH_Program_DoubleWord(Address, Data);
 80033cc:	e9d7 2300 	ldrd	r2, r3, [r7]
 80033d0:	68b8      	ldr	r0, [r7, #8]
 80033d2:	f000 f8bb 	bl	800354c <FLASH_Program_DoubleWord>
      prog_bit = FLASH_CR_PG;
 80033d6:	2301      	movs	r3, #1
 80033d8:	613b      	str	r3, [r7, #16]
 80033da:	e010      	b.n	80033fe <HAL_FLASH_Program+0x9a>
    }
    else if((TypeProgram == FLASH_TYPEPROGRAM_FAST) || (TypeProgram == FLASH_TYPEPROGRAM_FAST_AND_LAST))
 80033dc:	68fb      	ldr	r3, [r7, #12]
 80033de:	2b01      	cmp	r3, #1
 80033e0:	d002      	beq.n	80033e8 <HAL_FLASH_Program+0x84>
 80033e2:	68fb      	ldr	r3, [r7, #12]
 80033e4:	2b02      	cmp	r3, #2
 80033e6:	d10a      	bne.n	80033fe <HAL_FLASH_Program+0x9a>
    {
      /* Fast program a 32 row double-word (64-bit) at a specified address */
      FLASH_Program_Fast(Address, (uint32_t)Data);
 80033e8:	683b      	ldr	r3, [r7, #0]
 80033ea:	4619      	mov	r1, r3
 80033ec:	68b8      	ldr	r0, [r7, #8]
 80033ee:	f000 f8d1 	bl	8003594 <FLASH_Program_Fast>

      /* If it is the last row, the bit will be cleared at the end of the operation */
      if(TypeProgram == FLASH_TYPEPROGRAM_FAST_AND_LAST)
 80033f2:	68fb      	ldr	r3, [r7, #12]
 80033f4:	2b02      	cmp	r3, #2
 80033f6:	d102      	bne.n	80033fe <HAL_FLASH_Program+0x9a>
      {
        prog_bit = FLASH_CR_FSTPG;
 80033f8:	f44f 2380 	mov.w	r3, #262144	; 0x40000
 80033fc:	613b      	str	r3, [r7, #16]
    {
      /* Nothing to do */
    }

    /* Wait for last operation to be completed */
    status = FLASH_WaitForLastOperation((uint32_t)FLASH_TIMEOUT_VALUE);
 80033fe:	f24c 3050 	movw	r0, #50000	; 0xc350
 8003402:	f000 f84d 	bl	80034a0 <FLASH_WaitForLastOperation>
 8003406:	4603      	mov	r3, r0
 8003408:	75fb      	strb	r3, [r7, #23]

    /* If the program operation is completed, disable the PG or FSTPG Bit */
    if (prog_bit != 0U)
 800340a:	693b      	ldr	r3, [r7, #16]
 800340c:	2b00      	cmp	r3, #0
 800340e:	d006      	beq.n	800341e <HAL_FLASH_Program+0xba>
    {
      CLEAR_BIT(FLASH->CR, prog_bit);
 8003410:	4b09      	ldr	r3, [pc, #36]	; (8003438 <HAL_FLASH_Program+0xd4>)
 8003412:	695a      	ldr	r2, [r3, #20]
 8003414:	693b      	ldr	r3, [r7, #16]
 8003416:	43db      	mvns	r3, r3
 8003418:	4907      	ldr	r1, [pc, #28]	; (8003438 <HAL_FLASH_Program+0xd4>)
 800341a:	4013      	ands	r3, r2
 800341c:	614b      	str	r3, [r1, #20]
    }

    /* Flush the caches to be sure of the data consistency */
    FLASH_FlushCaches();
 800341e:	f000 f9ed 	bl	80037fc <FLASH_FlushCaches>
  }

  /* Process Unlocked */
  __HAL_UNLOCK(&pFlash);
 8003422:	4b04      	ldr	r3, [pc, #16]	; (8003434 <HAL_FLASH_Program+0xd0>)
 8003424:	2200      	movs	r2, #0
 8003426:	701a      	strb	r2, [r3, #0]

  return status;
 8003428:	7dfb      	ldrb	r3, [r7, #23]
}
 800342a:	4618      	mov	r0, r3
 800342c:	3718      	adds	r7, #24
 800342e:	46bd      	mov	sp, r7
 8003430:	bd80      	pop	{r7, pc}
 8003432:	bf00      	nop
 8003434:	200002c0 	.word	0x200002c0
 8003438:	40022000 	.word	0x40022000

0800343c <HAL_FLASH_Unlock>:
/**
  * @brief  Unlock the FLASH control register access.
  * @retval HAL Status
  */
HAL_StatusTypeDef HAL_FLASH_Unlock(void)
{
 800343c:	b480      	push	{r7}
 800343e:	b083      	sub	sp, #12
 8003440:	af00      	add	r7, sp, #0
  HAL_StatusTypeDef status = HAL_OK;
 8003442:	2300      	movs	r3, #0
 8003444:	71fb      	strb	r3, [r7, #7]

  if(READ_BIT(FLASH->CR, FLASH_CR_LOCK) != 0U)
 8003446:	4b0b      	ldr	r3, [pc, #44]	; (8003474 <HAL_FLASH_Unlock+0x38>)
 8003448:	695b      	ldr	r3, [r3, #20]
 800344a:	2b00      	cmp	r3, #0
 800344c:	da0b      	bge.n	8003466 <HAL_FLASH_Unlock+0x2a>
  {
    /* Authorize the FLASH Registers access */
    WRITE_REG(FLASH->KEYR, FLASH_KEY1);
 800344e:	4b09      	ldr	r3, [pc, #36]	; (8003474 <HAL_FLASH_Unlock+0x38>)
 8003450:	4a09      	ldr	r2, [pc, #36]	; (8003478 <HAL_FLASH_Unlock+0x3c>)
 8003452:	609a      	str	r2, [r3, #8]
    WRITE_REG(FLASH->KEYR, FLASH_KEY2);
 8003454:	4b07      	ldr	r3, [pc, #28]	; (8003474 <HAL_FLASH_Unlock+0x38>)
 8003456:	4a09      	ldr	r2, [pc, #36]	; (800347c <HAL_FLASH_Unlock+0x40>)
 8003458:	609a      	str	r2, [r3, #8]

    /* Verify Flash is unlocked */
    if(READ_BIT(FLASH->CR, FLASH_CR_LOCK) != 0U)
 800345a:	4b06      	ldr	r3, [pc, #24]	; (8003474 <HAL_FLASH_Unlock+0x38>)
 800345c:	695b      	ldr	r3, [r3, #20]
 800345e:	2b00      	cmp	r3, #0
 8003460:	da01      	bge.n	8003466 <HAL_FLASH_Unlock+0x2a>
    {
      status = HAL_ERROR;
 8003462:	2301      	movs	r3, #1
 8003464:	71fb      	strb	r3, [r7, #7]
    }
  }

  return status;
 8003466:	79fb      	ldrb	r3, [r7, #7]
}
 8003468:	4618      	mov	r0, r3
 800346a:	370c      	adds	r7, #12
 800346c:	46bd      	mov	sp, r7
 800346e:	f85d 7b04 	ldr.w	r7, [sp], #4
 8003472:	4770      	bx	lr
 8003474:	40022000 	.word	0x40022000
 8003478:	45670123 	.word	0x45670123
 800347c:	cdef89ab 	.word	0xcdef89ab

08003480 <HAL_FLASH_Lock>:
/**
  * @brief  Lock the FLASH control register access.
  * @retval HAL Status
  */
HAL_StatusTypeDef HAL_FLASH_Lock(void)
{
 8003480:	b480      	push	{r7}
 8003482:	af00      	add	r7, sp, #0
  /* Set the LOCK Bit to lock the FLASH Registers access */
  SET_BIT(FLASH->CR, FLASH_CR_LOCK);
 8003484:	4b05      	ldr	r3, [pc, #20]	; (800349c <HAL_FLASH_Lock+0x1c>)
 8003486:	695b      	ldr	r3, [r3, #20]
 8003488:	4a04      	ldr	r2, [pc, #16]	; (800349c <HAL_FLASH_Lock+0x1c>)
 800348a:	f043 4300 	orr.w	r3, r3, #2147483648	; 0x80000000
 800348e:	6153      	str	r3, [r2, #20]

  return HAL_OK;
 8003490:	2300      	movs	r3, #0
}
 8003492:	4618      	mov	r0, r3
 8003494:	46bd      	mov	sp, r7
 8003496:	f85d 7b04 	ldr.w	r7, [sp], #4
 800349a:	4770      	bx	lr
 800349c:	40022000 	.word	0x40022000

080034a0 <FLASH_WaitForLastOperation>:
  * @brief  Wait for a FLASH operation to complete.
  * @param  Timeout maximum flash operation timeout
  * @retval HAL_StatusTypeDef HAL Status
  */
HAL_StatusTypeDef FLASH_WaitForLastOperation(uint32_t Timeout)
{
 80034a0:	b580      	push	{r7, lr}
 80034a2:	b084      	sub	sp, #16
 80034a4:	af00      	add	r7, sp, #0
 80034a6:	6078      	str	r0, [r7, #4]
  /* Wait for the FLASH operation to complete by polling on BUSY flag to be reset.
     Even if the FLASH operation fails, the BUSY flag will be reset and an error
     flag will be set */

  uint32_t tickstart = HAL_GetTick();
 80034a8:	f7ff fdec 	bl	8003084 <HAL_GetTick>
 80034ac:	60f8      	str	r0, [r7, #12]
  uint32_t error;

  while(__HAL_FLASH_GET_FLAG(FLASH_FLAG_BSY))
 80034ae:	e00d      	b.n	80034cc <FLASH_WaitForLastOperation+0x2c>
  {
    if(Timeout != HAL_MAX_DELAY)
 80034b0:	687b      	ldr	r3, [r7, #4]
 80034b2:	f1b3 3fff 	cmp.w	r3, #4294967295
 80034b6:	d009      	beq.n	80034cc <FLASH_WaitForLastOperation+0x2c>
    {
      if((HAL_GetTick() - tickstart) >= Timeout)
 80034b8:	f7ff fde4 	bl	8003084 <HAL_GetTick>
 80034bc:	4602      	mov	r2, r0
 80034be:	68fb      	ldr	r3, [r7, #12]
 80034c0:	1ad3      	subs	r3, r2, r3
 80034c2:	687a      	ldr	r2, [r7, #4]
 80034c4:	429a      	cmp	r2, r3
 80034c6:	d801      	bhi.n	80034cc <FLASH_WaitForLastOperation+0x2c>
      {
        return HAL_TIMEOUT;
 80034c8:	2303      	movs	r3, #3
 80034ca:	e037      	b.n	800353c <FLASH_WaitForLastOperation+0x9c>
  while(__HAL_FLASH_GET_FLAG(FLASH_FLAG_BSY))
 80034cc:	4b1d      	ldr	r3, [pc, #116]	; (8003544 <FLASH_WaitForLastOperation+0xa4>)
 80034ce:	691b      	ldr	r3, [r3, #16]
 80034d0:	f403 3380 	and.w	r3, r3, #65536	; 0x10000
 80034d4:	2b00      	cmp	r3, #0
 80034d6:	d1eb      	bne.n	80034b0 <FLASH_WaitForLastOperation+0x10>
      }
    }
  }

  error = (FLASH->SR & FLASH_FLAG_SR_ERRORS);
 80034d8:	4b1a      	ldr	r3, [pc, #104]	; (8003544 <FLASH_WaitForLastOperation+0xa4>)
 80034da:	691a      	ldr	r2, [r3, #16]
 80034dc:	f24c 33fa 	movw	r3, #50170	; 0xc3fa
 80034e0:	4013      	ands	r3, r2
 80034e2:	60bb      	str	r3, [r7, #8]

  if(error != 0u)
 80034e4:	68bb      	ldr	r3, [r7, #8]
 80034e6:	2b00      	cmp	r3, #0
 80034e8:	d01e      	beq.n	8003528 <FLASH_WaitForLastOperation+0x88>
  {
    /*Save the error code*/
    pFlash.ErrorCode |= error;
 80034ea:	4b17      	ldr	r3, [pc, #92]	; (8003548 <FLASH_WaitForLastOperation+0xa8>)
 80034ec:	685a      	ldr	r2, [r3, #4]
 80034ee:	68bb      	ldr	r3, [r7, #8]
 80034f0:	4313      	orrs	r3, r2
 80034f2:	4a15      	ldr	r2, [pc, #84]	; (8003548 <FLASH_WaitForLastOperation+0xa8>)
 80034f4:	6053      	str	r3, [r2, #4]

    /* Clear error programming flags */
    __HAL_FLASH_CLEAR_FLAG(error);
 80034f6:	68bb      	ldr	r3, [r7, #8]
 80034f8:	f003 4340 	and.w	r3, r3, #3221225472	; 0xc0000000
 80034fc:	2b00      	cmp	r3, #0
 80034fe:	d007      	beq.n	8003510 <FLASH_WaitForLastOperation+0x70>
 8003500:	4b10      	ldr	r3, [pc, #64]	; (8003544 <FLASH_WaitForLastOperation+0xa4>)
 8003502:	699a      	ldr	r2, [r3, #24]
 8003504:	68bb      	ldr	r3, [r7, #8]
 8003506:	f003 4340 	and.w	r3, r3, #3221225472	; 0xc0000000
 800350a:	490e      	ldr	r1, [pc, #56]	; (8003544 <FLASH_WaitForLastOperation+0xa4>)
 800350c:	4313      	orrs	r3, r2
 800350e:	618b      	str	r3, [r1, #24]
 8003510:	68bb      	ldr	r3, [r7, #8]
 8003512:	f023 4340 	bic.w	r3, r3, #3221225472	; 0xc0000000
 8003516:	2b00      	cmp	r3, #0
 8003518:	d004      	beq.n	8003524 <FLASH_WaitForLastOperation+0x84>
 800351a:	4a0a      	ldr	r2, [pc, #40]	; (8003544 <FLASH_WaitForLastOperation+0xa4>)
 800351c:	68bb      	ldr	r3, [r7, #8]
 800351e:	f023 4340 	bic.w	r3, r3, #3221225472	; 0xc0000000
 8003522:	6113      	str	r3, [r2, #16]

    return HAL_ERROR;
 8003524:	2301      	movs	r3, #1
 8003526:	e009      	b.n	800353c <FLASH_WaitForLastOperation+0x9c>
  }

  /* Check FLASH End of Operation flag  */
  if (__HAL_FLASH_GET_FLAG(FLASH_FLAG_EOP))
 8003528:	4b06      	ldr	r3, [pc, #24]	; (8003544 <FLASH_WaitForLastOperation+0xa4>)
 800352a:	691b      	ldr	r3, [r3, #16]
 800352c:	f003 0301 	and.w	r3, r3, #1
 8003530:	2b00      	cmp	r3, #0
 8003532:	d002      	beq.n	800353a <FLASH_WaitForLastOperation+0x9a>
  {
    /* Clear FLASH End of Operation pending bit */
    __HAL_FLASH_CLEAR_FLAG(FLASH_FLAG_EOP);
 8003534:	4b03      	ldr	r3, [pc, #12]	; (8003544 <FLASH_WaitForLastOperation+0xa4>)
 8003536:	2201      	movs	r2, #1
 8003538:	611a      	str	r2, [r3, #16]
  }

  /* If there is an error flag set */
  return HAL_OK;
 800353a:	2300      	movs	r3, #0
}
 800353c:	4618      	mov	r0, r3
 800353e:	3710      	adds	r7, #16
 8003540:	46bd      	mov	sp, r7
 8003542:	bd80      	pop	{r7, pc}
 8003544:	40022000 	.word	0x40022000
 8003548:	200002c0 	.word	0x200002c0

0800354c <FLASH_Program_DoubleWord>:
  * @param  Address specifies the address to be programmed.
  * @param  Data specifies the data to be programmed.
  * @retval None
  */
static void FLASH_Program_DoubleWord(uint32_t Address, uint64_t Data)
{
 800354c:	b490      	push	{r4, r7}
 800354e:	b084      	sub	sp, #16
 8003550:	af00      	add	r7, sp, #0
 8003552:	60f8      	str	r0, [r7, #12]
 8003554:	e9c7 2300 	strd	r2, r3, [r7]
  /* Check the parameters */
  assert_param(IS_FLASH_PROGRAM_ADDRESS(Address));

  /* Set PG bit */
  SET_BIT(FLASH->CR, FLASH_CR_PG);
 8003558:	4b0d      	ldr	r3, [pc, #52]	; (8003590 <FLASH_Program_DoubleWord+0x44>)
 800355a:	695b      	ldr	r3, [r3, #20]
 800355c:	4a0c      	ldr	r2, [pc, #48]	; (8003590 <FLASH_Program_DoubleWord+0x44>)
 800355e:	f043 0301 	orr.w	r3, r3, #1
 8003562:	6153      	str	r3, [r2, #20]

  /* Program first word */
  *(__IO uint32_t*)Address = (uint32_t)Data;
 8003564:	68fb      	ldr	r3, [r7, #12]
 8003566:	683a      	ldr	r2, [r7, #0]
 8003568:	601a      	str	r2, [r3, #0]
 800356a:	f3bf 8f6f 	isb	sy
  /* Barrier to ensure programming is performed in 2 steps, in right order
    (independently of compiler optimization behavior) */
  __ISB();

  /* Program second word */
  *(__IO uint32_t*)(Address+4U) = (uint32_t)(Data >> 32);
 800356e:	e9d7 1200 	ldrd	r1, r2, [r7]
 8003572:	f04f 0300 	mov.w	r3, #0
 8003576:	f04f 0400 	mov.w	r4, #0
 800357a:	0013      	movs	r3, r2
 800357c:	2400      	movs	r4, #0
 800357e:	68fa      	ldr	r2, [r7, #12]
 8003580:	3204      	adds	r2, #4
 8003582:	6013      	str	r3, [r2, #0]
}
 8003584:	bf00      	nop
 8003586:	3710      	adds	r7, #16
 8003588:	46bd      	mov	sp, r7
 800358a:	bc90      	pop	{r4, r7}
 800358c:	4770      	bx	lr
 800358e:	bf00      	nop
 8003590:	40022000 	.word	0x40022000

08003594 <FLASH_Program_Fast>:
  * @param  Address specifies the address to be programmed.
  * @param  DataAddress specifies the address where the data are stored.
  * @retval None
  */
static void FLASH_Program_Fast(uint32_t Address, uint32_t DataAddress)
{
 8003594:	b480      	push	{r7}
 8003596:	b089      	sub	sp, #36	; 0x24
 8003598:	af00      	add	r7, sp, #0
 800359a:	6078      	str	r0, [r7, #4]
 800359c:	6039      	str	r1, [r7, #0]
  uint32_t primask_bit;
  uint8_t row_index = (2*FLASH_NB_DOUBLE_WORDS_IN_ROW);
 800359e:	2340      	movs	r3, #64	; 0x40
 80035a0:	77fb      	strb	r3, [r7, #31]
  __IO uint32_t *dest_addr = (__IO uint32_t*)Address;
 80035a2:	687b      	ldr	r3, [r7, #4]
 80035a4:	61bb      	str	r3, [r7, #24]
  __IO uint32_t *src_addr = (__IO uint32_t*)DataAddress;
 80035a6:	683b      	ldr	r3, [r7, #0]
 80035a8:	617b      	str	r3, [r7, #20]

  /* Check the parameters */
  assert_param(IS_FLASH_MAIN_MEM_ADDRESS(Address));

  /* Set FSTPG bit */
  SET_BIT(FLASH->CR, FLASH_CR_FSTPG);
 80035aa:	4b13      	ldr	r3, [pc, #76]	; (80035f8 <FLASH_Program_Fast+0x64>)
 80035ac:	695b      	ldr	r3, [r3, #20]
 80035ae:	4a12      	ldr	r2, [pc, #72]	; (80035f8 <FLASH_Program_Fast+0x64>)
 80035b0:	f443 2380 	orr.w	r3, r3, #262144	; 0x40000
 80035b4:	6153      	str	r3, [r2, #20]
  __ASM volatile ("MRS %0, primask" : "=r" (result) :: "memory");
 80035b6:	f3ef 8310 	mrs	r3, PRIMASK
 80035ba:	60fb      	str	r3, [r7, #12]
  return(result);
 80035bc:	68fb      	ldr	r3, [r7, #12]

  /* Disable interrupts to avoid any interruption during the loop */
  primask_bit = __get_PRIMASK();
 80035be:	613b      	str	r3, [r7, #16]
  __ASM volatile ("cpsid i" : : : "memory");
 80035c0:	b672      	cpsid	i
  __disable_irq();

  /* Program the double word of the row */
  do
  {
    *dest_addr = *src_addr;
 80035c2:	697b      	ldr	r3, [r7, #20]
 80035c4:	681a      	ldr	r2, [r3, #0]
 80035c6:	69bb      	ldr	r3, [r7, #24]
 80035c8:	601a      	str	r2, [r3, #0]
    dest_addr++;
 80035ca:	69bb      	ldr	r3, [r7, #24]
 80035cc:	3304      	adds	r3, #4
 80035ce:	61bb      	str	r3, [r7, #24]
    src_addr++;
 80035d0:	697b      	ldr	r3, [r7, #20]
 80035d2:	3304      	adds	r3, #4
 80035d4:	617b      	str	r3, [r7, #20]
    row_index--;
 80035d6:	7ffb      	ldrb	r3, [r7, #31]
 80035d8:	3b01      	subs	r3, #1
 80035da:	77fb      	strb	r3, [r7, #31]
  } while (row_index != 0U);
 80035dc:	7ffb      	ldrb	r3, [r7, #31]
 80035de:	2b00      	cmp	r3, #0
 80035e0:	d1ef      	bne.n	80035c2 <FLASH_Program_Fast+0x2e>
 80035e2:	693b      	ldr	r3, [r7, #16]
 80035e4:	60bb      	str	r3, [r7, #8]
  __ASM volatile ("MSR primask, %0" : : "r" (priMask) : "memory");
 80035e6:	68bb      	ldr	r3, [r7, #8]
 80035e8:	f383 8810 	msr	PRIMASK, r3

  /* Re-enable the interrupts */
  __set_PRIMASK(primask_bit);
}
 80035ec:	bf00      	nop
 80035ee:	3724      	adds	r7, #36	; 0x24
 80035f0:	46bd      	mov	sp, r7
 80035f2:	f85d 7b04 	ldr.w	r7, [sp], #4
 80035f6:	4770      	bx	lr
 80035f8:	40022000 	.word	0x40022000

080035fc <HAL_FLASHEx_Erase>:
  *         the pages have been correctly erased)
  *
  * @retval HAL Status
  */
HAL_StatusTypeDef HAL_FLASHEx_Erase(FLASH_EraseInitTypeDef *pEraseInit, uint32_t *PageError)
{
 80035fc:	b580      	push	{r7, lr}
 80035fe:	b084      	sub	sp, #16
 8003600:	af00      	add	r7, sp, #0
 8003602:	6078      	str	r0, [r7, #4]
 8003604:	6039      	str	r1, [r7, #0]
  HAL_StatusTypeDef status;
  uint32_t page_index;

  /* Process Locked */
  __HAL_LOCK(&pFlash);
 8003606:	4b4c      	ldr	r3, [pc, #304]	; (8003738 <HAL_FLASHEx_Erase+0x13c>)
 8003608:	781b      	ldrb	r3, [r3, #0]
 800360a:	2b01      	cmp	r3, #1
 800360c:	d101      	bne.n	8003612 <HAL_FLASHEx_Erase+0x16>
 800360e:	2302      	movs	r3, #2
 8003610:	e08d      	b.n	800372e <HAL_FLASHEx_Erase+0x132>
 8003612:	4b49      	ldr	r3, [pc, #292]	; (8003738 <HAL_FLASHEx_Erase+0x13c>)
 8003614:	2201      	movs	r2, #1
 8003616:	701a      	strb	r2, [r3, #0]

  /* Check the parameters */
  assert_param(IS_FLASH_TYPEERASE(pEraseInit->TypeErase));

  /* Wait for last operation to be completed */
  status = FLASH_WaitForLastOperation((uint32_t)FLASH_TIMEOUT_VALUE);
 8003618:	f24c 3050 	movw	r0, #50000	; 0xc350
 800361c:	f7ff ff40 	bl	80034a0 <FLASH_WaitForLastOperation>
 8003620:	4603      	mov	r3, r0
 8003622:	73fb      	strb	r3, [r7, #15]

  if (status == HAL_OK)
 8003624:	7bfb      	ldrb	r3, [r7, #15]
 8003626:	2b00      	cmp	r3, #0
 8003628:	d17d      	bne.n	8003726 <HAL_FLASHEx_Erase+0x12a>
  {
    pFlash.ErrorCode = HAL_FLASH_ERROR_NONE;
 800362a:	4b43      	ldr	r3, [pc, #268]	; (8003738 <HAL_FLASHEx_Erase+0x13c>)
 800362c:	2200      	movs	r2, #0
 800362e:	605a      	str	r2, [r3, #4]

    /* Deactivate the cache if they are activated to avoid data misbehavior */
    if(READ_BIT(FLASH->ACR, FLASH_ACR_ICEN) != 0U)
 8003630:	4b42      	ldr	r3, [pc, #264]	; (800373c <HAL_FLASHEx_Erase+0x140>)
 8003632:	681b      	ldr	r3, [r3, #0]
 8003634:	f403 7300 	and.w	r3, r3, #512	; 0x200
 8003638:	2b00      	cmp	r3, #0
 800363a:	d019      	beq.n	8003670 <HAL_FLASHEx_Erase+0x74>
    {
      /* Disable instruction cache  */
      __HAL_FLASH_INSTRUCTION_CACHE_DISABLE();
 800363c:	4b3f      	ldr	r3, [pc, #252]	; (800373c <HAL_FLASHEx_Erase+0x140>)
 800363e:	681b      	ldr	r3, [r3, #0]
 8003640:	4a3e      	ldr	r2, [pc, #248]	; (800373c <HAL_FLASHEx_Erase+0x140>)
 8003642:	f423 7300 	bic.w	r3, r3, #512	; 0x200
 8003646:	6013      	str	r3, [r2, #0]

      if(READ_BIT(FLASH->ACR, FLASH_ACR_DCEN) != 0U)
 8003648:	4b3c      	ldr	r3, [pc, #240]	; (800373c <HAL_FLASHEx_Erase+0x140>)
 800364a:	681b      	ldr	r3, [r3, #0]
 800364c:	f403 6380 	and.w	r3, r3, #1024	; 0x400
 8003650:	2b00      	cmp	r3, #0
 8003652:	d009      	beq.n	8003668 <HAL_FLASHEx_Erase+0x6c>
      {
        /* Disable data cache  */
        __HAL_FLASH_DATA_CACHE_DISABLE();
 8003654:	4b39      	ldr	r3, [pc, #228]	; (800373c <HAL_FLASHEx_Erase+0x140>)
 8003656:	681b      	ldr	r3, [r3, #0]
 8003658:	4a38      	ldr	r2, [pc, #224]	; (800373c <HAL_FLASHEx_Erase+0x140>)
 800365a:	f423 6380 	bic.w	r3, r3, #1024	; 0x400
 800365e:	6013      	str	r3, [r2, #0]
        pFlash.CacheToReactivate = FLASH_CACHE_ICACHE_DCACHE_ENABLED;
 8003660:	4b35      	ldr	r3, [pc, #212]	; (8003738 <HAL_FLASHEx_Erase+0x13c>)
 8003662:	2203      	movs	r2, #3
 8003664:	771a      	strb	r2, [r3, #28]
 8003666:	e016      	b.n	8003696 <HAL_FLASHEx_Erase+0x9a>
      }
      else
      {
        pFlash.CacheToReactivate = FLASH_CACHE_ICACHE_ENABLED;
 8003668:	4b33      	ldr	r3, [pc, #204]	; (8003738 <HAL_FLASHEx_Erase+0x13c>)
 800366a:	2201      	movs	r2, #1
 800366c:	771a      	strb	r2, [r3, #28]
 800366e:	e012      	b.n	8003696 <HAL_FLASHEx_Erase+0x9a>
      }
    }
    else if(READ_BIT(FLASH->ACR, FLASH_ACR_DCEN) != 0U)
 8003670:	4b32      	ldr	r3, [pc, #200]	; (800373c <HAL_FLASHEx_Erase+0x140>)
 8003672:	681b      	ldr	r3, [r3, #0]
 8003674:	f403 6380 	and.w	r3, r3, #1024	; 0x400
 8003678:	2b00      	cmp	r3, #0
 800367a:	d009      	beq.n	8003690 <HAL_FLASHEx_Erase+0x94>
    {
      /* Disable data cache  */
      __HAL_FLASH_DATA_CACHE_DISABLE();
 800367c:	4b2f      	ldr	r3, [pc, #188]	; (800373c <HAL_FLASHEx_Erase+0x140>)
 800367e:	681b      	ldr	r3, [r3, #0]
 8003680:	4a2e      	ldr	r2, [pc, #184]	; (800373c <HAL_FLASHEx_Erase+0x140>)
 8003682:	f423 6380 	bic.w	r3, r3, #1024	; 0x400
 8003686:	6013      	str	r3, [r2, #0]
      pFlash.CacheToReactivate = FLASH_CACHE_DCACHE_ENABLED;
 8003688:	4b2b      	ldr	r3, [pc, #172]	; (8003738 <HAL_FLASHEx_Erase+0x13c>)
 800368a:	2202      	movs	r2, #2
 800368c:	771a      	strb	r2, [r3, #28]
 800368e:	e002      	b.n	8003696 <HAL_FLASHEx_Erase+0x9a>
    }
    else
    {
      pFlash.CacheToReactivate = FLASH_CACHE_DISABLED;
 8003690:	4b29      	ldr	r3, [pc, #164]	; (8003738 <HAL_FLASHEx_Erase+0x13c>)
 8003692:	2200      	movs	r2, #0
 8003694:	771a      	strb	r2, [r3, #28]
    }

    if (pEraseInit->TypeErase == FLASH_TYPEERASE_MASSERASE)
 8003696:	687b      	ldr	r3, [r7, #4]
 8003698:	681b      	ldr	r3, [r3, #0]
 800369a:	2b01      	cmp	r3, #1
 800369c:	d113      	bne.n	80036c6 <HAL_FLASHEx_Erase+0xca>
    {
      /* Mass erase to be done */
      FLASH_MassErase(pEraseInit->Banks);
 800369e:	687b      	ldr	r3, [r7, #4]
 80036a0:	685b      	ldr	r3, [r3, #4]
 80036a2:	4618      	mov	r0, r3
 80036a4:	f000 f84c 	bl	8003740 <FLASH_MassErase>

      /* Wait for last operation to be completed */
      status = FLASH_WaitForLastOperation((uint32_t)FLASH_TIMEOUT_VALUE);
 80036a8:	f24c 3050 	movw	r0, #50000	; 0xc350
 80036ac:	f7ff fef8 	bl	80034a0 <FLASH_WaitForLastOperation>
 80036b0:	4603      	mov	r3, r0
 80036b2:	73fb      	strb	r3, [r7, #15]
#if defined (STM32L471xx) || defined (STM32L475xx) || defined (STM32L476xx) || defined (STM32L485xx) || defined (STM32L486xx) || \
    defined (STM32L496xx) || defined (STM32L4A6xx) || \
    defined (STM32L4P5xx) || defined (STM32L4Q5xx) || \
    defined (STM32L4R5xx) || defined (STM32L4R7xx) || defined (STM32L4R9xx) || defined (STM32L4S5xx) || defined (STM32L4S7xx) || defined (STM32L4S9xx)
      /* If the erase operation is completed, disable the MER1 and MER2 Bits */
      CLEAR_BIT(FLASH->CR, (FLASH_CR_MER1 | FLASH_CR_MER2));
 80036b4:	4b21      	ldr	r3, [pc, #132]	; (800373c <HAL_FLASHEx_Erase+0x140>)
 80036b6:	695b      	ldr	r3, [r3, #20]
 80036b8:	4a20      	ldr	r2, [pc, #128]	; (800373c <HAL_FLASHEx_Erase+0x140>)
 80036ba:	f423 4300 	bic.w	r3, r3, #32768	; 0x8000
 80036be:	f023 0304 	bic.w	r3, r3, #4
 80036c2:	6153      	str	r3, [r2, #20]
 80036c4:	e02d      	b.n	8003722 <HAL_FLASHEx_Erase+0x126>
#endif
    }
    else
    {
      /*Initialization of PageError variable*/
      *PageError = 0xFFFFFFFFU;
 80036c6:	683b      	ldr	r3, [r7, #0]
 80036c8:	f04f 32ff 	mov.w	r2, #4294967295
 80036cc:	601a      	str	r2, [r3, #0]

      for(page_index = pEraseInit->Page; page_index < (pEraseInit->Page + pEraseInit->NbPages); page_index++)
 80036ce:	687b      	ldr	r3, [r7, #4]
 80036d0:	689b      	ldr	r3, [r3, #8]
 80036d2:	60bb      	str	r3, [r7, #8]
 80036d4:	e01d      	b.n	8003712 <HAL_FLASHEx_Erase+0x116>
      {
        FLASH_PageErase(page_index, pEraseInit->Banks);
 80036d6:	687b      	ldr	r3, [r7, #4]
 80036d8:	685b      	ldr	r3, [r3, #4]
 80036da:	4619      	mov	r1, r3
 80036dc:	68b8      	ldr	r0, [r7, #8]
 80036de:	f000 f857 	bl	8003790 <FLASH_PageErase>

        /* Wait for last operation to be completed */
        status = FLASH_WaitForLastOperation((uint32_t)FLASH_TIMEOUT_VALUE);
 80036e2:	f24c 3050 	movw	r0, #50000	; 0xc350
 80036e6:	f7ff fedb 	bl	80034a0 <FLASH_WaitForLastOperation>
 80036ea:	4603      	mov	r3, r0
 80036ec:	73fb      	strb	r3, [r7, #15]

        /* If the erase operation is completed, disable the PER Bit */
        CLEAR_BIT(FLASH->CR, (FLASH_CR_PER | FLASH_CR_PNB));
 80036ee:	4b13      	ldr	r3, [pc, #76]	; (800373c <HAL_FLASHEx_Erase+0x140>)
 80036f0:	695b      	ldr	r3, [r3, #20]
 80036f2:	4a12      	ldr	r2, [pc, #72]	; (800373c <HAL_FLASHEx_Erase+0x140>)
 80036f4:	f423 63ff 	bic.w	r3, r3, #2040	; 0x7f8
 80036f8:	f023 0302 	bic.w	r3, r3, #2
 80036fc:	6153      	str	r3, [r2, #20]

        if (status != HAL_OK)
 80036fe:	7bfb      	ldrb	r3, [r7, #15]
 8003700:	2b00      	cmp	r3, #0
 8003702:	d003      	beq.n	800370c <HAL_FLASHEx_Erase+0x110>
        {
          /* In case of error, stop erase procedure and return the faulty address */
          *PageError = page_index;
 8003704:	683b      	ldr	r3, [r7, #0]
 8003706:	68ba      	ldr	r2, [r7, #8]
 8003708:	601a      	str	r2, [r3, #0]
          break;
 800370a:	e00a      	b.n	8003722 <HAL_FLASHEx_Erase+0x126>
      for(page_index = pEraseInit->Page; page_index < (pEraseInit->Page + pEraseInit->NbPages); page_index++)
 800370c:	68bb      	ldr	r3, [r7, #8]
 800370e:	3301      	adds	r3, #1
 8003710:	60bb      	str	r3, [r7, #8]
 8003712:	687b      	ldr	r3, [r7, #4]
 8003714:	689a      	ldr	r2, [r3, #8]
 8003716:	687b      	ldr	r3, [r7, #4]
 8003718:	68db      	ldr	r3, [r3, #12]
 800371a:	4413      	add	r3, r2
 800371c:	68ba      	ldr	r2, [r7, #8]
 800371e:	429a      	cmp	r2, r3
 8003720:	d3d9      	bcc.n	80036d6 <HAL_FLASHEx_Erase+0xda>
        }
      }
    }

    /* Flush the caches to be sure of the data consistency */
    FLASH_FlushCaches();
 8003722:	f000 f86b 	bl	80037fc <FLASH_FlushCaches>
  }

  /* Process Unlocked */
  __HAL_UNLOCK(&pFlash);
 8003726:	4b04      	ldr	r3, [pc, #16]	; (8003738 <HAL_FLASHEx_Erase+0x13c>)
 8003728:	2200      	movs	r2, #0
 800372a:	701a      	strb	r2, [r3, #0]

  return status;
 800372c:	7bfb      	ldrb	r3, [r7, #15]
}
 800372e:	4618      	mov	r0, r3
 8003730:	3710      	adds	r7, #16
 8003732:	46bd      	mov	sp, r7
 8003734:	bd80      	pop	{r7, pc}
 8003736:	bf00      	nop
 8003738:	200002c0 	.word	0x200002c0
 800373c:	40022000 	.word	0x40022000

08003740 <FLASH_MassErase>:
  *            @arg FLASH_BANK_2: Bank2 to be erased
  *            @arg FLASH_BANK_BOTH: Bank1 and Bank2 to be erased
  * @retval None
  */
static void FLASH_MassErase(uint32_t Banks)
{
 8003740:	b480      	push	{r7}
 8003742:	b083      	sub	sp, #12
 8003744:	af00      	add	r7, sp, #0
 8003746:	6078      	str	r0, [r7, #4]
  {
    /* Check the parameters */
    assert_param(IS_FLASH_BANK(Banks));

    /* Set the Mass Erase Bit for the bank 1 if requested */
    if((Banks & FLASH_BANK_1) != 0U)
 8003748:	687b      	ldr	r3, [r7, #4]
 800374a:	f003 0301 	and.w	r3, r3, #1
 800374e:	2b00      	cmp	r3, #0
 8003750:	d005      	beq.n	800375e <FLASH_MassErase+0x1e>
    {
      SET_BIT(FLASH->CR, FLASH_CR_MER1);
 8003752:	4b0e      	ldr	r3, [pc, #56]	; (800378c <FLASH_MassErase+0x4c>)
 8003754:	695b      	ldr	r3, [r3, #20]
 8003756:	4a0d      	ldr	r2, [pc, #52]	; (800378c <FLASH_MassErase+0x4c>)
 8003758:	f043 0304 	orr.w	r3, r3, #4
 800375c:	6153      	str	r3, [r2, #20]
#if defined (STM32L471xx) || defined (STM32L475xx) || defined (STM32L476xx) || defined (STM32L485xx) || defined (STM32L486xx) || \
    defined (STM32L496xx) || defined (STM32L4A6xx) || \
    defined (STM32L4P5xx) || defined (STM32L4Q5xx) || \
    defined (STM32L4R5xx) || defined (STM32L4R7xx) || defined (STM32L4R9xx) || defined (STM32L4S5xx) || defined (STM32L4S7xx) || defined (STM32L4S9xx)
    /* Set the Mass Erase Bit for the bank 2 if requested */
    if((Banks & FLASH_BANK_2) != 0U)
 800375e:	687b      	ldr	r3, [r7, #4]
 8003760:	f003 0302 	and.w	r3, r3, #2
 8003764:	2b00      	cmp	r3, #0
 8003766:	d005      	beq.n	8003774 <FLASH_MassErase+0x34>
    {
      SET_BIT(FLASH->CR, FLASH_CR_MER2);
 8003768:	4b08      	ldr	r3, [pc, #32]	; (800378c <FLASH_MassErase+0x4c>)
 800376a:	695b      	ldr	r3, [r3, #20]
 800376c:	4a07      	ldr	r2, [pc, #28]	; (800378c <FLASH_MassErase+0x4c>)
 800376e:	f443 4300 	orr.w	r3, r3, #32768	; 0x8000
 8003772:	6153      	str	r3, [r2, #20]
    SET_BIT(FLASH->CR, (FLASH_CR_MER1 | FLASH_CR_MER2));
  }
#endif

  /* Proceed to erase all sectors */
  SET_BIT(FLASH->CR, FLASH_CR_STRT);
 8003774:	4b05      	ldr	r3, [pc, #20]	; (800378c <FLASH_MassErase+0x4c>)
 8003776:	695b      	ldr	r3, [r3, #20]
 8003778:	4a04      	ldr	r2, [pc, #16]	; (800378c <FLASH_MassErase+0x4c>)
 800377a:	f443 3380 	orr.w	r3, r3, #65536	; 0x10000
 800377e:	6153      	str	r3, [r2, #20]
}
 8003780:	bf00      	nop
 8003782:	370c      	adds	r7, #12
 8003784:	46bd      	mov	sp, r7
 8003786:	f85d 7b04 	ldr.w	r7, [sp], #4
 800378a:	4770      	bx	lr
 800378c:	40022000 	.word	0x40022000

08003790 <FLASH_PageErase>:
  *            @arg FLASH_BANK_1: Page in bank 1 to be erased
  *            @arg FLASH_BANK_2: Page in bank 2 to be erased
  * @retval None
  */
void FLASH_PageErase(uint32_t Page, uint32_t Banks)
{
 8003790:	b480      	push	{r7}
 8003792:	b083      	sub	sp, #12
 8003794:	af00      	add	r7, sp, #0
 8003796:	6078      	str	r0, [r7, #4]
 8003798:	6039      	str	r1, [r7, #0]
  else
#endif
  {
    assert_param(IS_FLASH_BANK_EXCLUSIVE(Banks));

    if((Banks & FLASH_BANK_1) != 0U)
 800379a:	683b      	ldr	r3, [r7, #0]
 800379c:	f003 0301 	and.w	r3, r3, #1
 80037a0:	2b00      	cmp	r3, #0
 80037a2:	d006      	beq.n	80037b2 <FLASH_PageErase+0x22>
    {
      CLEAR_BIT(FLASH->CR, FLASH_CR_BKER);
 80037a4:	4b14      	ldr	r3, [pc, #80]	; (80037f8 <FLASH_PageErase+0x68>)
 80037a6:	695b      	ldr	r3, [r3, #20]
 80037a8:	4a13      	ldr	r2, [pc, #76]	; (80037f8 <FLASH_PageErase+0x68>)
 80037aa:	f423 6300 	bic.w	r3, r3, #2048	; 0x800
 80037ae:	6153      	str	r3, [r2, #20]
 80037b0:	e005      	b.n	80037be <FLASH_PageErase+0x2e>
    }
    else
    {
      SET_BIT(FLASH->CR, FLASH_CR_BKER);
 80037b2:	4b11      	ldr	r3, [pc, #68]	; (80037f8 <FLASH_PageErase+0x68>)
 80037b4:	695b      	ldr	r3, [r3, #20]
 80037b6:	4a10      	ldr	r2, [pc, #64]	; (80037f8 <FLASH_PageErase+0x68>)
 80037b8:	f443 6300 	orr.w	r3, r3, #2048	; 0x800
 80037bc:	6153      	str	r3, [r2, #20]
  /* Prevent unused argument(s) compilation warning */
  UNUSED(Banks);
#endif

  /* Proceed to erase the page */
  MODIFY_REG(FLASH->CR, FLASH_CR_PNB, ((Page & 0xFFU) << FLASH_CR_PNB_Pos));
 80037be:	4b0e      	ldr	r3, [pc, #56]	; (80037f8 <FLASH_PageErase+0x68>)
 80037c0:	695b      	ldr	r3, [r3, #20]
 80037c2:	f423 62ff 	bic.w	r2, r3, #2040	; 0x7f8
 80037c6:	687b      	ldr	r3, [r7, #4]
 80037c8:	00db      	lsls	r3, r3, #3
 80037ca:	f403 63ff 	and.w	r3, r3, #2040	; 0x7f8
 80037ce:	490a      	ldr	r1, [pc, #40]	; (80037f8 <FLASH_PageErase+0x68>)
 80037d0:	4313      	orrs	r3, r2
 80037d2:	614b      	str	r3, [r1, #20]
  SET_BIT(FLASH->CR, FLASH_CR_PER);
 80037d4:	4b08      	ldr	r3, [pc, #32]	; (80037f8 <FLASH_PageErase+0x68>)
 80037d6:	695b      	ldr	r3, [r3, #20]
 80037d8:	4a07      	ldr	r2, [pc, #28]	; (80037f8 <FLASH_PageErase+0x68>)
 80037da:	f043 0302 	orr.w	r3, r3, #2
 80037de:	6153      	str	r3, [r2, #20]
  SET_BIT(FLASH->CR, FLASH_CR_STRT);
 80037e0:	4b05      	ldr	r3, [pc, #20]	; (80037f8 <FLASH_PageErase+0x68>)
 80037e2:	695b      	ldr	r3, [r3, #20]
 80037e4:	4a04      	ldr	r2, [pc, #16]	; (80037f8 <FLASH_PageErase+0x68>)
 80037e6:	f443 3380 	orr.w	r3, r3, #65536	; 0x10000
 80037ea:	6153      	str	r3, [r2, #20]
}
 80037ec:	bf00      	nop
 80037ee:	370c      	adds	r7, #12
 80037f0:	46bd      	mov	sp, r7
 80037f2:	f85d 7b04 	ldr.w	r7, [sp], #4
 80037f6:	4770      	bx	lr
 80037f8:	40022000 	.word	0x40022000

080037fc <FLASH_FlushCaches>:
/**
  * @brief  Flush the instruction and data caches.
  * @retval None
  */
void FLASH_FlushCaches(void)
{
 80037fc:	b480      	push	{r7}
 80037fe:	b083      	sub	sp, #12
 8003800:	af00      	add	r7, sp, #0
  FLASH_CacheTypeDef cache = pFlash.CacheToReactivate;
 8003802:	4b1e      	ldr	r3, [pc, #120]	; (800387c <FLASH_FlushCaches+0x80>)
 8003804:	7f1b      	ldrb	r3, [r3, #28]
 8003806:	71fb      	strb	r3, [r7, #7]

  /* Flush instruction cache  */
  if((cache == FLASH_CACHE_ICACHE_ENABLED) ||
 8003808:	79fb      	ldrb	r3, [r7, #7]
 800380a:	2b01      	cmp	r3, #1
 800380c:	d002      	beq.n	8003814 <FLASH_FlushCaches+0x18>
 800380e:	79fb      	ldrb	r3, [r7, #7]
 8003810:	2b03      	cmp	r3, #3
 8003812:	d111      	bne.n	8003838 <FLASH_FlushCaches+0x3c>
     (cache == FLASH_CACHE_ICACHE_DCACHE_ENABLED))
  {
    /* Reset instruction cache */
    __HAL_FLASH_INSTRUCTION_CACHE_RESET();
 8003814:	4b1a      	ldr	r3, [pc, #104]	; (8003880 <FLASH_FlushCaches+0x84>)
 8003816:	681b      	ldr	r3, [r3, #0]
 8003818:	4a19      	ldr	r2, [pc, #100]	; (8003880 <FLASH_FlushCaches+0x84>)
 800381a:	f443 6300 	orr.w	r3, r3, #2048	; 0x800
 800381e:	6013      	str	r3, [r2, #0]
 8003820:	4b17      	ldr	r3, [pc, #92]	; (8003880 <FLASH_FlushCaches+0x84>)
 8003822:	681b      	ldr	r3, [r3, #0]
 8003824:	4a16      	ldr	r2, [pc, #88]	; (8003880 <FLASH_FlushCaches+0x84>)
 8003826:	f423 6300 	bic.w	r3, r3, #2048	; 0x800
 800382a:	6013      	str	r3, [r2, #0]
    /* Enable instruction cache */
    __HAL_FLASH_INSTRUCTION_CACHE_ENABLE();
 800382c:	4b14      	ldr	r3, [pc, #80]	; (8003880 <FLASH_FlushCaches+0x84>)
 800382e:	681b      	ldr	r3, [r3, #0]
 8003830:	4a13      	ldr	r2, [pc, #76]	; (8003880 <FLASH_FlushCaches+0x84>)
 8003832:	f443 7300 	orr.w	r3, r3, #512	; 0x200
 8003836:	6013      	str	r3, [r2, #0]
  }

  /* Flush data cache */
  if((cache == FLASH_CACHE_DCACHE_ENABLED) ||
 8003838:	79fb      	ldrb	r3, [r7, #7]
 800383a:	2b02      	cmp	r3, #2
 800383c:	d002      	beq.n	8003844 <FLASH_FlushCaches+0x48>
 800383e:	79fb      	ldrb	r3, [r7, #7]
 8003840:	2b03      	cmp	r3, #3
 8003842:	d111      	bne.n	8003868 <FLASH_FlushCaches+0x6c>
     (cache == FLASH_CACHE_ICACHE_DCACHE_ENABLED))
  {
    /* Reset data cache */
    __HAL_FLASH_DATA_CACHE_RESET();
 8003844:	4b0e      	ldr	r3, [pc, #56]	; (8003880 <FLASH_FlushCaches+0x84>)
 8003846:	681b      	ldr	r3, [r3, #0]
 8003848:	4a0d      	ldr	r2, [pc, #52]	; (8003880 <FLASH_FlushCaches+0x84>)
 800384a:	f443 5380 	orr.w	r3, r3, #4096	; 0x1000
 800384e:	6013      	str	r3, [r2, #0]
 8003850:	4b0b      	ldr	r3, [pc, #44]	; (8003880 <FLASH_FlushCaches+0x84>)
 8003852:	681b      	ldr	r3, [r3, #0]
 8003854:	4a0a      	ldr	r2, [pc, #40]	; (8003880 <FLASH_FlushCaches+0x84>)
 8003856:	f423 5380 	bic.w	r3, r3, #4096	; 0x1000
 800385a:	6013      	str	r3, [r2, #0]
    /* Enable data cache */
    __HAL_FLASH_DATA_CACHE_ENABLE();
 800385c:	4b08      	ldr	r3, [pc, #32]	; (8003880 <FLASH_FlushCaches+0x84>)
 800385e:	681b      	ldr	r3, [r3, #0]
 8003860:	4a07      	ldr	r2, [pc, #28]	; (8003880 <FLASH_FlushCaches+0x84>)
 8003862:	f443 6380 	orr.w	r3, r3, #1024	; 0x400
 8003866:	6013      	str	r3, [r2, #0]
  }

  /* Reset internal variable */
  pFlash.CacheToReactivate = FLASH_CACHE_DISABLED;
 8003868:	4b04      	ldr	r3, [pc, #16]	; (800387c <FLASH_FlushCaches+0x80>)
 800386a:	2200      	movs	r2, #0
 800386c:	771a      	strb	r2, [r3, #28]
}
 800386e:	bf00      	nop
 8003870:	370c      	adds	r7, #12
 8003872:	46bd      	mov	sp, r7
 8003874:	f85d 7b04 	ldr.w	r7, [sp], #4
 8003878:	4770      	bx	lr
 800387a:	bf00      	nop
 800387c:	200002c0 	.word	0x200002c0
 8003880:	40022000 	.word	0x40022000

08003884 <HAL_GPIO_Init>:
  * @param  GPIO_Init pointer to a GPIO_InitTypeDef structure that contains
  *         the configuration information for the specified GPIO peripheral.
  * @retval None
  */
void HAL_GPIO_Init(GPIO_TypeDef  *GPIOx, GPIO_InitTypeDef *GPIO_Init)
{
 8003884:	b480      	push	{r7}
 8003886:	b087      	sub	sp, #28
 8003888:	af00      	add	r7, sp, #0
 800388a:	6078      	str	r0, [r7, #4]
 800388c:	6039      	str	r1, [r7, #0]
  uint32_t position = 0x00u;
 800388e:	2300      	movs	r3, #0
 8003890:	617b      	str	r3, [r7, #20]
  assert_param(IS_GPIO_PIN(GPIO_Init->Pin));
  assert_param(IS_GPIO_MODE(GPIO_Init->Mode));
  assert_param(IS_GPIO_PULL(GPIO_Init->Pull));

  /* Configure the port pins */
  while (((GPIO_Init->Pin) >> position) != 0x00u)
 8003892:	e17f      	b.n	8003b94 <HAL_GPIO_Init+0x310>
  {
    /* Get current io position */
    iocurrent = (GPIO_Init->Pin) & (1uL << position);
 8003894:	683b      	ldr	r3, [r7, #0]
 8003896:	681a      	ldr	r2, [r3, #0]
 8003898:	2101      	movs	r1, #1
 800389a:	697b      	ldr	r3, [r7, #20]
 800389c:	fa01 f303 	lsl.w	r3, r1, r3
 80038a0:	4013      	ands	r3, r2
 80038a2:	60fb      	str	r3, [r7, #12]

    if (iocurrent != 0x00u)
 80038a4:	68fb      	ldr	r3, [r7, #12]
 80038a6:	2b00      	cmp	r3, #0
 80038a8:	f000 8171 	beq.w	8003b8e <HAL_GPIO_Init+0x30a>
    {
      /*--------------------- GPIO Mode Configuration ------------------------*/
      /* In case of Output or Alternate function mode selection */
      if((GPIO_Init->Mode == GPIO_MODE_OUTPUT_PP) || (GPIO_Init->Mode == GPIO_MODE_AF_PP) ||
 80038ac:	683b      	ldr	r3, [r7, #0]
 80038ae:	685b      	ldr	r3, [r3, #4]
 80038b0:	2b01      	cmp	r3, #1
 80038b2:	d00b      	beq.n	80038cc <HAL_GPIO_Init+0x48>
 80038b4:	683b      	ldr	r3, [r7, #0]
 80038b6:	685b      	ldr	r3, [r3, #4]
 80038b8:	2b02      	cmp	r3, #2
 80038ba:	d007      	beq.n	80038cc <HAL_GPIO_Init+0x48>
         (GPIO_Init->Mode == GPIO_MODE_OUTPUT_OD) || (GPIO_Init->Mode == GPIO_MODE_AF_OD))
 80038bc:	683b      	ldr	r3, [r7, #0]
 80038be:	685b      	ldr	r3, [r3, #4]
      if((GPIO_Init->Mode == GPIO_MODE_OUTPUT_PP) || (GPIO_Init->Mode == GPIO_MODE_AF_PP) ||
 80038c0:	2b11      	cmp	r3, #17
 80038c2:	d003      	beq.n	80038cc <HAL_GPIO_Init+0x48>
         (GPIO_Init->Mode == GPIO_MODE_OUTPUT_OD) || (GPIO_Init->Mode == GPIO_MODE_AF_OD))
 80038c4:	683b      	ldr	r3, [r7, #0]
 80038c6:	685b      	ldr	r3, [r3, #4]
 80038c8:	2b12      	cmp	r3, #18
 80038ca:	d130      	bne.n	800392e <HAL_GPIO_Init+0xaa>
      {
        /* Check the Speed parameter */
        assert_param(IS_GPIO_SPEED(GPIO_Init->Speed));
        /* Configure the IO Speed */
        temp = GPIOx->OSPEEDR;
 80038cc:	687b      	ldr	r3, [r7, #4]
 80038ce:	689b      	ldr	r3, [r3, #8]
 80038d0:	613b      	str	r3, [r7, #16]
        temp &= ~(GPIO_OSPEEDR_OSPEED0 << (position * 2u));
 80038d2:	697b      	ldr	r3, [r7, #20]
 80038d4:	005b      	lsls	r3, r3, #1
 80038d6:	2203      	movs	r2, #3
 80038d8:	fa02 f303 	lsl.w	r3, r2, r3
 80038dc:	43db      	mvns	r3, r3
 80038de:	693a      	ldr	r2, [r7, #16]
 80038e0:	4013      	ands	r3, r2
 80038e2:	613b      	str	r3, [r7, #16]
        temp |= (GPIO_Init->Speed << (position * 2u));
 80038e4:	683b      	ldr	r3, [r7, #0]
 80038e6:	68da      	ldr	r2, [r3, #12]
 80038e8:	697b      	ldr	r3, [r7, #20]
 80038ea:	005b      	lsls	r3, r3, #1
 80038ec:	fa02 f303 	lsl.w	r3, r2, r3
 80038f0:	693a      	ldr	r2, [r7, #16]
 80038f2:	4313      	orrs	r3, r2
 80038f4:	613b      	str	r3, [r7, #16]
        GPIOx->OSPEEDR = temp;
 80038f6:	687b      	ldr	r3, [r7, #4]
 80038f8:	693a      	ldr	r2, [r7, #16]
 80038fa:	609a      	str	r2, [r3, #8]

        /* Configure the IO Output Type */
        temp = GPIOx->OTYPER;
 80038fc:	687b      	ldr	r3, [r7, #4]
 80038fe:	685b      	ldr	r3, [r3, #4]
 8003900:	613b      	str	r3, [r7, #16]
        temp &= ~(GPIO_OTYPER_OT0 << position) ;
 8003902:	2201      	movs	r2, #1
 8003904:	697b      	ldr	r3, [r7, #20]
 8003906:	fa02 f303 	lsl.w	r3, r2, r3
 800390a:	43db      	mvns	r3, r3
 800390c:	693a      	ldr	r2, [r7, #16]
 800390e:	4013      	ands	r3, r2
 8003910:	613b      	str	r3, [r7, #16]
        temp |= (((GPIO_Init->Mode & GPIO_OUTPUT_TYPE) >> 4u) << position);
 8003912:	683b      	ldr	r3, [r7, #0]
 8003914:	685b      	ldr	r3, [r3, #4]
 8003916:	091b      	lsrs	r3, r3, #4
 8003918:	f003 0201 	and.w	r2, r3, #1
 800391c:	697b      	ldr	r3, [r7, #20]
 800391e:	fa02 f303 	lsl.w	r3, r2, r3
 8003922:	693a      	ldr	r2, [r7, #16]
 8003924:	4313      	orrs	r3, r2
 8003926:	613b      	str	r3, [r7, #16]
        GPIOx->OTYPER = temp;
 8003928:	687b      	ldr	r3, [r7, #4]
 800392a:	693a      	ldr	r2, [r7, #16]
 800392c:	605a      	str	r2, [r3, #4]
      }

#if defined(STM32L471xx) || defined(STM32L475xx) || defined(STM32L476xx) || defined(STM32L485xx) || defined(STM32L486xx)

      /* In case of Analog mode, check if ADC control mode is selected */
      if((GPIO_Init->Mode & GPIO_MODE_ANALOG) == GPIO_MODE_ANALOG)
 800392e:	683b      	ldr	r3, [r7, #0]
 8003930:	685b      	ldr	r3, [r3, #4]
 8003932:	f003 0303 	and.w	r3, r3, #3
 8003936:	2b03      	cmp	r3, #3
 8003938:	d118      	bne.n	800396c <HAL_GPIO_Init+0xe8>
      {
        /* Configure the IO Output Type */
        temp = GPIOx->ASCR;
 800393a:	687b      	ldr	r3, [r7, #4]
 800393c:	6adb      	ldr	r3, [r3, #44]	; 0x2c
 800393e:	613b      	str	r3, [r7, #16]
        temp &= ~(GPIO_ASCR_ASC0 << position) ;
 8003940:	2201      	movs	r2, #1
 8003942:	697b      	ldr	r3, [r7, #20]
 8003944:	fa02 f303 	lsl.w	r3, r2, r3
 8003948:	43db      	mvns	r3, r3
 800394a:	693a      	ldr	r2, [r7, #16]
 800394c:	4013      	ands	r3, r2
 800394e:	613b      	str	r3, [r7, #16]
        temp |= (((GPIO_Init->Mode & ANALOG_MODE) >> 3) << position);
 8003950:	683b      	ldr	r3, [r7, #0]
 8003952:	685b      	ldr	r3, [r3, #4]
 8003954:	08db      	lsrs	r3, r3, #3
 8003956:	f003 0201 	and.w	r2, r3, #1
 800395a:	697b      	ldr	r3, [r7, #20]
 800395c:	fa02 f303 	lsl.w	r3, r2, r3
 8003960:	693a      	ldr	r2, [r7, #16]
 8003962:	4313      	orrs	r3, r2
 8003964:	613b      	str	r3, [r7, #16]
        GPIOx->ASCR = temp;
 8003966:	687b      	ldr	r3, [r7, #4]
 8003968:	693a      	ldr	r2, [r7, #16]
 800396a:	62da      	str	r2, [r3, #44]	; 0x2c
      }

#endif /* STM32L471xx || STM32L475xx || STM32L476xx || STM32L485xx || STM32L486xx */

      /* Activate the Pull-up or Pull down resistor for the current IO */
      temp = GPIOx->PUPDR;
 800396c:	687b      	ldr	r3, [r7, #4]
 800396e:	68db      	ldr	r3, [r3, #12]
 8003970:	613b      	str	r3, [r7, #16]
      temp &= ~(GPIO_PUPDR_PUPD0 << (position * 2u));
 8003972:	697b      	ldr	r3, [r7, #20]
 8003974:	005b      	lsls	r3, r3, #1
 8003976:	2203      	movs	r2, #3
 8003978:	fa02 f303 	lsl.w	r3, r2, r3
 800397c:	43db      	mvns	r3, r3
 800397e:	693a      	ldr	r2, [r7, #16]
 8003980:	4013      	ands	r3, r2
 8003982:	613b      	str	r3, [r7, #16]
      temp |= ((GPIO_Init->Pull) << (position * 2u));
 8003984:	683b      	ldr	r3, [r7, #0]
 8003986:	689a      	ldr	r2, [r3, #8]
 8003988:	697b      	ldr	r3, [r7, #20]
 800398a:	005b      	lsls	r3, r3, #1
 800398c:	fa02 f303 	lsl.w	r3, r2, r3
 8003990:	693a      	ldr	r2, [r7, #16]
 8003992:	4313      	orrs	r3, r2
 8003994:	613b      	str	r3, [r7, #16]
      GPIOx->PUPDR = temp;
 8003996:	687b      	ldr	r3, [r7, #4]
 8003998:	693a      	ldr	r2, [r7, #16]
 800399a:	60da      	str	r2, [r3, #12]

      /* In case of Alternate function mode selection */
      if((GPIO_Init->Mode == GPIO_MODE_AF_PP) || (GPIO_Init->Mode == GPIO_MODE_AF_OD))
 800399c:	683b      	ldr	r3, [r7, #0]
 800399e:	685b      	ldr	r3, [r3, #4]
 80039a0:	2b02      	cmp	r3, #2
 80039a2:	d003      	beq.n	80039ac <HAL_GPIO_Init+0x128>
 80039a4:	683b      	ldr	r3, [r7, #0]
 80039a6:	685b      	ldr	r3, [r3, #4]
 80039a8:	2b12      	cmp	r3, #18
 80039aa:	d123      	bne.n	80039f4 <HAL_GPIO_Init+0x170>
        /* Check the Alternate function parameters */
        assert_param(IS_GPIO_AF_INSTANCE(GPIOx));
        assert_param(IS_GPIO_AF(GPIO_Init->Alternate));

        /* Configure Alternate function mapped with the current IO */
        temp = GPIOx->AFR[position >> 3u];
 80039ac:	697b      	ldr	r3, [r7, #20]
 80039ae:	08da      	lsrs	r2, r3, #3
 80039b0:	687b      	ldr	r3, [r7, #4]
 80039b2:	3208      	adds	r2, #8
 80039b4:	f853 3022 	ldr.w	r3, [r3, r2, lsl #2]
 80039b8:	613b      	str	r3, [r7, #16]
        temp &= ~(0xFu << ((position & 0x07u) * 4u));
 80039ba:	697b      	ldr	r3, [r7, #20]
 80039bc:	f003 0307 	and.w	r3, r3, #7
 80039c0:	009b      	lsls	r3, r3, #2
 80039c2:	220f      	movs	r2, #15
 80039c4:	fa02 f303 	lsl.w	r3, r2, r3
 80039c8:	43db      	mvns	r3, r3
 80039ca:	693a      	ldr	r2, [r7, #16]
 80039cc:	4013      	ands	r3, r2
 80039ce:	613b      	str	r3, [r7, #16]
        temp |= ((GPIO_Init->Alternate) << ((position & 0x07u) * 4u));
 80039d0:	683b      	ldr	r3, [r7, #0]
 80039d2:	691a      	ldr	r2, [r3, #16]
 80039d4:	697b      	ldr	r3, [r7, #20]
 80039d6:	f003 0307 	and.w	r3, r3, #7
 80039da:	009b      	lsls	r3, r3, #2
 80039dc:	fa02 f303 	lsl.w	r3, r2, r3
 80039e0:	693a      	ldr	r2, [r7, #16]
 80039e2:	4313      	orrs	r3, r2
 80039e4:	613b      	str	r3, [r7, #16]
        GPIOx->AFR[position >> 3u] = temp;
 80039e6:	697b      	ldr	r3, [r7, #20]
 80039e8:	08da      	lsrs	r2, r3, #3
 80039ea:	687b      	ldr	r3, [r7, #4]
 80039ec:	3208      	adds	r2, #8
 80039ee:	6939      	ldr	r1, [r7, #16]
 80039f0:	f843 1022 	str.w	r1, [r3, r2, lsl #2]
      }

      /* Configure IO Direction mode (Input, Output, Alternate or Analog) */
      temp = GPIOx->MODER;
 80039f4:	687b      	ldr	r3, [r7, #4]
 80039f6:	681b      	ldr	r3, [r3, #0]
 80039f8:	613b      	str	r3, [r7, #16]
      temp &= ~(GPIO_MODER_MODE0 << (position * 2u));
 80039fa:	697b      	ldr	r3, [r7, #20]
 80039fc:	005b      	lsls	r3, r3, #1
 80039fe:	2203      	movs	r2, #3
 8003a00:	fa02 f303 	lsl.w	r3, r2, r3
 8003a04:	43db      	mvns	r3, r3
 8003a06:	693a      	ldr	r2, [r7, #16]
 8003a08:	4013      	ands	r3, r2
 8003a0a:	613b      	str	r3, [r7, #16]
      temp |= ((GPIO_Init->Mode & GPIO_MODE) << (position * 2u));
 8003a0c:	683b      	ldr	r3, [r7, #0]
 8003a0e:	685b      	ldr	r3, [r3, #4]
 8003a10:	f003 0203 	and.w	r2, r3, #3
 8003a14:	697b      	ldr	r3, [r7, #20]
 8003a16:	005b      	lsls	r3, r3, #1
 8003a18:	fa02 f303 	lsl.w	r3, r2, r3
 8003a1c:	693a      	ldr	r2, [r7, #16]
 8003a1e:	4313      	orrs	r3, r2
 8003a20:	613b      	str	r3, [r7, #16]
      GPIOx->MODER = temp;
 8003a22:	687b      	ldr	r3, [r7, #4]
 8003a24:	693a      	ldr	r2, [r7, #16]
 8003a26:	601a      	str	r2, [r3, #0]

      /*--------------------- EXTI Mode Configuration ------------------------*/
      /* Configure the External Interrupt or event for the current IO */
      if((GPIO_Init->Mode & EXTI_MODE) == EXTI_MODE)
 8003a28:	683b      	ldr	r3, [r7, #0]
 8003a2a:	685b      	ldr	r3, [r3, #4]
 8003a2c:	f003 5380 	and.w	r3, r3, #268435456	; 0x10000000
 8003a30:	2b00      	cmp	r3, #0
 8003a32:	f000 80ac 	beq.w	8003b8e <HAL_GPIO_Init+0x30a>
      {
        /* Enable SYSCFG Clock */
        __HAL_RCC_SYSCFG_CLK_ENABLE();
 8003a36:	4b5e      	ldr	r3, [pc, #376]	; (8003bb0 <HAL_GPIO_Init+0x32c>)
 8003a38:	6e1b      	ldr	r3, [r3, #96]	; 0x60
 8003a3a:	4a5d      	ldr	r2, [pc, #372]	; (8003bb0 <HAL_GPIO_Init+0x32c>)
 8003a3c:	f043 0301 	orr.w	r3, r3, #1
 8003a40:	6613      	str	r3, [r2, #96]	; 0x60
 8003a42:	4b5b      	ldr	r3, [pc, #364]	; (8003bb0 <HAL_GPIO_Init+0x32c>)
 8003a44:	6e1b      	ldr	r3, [r3, #96]	; 0x60
 8003a46:	f003 0301 	and.w	r3, r3, #1
 8003a4a:	60bb      	str	r3, [r7, #8]
 8003a4c:	68bb      	ldr	r3, [r7, #8]

        temp = SYSCFG->EXTICR[position >> 2u];
 8003a4e:	4a59      	ldr	r2, [pc, #356]	; (8003bb4 <HAL_GPIO_Init+0x330>)
 8003a50:	697b      	ldr	r3, [r7, #20]
 8003a52:	089b      	lsrs	r3, r3, #2
 8003a54:	3302      	adds	r3, #2
 8003a56:	f852 3023 	ldr.w	r3, [r2, r3, lsl #2]
 8003a5a:	613b      	str	r3, [r7, #16]
        temp &= ~(0x0FuL << (4u * (position & 0x03u)));
 8003a5c:	697b      	ldr	r3, [r7, #20]
 8003a5e:	f003 0303 	and.w	r3, r3, #3
 8003a62:	009b      	lsls	r3, r3, #2
 8003a64:	220f      	movs	r2, #15
 8003a66:	fa02 f303 	lsl.w	r3, r2, r3
 8003a6a:	43db      	mvns	r3, r3
 8003a6c:	693a      	ldr	r2, [r7, #16]
 8003a6e:	4013      	ands	r3, r2
 8003a70:	613b      	str	r3, [r7, #16]
        temp |= (GPIO_GET_INDEX(GPIOx) << (4u * (position & 0x03u)));
 8003a72:	687b      	ldr	r3, [r7, #4]
 8003a74:	f1b3 4f90 	cmp.w	r3, #1207959552	; 0x48000000
 8003a78:	d025      	beq.n	8003ac6 <HAL_GPIO_Init+0x242>
 8003a7a:	687b      	ldr	r3, [r7, #4]
 8003a7c:	4a4e      	ldr	r2, [pc, #312]	; (8003bb8 <HAL_GPIO_Init+0x334>)
 8003a7e:	4293      	cmp	r3, r2
 8003a80:	d01f      	beq.n	8003ac2 <HAL_GPIO_Init+0x23e>
 8003a82:	687b      	ldr	r3, [r7, #4]
 8003a84:	4a4d      	ldr	r2, [pc, #308]	; (8003bbc <HAL_GPIO_Init+0x338>)
 8003a86:	4293      	cmp	r3, r2
 8003a88:	d019      	beq.n	8003abe <HAL_GPIO_Init+0x23a>
 8003a8a:	687b      	ldr	r3, [r7, #4]
 8003a8c:	4a4c      	ldr	r2, [pc, #304]	; (8003bc0 <HAL_GPIO_Init+0x33c>)
 8003a8e:	4293      	cmp	r3, r2
 8003a90:	d013      	beq.n	8003aba <HAL_GPIO_Init+0x236>
 8003a92:	687b      	ldr	r3, [r7, #4]
 8003a94:	4a4b      	ldr	r2, [pc, #300]	; (8003bc4 <HAL_GPIO_Init+0x340>)
 8003a96:	4293      	cmp	r3, r2
 8003a98:	d00d      	beq.n	8003ab6 <HAL_GPIO_Init+0x232>
 8003a9a:	687b      	ldr	r3, [r7, #4]
 8003a9c:	4a4a      	ldr	r2, [pc, #296]	; (8003bc8 <HAL_GPIO_Init+0x344>)
 8003a9e:	4293      	cmp	r3, r2
 8003aa0:	d007      	beq.n	8003ab2 <HAL_GPIO_Init+0x22e>
 8003aa2:	687b      	ldr	r3, [r7, #4]
 8003aa4:	4a49      	ldr	r2, [pc, #292]	; (8003bcc <HAL_GPIO_Init+0x348>)
 8003aa6:	4293      	cmp	r3, r2
 8003aa8:	d101      	bne.n	8003aae <HAL_GPIO_Init+0x22a>
 8003aaa:	2306      	movs	r3, #6
 8003aac:	e00c      	b.n	8003ac8 <HAL_GPIO_Init+0x244>
 8003aae:	2307      	movs	r3, #7
 8003ab0:	e00a      	b.n	8003ac8 <HAL_GPIO_Init+0x244>
 8003ab2:	2305      	movs	r3, #5
 8003ab4:	e008      	b.n	8003ac8 <HAL_GPIO_Init+0x244>
 8003ab6:	2304      	movs	r3, #4
 8003ab8:	e006      	b.n	8003ac8 <HAL_GPIO_Init+0x244>
 8003aba:	2303      	movs	r3, #3
 8003abc:	e004      	b.n	8003ac8 <HAL_GPIO_Init+0x244>
 8003abe:	2302      	movs	r3, #2
 8003ac0:	e002      	b.n	8003ac8 <HAL_GPIO_Init+0x244>
 8003ac2:	2301      	movs	r3, #1
 8003ac4:	e000      	b.n	8003ac8 <HAL_GPIO_Init+0x244>
 8003ac6:	2300      	movs	r3, #0
 8003ac8:	697a      	ldr	r2, [r7, #20]
 8003aca:	f002 0203 	and.w	r2, r2, #3
 8003ace:	0092      	lsls	r2, r2, #2
 8003ad0:	4093      	lsls	r3, r2
 8003ad2:	693a      	ldr	r2, [r7, #16]
 8003ad4:	4313      	orrs	r3, r2
 8003ad6:	613b      	str	r3, [r7, #16]
        SYSCFG->EXTICR[position >> 2u] = temp;
 8003ad8:	4936      	ldr	r1, [pc, #216]	; (8003bb4 <HAL_GPIO_Init+0x330>)
 8003ada:	697b      	ldr	r3, [r7, #20]
 8003adc:	089b      	lsrs	r3, r3, #2
 8003ade:	3302      	adds	r3, #2
 8003ae0:	693a      	ldr	r2, [r7, #16]
 8003ae2:	f841 2023 	str.w	r2, [r1, r3, lsl #2]

        /* Clear EXTI line configuration */
        temp = EXTI->IMR1;
 8003ae6:	4b3a      	ldr	r3, [pc, #232]	; (8003bd0 <HAL_GPIO_Init+0x34c>)
 8003ae8:	681b      	ldr	r3, [r3, #0]
 8003aea:	613b      	str	r3, [r7, #16]
        temp &= ~(iocurrent);
 8003aec:	68fb      	ldr	r3, [r7, #12]
 8003aee:	43db      	mvns	r3, r3
 8003af0:	693a      	ldr	r2, [r7, #16]
 8003af2:	4013      	ands	r3, r2
 8003af4:	613b      	str	r3, [r7, #16]
        if((GPIO_Init->Mode & GPIO_MODE_IT) == GPIO_MODE_IT)
 8003af6:	683b      	ldr	r3, [r7, #0]
 8003af8:	685b      	ldr	r3, [r3, #4]
 8003afa:	f403 3380 	and.w	r3, r3, #65536	; 0x10000
 8003afe:	2b00      	cmp	r3, #0
 8003b00:	d003      	beq.n	8003b0a <HAL_GPIO_Init+0x286>
        {
          temp |= iocurrent;
 8003b02:	693a      	ldr	r2, [r7, #16]
 8003b04:	68fb      	ldr	r3, [r7, #12]
 8003b06:	4313      	orrs	r3, r2
 8003b08:	613b      	str	r3, [r7, #16]
        }
        EXTI->IMR1 = temp;
 8003b0a:	4a31      	ldr	r2, [pc, #196]	; (8003bd0 <HAL_GPIO_Init+0x34c>)
 8003b0c:	693b      	ldr	r3, [r7, #16]
 8003b0e:	6013      	str	r3, [r2, #0]

        temp = EXTI->EMR1;
 8003b10:	4b2f      	ldr	r3, [pc, #188]	; (8003bd0 <HAL_GPIO_Init+0x34c>)
 8003b12:	685b      	ldr	r3, [r3, #4]
 8003b14:	613b      	str	r3, [r7, #16]
        temp &= ~(iocurrent);
 8003b16:	68fb      	ldr	r3, [r7, #12]
 8003b18:	43db      	mvns	r3, r3
 8003b1a:	693a      	ldr	r2, [r7, #16]
 8003b1c:	4013      	ands	r3, r2
 8003b1e:	613b      	str	r3, [r7, #16]
        if((GPIO_Init->Mode & GPIO_MODE_EVT) == GPIO_MODE_EVT)
 8003b20:	683b      	ldr	r3, [r7, #0]
 8003b22:	685b      	ldr	r3, [r3, #4]
 8003b24:	f403 3300 	and.w	r3, r3, #131072	; 0x20000
 8003b28:	2b00      	cmp	r3, #0
 8003b2a:	d003      	beq.n	8003b34 <HAL_GPIO_Init+0x2b0>
        {
          temp |= iocurrent;
 8003b2c:	693a      	ldr	r2, [r7, #16]
 8003b2e:	68fb      	ldr	r3, [r7, #12]
 8003b30:	4313      	orrs	r3, r2
 8003b32:	613b      	str	r3, [r7, #16]
        }
        EXTI->EMR1 = temp;
 8003b34:	4a26      	ldr	r2, [pc, #152]	; (8003bd0 <HAL_GPIO_Init+0x34c>)
 8003b36:	693b      	ldr	r3, [r7, #16]
 8003b38:	6053      	str	r3, [r2, #4]

        /* Clear Rising Falling edge configuration */
        temp = EXTI->RTSR1;
 8003b3a:	4b25      	ldr	r3, [pc, #148]	; (8003bd0 <HAL_GPIO_Init+0x34c>)
 8003b3c:	689b      	ldr	r3, [r3, #8]
 8003b3e:	613b      	str	r3, [r7, #16]
        temp &= ~(iocurrent);
 8003b40:	68fb      	ldr	r3, [r7, #12]
 8003b42:	43db      	mvns	r3, r3
 8003b44:	693a      	ldr	r2, [r7, #16]
 8003b46:	4013      	ands	r3, r2
 8003b48:	613b      	str	r3, [r7, #16]
        if((GPIO_Init->Mode & RISING_EDGE) == RISING_EDGE)
 8003b4a:	683b      	ldr	r3, [r7, #0]
 8003b4c:	685b      	ldr	r3, [r3, #4]
 8003b4e:	f403 1380 	and.w	r3, r3, #1048576	; 0x100000
 8003b52:	2b00      	cmp	r3, #0
 8003b54:	d003      	beq.n	8003b5e <HAL_GPIO_Init+0x2da>
        {
          temp |= iocurrent;
 8003b56:	693a      	ldr	r2, [r7, #16]
 8003b58:	68fb      	ldr	r3, [r7, #12]
 8003b5a:	4313      	orrs	r3, r2
 8003b5c:	613b      	str	r3, [r7, #16]
        }
        EXTI->RTSR1 = temp;
 8003b5e:	4a1c      	ldr	r2, [pc, #112]	; (8003bd0 <HAL_GPIO_Init+0x34c>)
 8003b60:	693b      	ldr	r3, [r7, #16]
 8003b62:	6093      	str	r3, [r2, #8]

        temp = EXTI->FTSR1;
 8003b64:	4b1a      	ldr	r3, [pc, #104]	; (8003bd0 <HAL_GPIO_Init+0x34c>)
 8003b66:	68db      	ldr	r3, [r3, #12]
 8003b68:	613b      	str	r3, [r7, #16]
        temp &= ~(iocurrent);
 8003b6a:	68fb      	ldr	r3, [r7, #12]
 8003b6c:	43db      	mvns	r3, r3
 8003b6e:	693a      	ldr	r2, [r7, #16]
 8003b70:	4013      	ands	r3, r2
 8003b72:	613b      	str	r3, [r7, #16]
        if((GPIO_Init->Mode & FALLING_EDGE) == FALLING_EDGE)
 8003b74:	683b      	ldr	r3, [r7, #0]
 8003b76:	685b      	ldr	r3, [r3, #4]
 8003b78:	f403 1300 	and.w	r3, r3, #2097152	; 0x200000
 8003b7c:	2b00      	cmp	r3, #0
 8003b7e:	d003      	beq.n	8003b88 <HAL_GPIO_Init+0x304>
        {
          temp |= iocurrent;
 8003b80:	693a      	ldr	r2, [r7, #16]
 8003b82:	68fb      	ldr	r3, [r7, #12]
 8003b84:	4313      	orrs	r3, r2
 8003b86:	613b      	str	r3, [r7, #16]
        }
        EXTI->FTSR1 = temp;
 8003b88:	4a11      	ldr	r2, [pc, #68]	; (8003bd0 <HAL_GPIO_Init+0x34c>)
 8003b8a:	693b      	ldr	r3, [r7, #16]
 8003b8c:	60d3      	str	r3, [r2, #12]
      }
    }

    position++;
 8003b8e:	697b      	ldr	r3, [r7, #20]
 8003b90:	3301      	adds	r3, #1
 8003b92:	617b      	str	r3, [r7, #20]
  while (((GPIO_Init->Pin) >> position) != 0x00u)
 8003b94:	683b      	ldr	r3, [r7, #0]
 8003b96:	681a      	ldr	r2, [r3, #0]
 8003b98:	697b      	ldr	r3, [r7, #20]
 8003b9a:	fa22 f303 	lsr.w	r3, r2, r3
 8003b9e:	2b00      	cmp	r3, #0
 8003ba0:	f47f ae78 	bne.w	8003894 <HAL_GPIO_Init+0x10>
  }
}
 8003ba4:	bf00      	nop
 8003ba6:	371c      	adds	r7, #28
 8003ba8:	46bd      	mov	sp, r7
 8003baa:	f85d 7b04 	ldr.w	r7, [sp], #4
 8003bae:	4770      	bx	lr
 8003bb0:	40021000 	.word	0x40021000
 8003bb4:	40010000 	.word	0x40010000
 8003bb8:	48000400 	.word	0x48000400
 8003bbc:	48000800 	.word	0x48000800
 8003bc0:	48000c00 	.word	0x48000c00
 8003bc4:	48001000 	.word	0x48001000
 8003bc8:	48001400 	.word	0x48001400
 8003bcc:	48001800 	.word	0x48001800
 8003bd0:	40010400 	.word	0x40010400

08003bd4 <HAL_GPIO_ReadPin>:
  * @param  GPIO_Pin specifies the port bit to read.
  *         This parameter can be any combination of GPIO_Pin_x where x can be (0..15).
  * @retval The input port pin value.
  */
GPIO_PinState HAL_GPIO_ReadPin(GPIO_TypeDef* GPIOx, uint16_t GPIO_Pin)
{
 8003bd4:	b480      	push	{r7}
 8003bd6:	b085      	sub	sp, #20
 8003bd8:	af00      	add	r7, sp, #0
 8003bda:	6078      	str	r0, [r7, #4]
 8003bdc:	460b      	mov	r3, r1
 8003bde:	807b      	strh	r3, [r7, #2]
  GPIO_PinState bitstatus;

  /* Check the parameters */
  assert_param(IS_GPIO_PIN(GPIO_Pin));

  if ((GPIOx->IDR & GPIO_Pin) != 0x00u)
 8003be0:	687b      	ldr	r3, [r7, #4]
 8003be2:	691a      	ldr	r2, [r3, #16]
 8003be4:	887b      	ldrh	r3, [r7, #2]
 8003be6:	4013      	ands	r3, r2
 8003be8:	2b00      	cmp	r3, #0
 8003bea:	d002      	beq.n	8003bf2 <HAL_GPIO_ReadPin+0x1e>
  {
    bitstatus = GPIO_PIN_SET;
 8003bec:	2301      	movs	r3, #1
 8003bee:	73fb      	strb	r3, [r7, #15]
 8003bf0:	e001      	b.n	8003bf6 <HAL_GPIO_ReadPin+0x22>
  }
  else
  {
    bitstatus = GPIO_PIN_RESET;
 8003bf2:	2300      	movs	r3, #0
 8003bf4:	73fb      	strb	r3, [r7, #15]
  }
  return bitstatus;
 8003bf6:	7bfb      	ldrb	r3, [r7, #15]
}
 8003bf8:	4618      	mov	r0, r3
 8003bfa:	3714      	adds	r7, #20
 8003bfc:	46bd      	mov	sp, r7
 8003bfe:	f85d 7b04 	ldr.w	r7, [sp], #4
 8003c02:	4770      	bx	lr

08003c04 <HAL_GPIO_WritePin>:
  *            @arg GPIO_PIN_RESET: to clear the port pin
  *            @arg GPIO_PIN_SET: to set the port pin
  * @retval None
  */
void HAL_GPIO_WritePin(GPIO_TypeDef* GPIOx, uint16_t GPIO_Pin, GPIO_PinState PinState)
{
 8003c04:	b480      	push	{r7}
 8003c06:	b083      	sub	sp, #12
 8003c08:	af00      	add	r7, sp, #0
 8003c0a:	6078      	str	r0, [r7, #4]
 8003c0c:	460b      	mov	r3, r1
 8003c0e:	807b      	strh	r3, [r7, #2]
 8003c10:	4613      	mov	r3, r2
 8003c12:	707b      	strb	r3, [r7, #1]
  /* Check the parameters */
  assert_param(IS_GPIO_PIN(GPIO_Pin));
  assert_param(IS_GPIO_PIN_ACTION(PinState));

  if(PinState != GPIO_PIN_RESET)
 8003c14:	787b      	ldrb	r3, [r7, #1]
 8003c16:	2b00      	cmp	r3, #0
 8003c18:	d003      	beq.n	8003c22 <HAL_GPIO_WritePin+0x1e>
  {
    GPIOx->BSRR = (uint32_t)GPIO_Pin;
 8003c1a:	887a      	ldrh	r2, [r7, #2]
 8003c1c:	687b      	ldr	r3, [r7, #4]
 8003c1e:	619a      	str	r2, [r3, #24]
  }
  else
  {
    GPIOx->BRR = (uint32_t)GPIO_Pin;
  }
}
 8003c20:	e002      	b.n	8003c28 <HAL_GPIO_WritePin+0x24>
    GPIOx->BRR = (uint32_t)GPIO_Pin;
 8003c22:	887a      	ldrh	r2, [r7, #2]
 8003c24:	687b      	ldr	r3, [r7, #4]
 8003c26:	629a      	str	r2, [r3, #40]	; 0x28
}
 8003c28:	bf00      	nop
 8003c2a:	370c      	adds	r7, #12
 8003c2c:	46bd      	mov	sp, r7
 8003c2e:	f85d 7b04 	ldr.w	r7, [sp], #4
 8003c32:	4770      	bx	lr

08003c34 <HAL_GPIO_TogglePin>:
  * @param  GPIOx where x can be (A..H) to select the GPIO peripheral for STM32L4 family
  * @param  GPIO_Pin specifies the pin to be toggled.
  * @retval None
  */
void HAL_GPIO_TogglePin(GPIO_TypeDef* GPIOx, uint16_t GPIO_Pin)
{
 8003c34:	b480      	push	{r7}
 8003c36:	b085      	sub	sp, #20
 8003c38:	af00      	add	r7, sp, #0
 8003c3a:	6078      	str	r0, [r7, #4]
 8003c3c:	460b      	mov	r3, r1
 8003c3e:	807b      	strh	r3, [r7, #2]

  /* Check the parameters */
  assert_param(IS_GPIO_PIN(GPIO_Pin));

  /* get current Ouput Data Register value */
  odr = GPIOx->ODR;
 8003c40:	687b      	ldr	r3, [r7, #4]
 8003c42:	695b      	ldr	r3, [r3, #20]
 8003c44:	60fb      	str	r3, [r7, #12]

  /* Set selected pins that were at low level, and reset ones that were high */
  GPIOx->BSRR = ((odr & GPIO_Pin) << GPIO_NUMBER) | (~odr & GPIO_Pin);
 8003c46:	887a      	ldrh	r2, [r7, #2]
 8003c48:	68fb      	ldr	r3, [r7, #12]
 8003c4a:	4013      	ands	r3, r2
 8003c4c:	041a      	lsls	r2, r3, #16
 8003c4e:	68fb      	ldr	r3, [r7, #12]
 8003c50:	43d9      	mvns	r1, r3
 8003c52:	887b      	ldrh	r3, [r7, #2]
 8003c54:	400b      	ands	r3, r1
 8003c56:	431a      	orrs	r2, r3
 8003c58:	687b      	ldr	r3, [r7, #4]
 8003c5a:	619a      	str	r2, [r3, #24]
}
 8003c5c:	bf00      	nop
 8003c5e:	3714      	adds	r7, #20
 8003c60:	46bd      	mov	sp, r7
 8003c62:	f85d 7b04 	ldr.w	r7, [sp], #4
 8003c66:	4770      	bx	lr

08003c68 <HAL_GPIO_EXTI_IRQHandler>:
  * @brief  Handle EXTI interrupt request.
  * @param  GPIO_Pin Specifies the port pin connected to corresponding EXTI line.
  * @retval None
  */
void HAL_GPIO_EXTI_IRQHandler(uint16_t GPIO_Pin)
{
 8003c68:	b580      	push	{r7, lr}
 8003c6a:	b082      	sub	sp, #8
 8003c6c:	af00      	add	r7, sp, #0
 8003c6e:	4603      	mov	r3, r0
 8003c70:	80fb      	strh	r3, [r7, #6]
  /* EXTI line interrupt detected */
  if(__HAL_GPIO_EXTI_GET_IT(GPIO_Pin) != 0x00u)
 8003c72:	4b08      	ldr	r3, [pc, #32]	; (8003c94 <HAL_GPIO_EXTI_IRQHandler+0x2c>)
 8003c74:	695a      	ldr	r2, [r3, #20]
 8003c76:	88fb      	ldrh	r3, [r7, #6]
 8003c78:	4013      	ands	r3, r2
 8003c7a:	2b00      	cmp	r3, #0
 8003c7c:	d006      	beq.n	8003c8c <HAL_GPIO_EXTI_IRQHandler+0x24>
  {
    __HAL_GPIO_EXTI_CLEAR_IT(GPIO_Pin);
 8003c7e:	4a05      	ldr	r2, [pc, #20]	; (8003c94 <HAL_GPIO_EXTI_IRQHandler+0x2c>)
 8003c80:	88fb      	ldrh	r3, [r7, #6]
 8003c82:	6153      	str	r3, [r2, #20]
    HAL_GPIO_EXTI_Callback(GPIO_Pin);
 8003c84:	88fb      	ldrh	r3, [r7, #6]
 8003c86:	4618      	mov	r0, r3
 8003c88:	f7fe fd3e 	bl	8002708 <HAL_GPIO_EXTI_Callback>
  }
}
 8003c8c:	bf00      	nop
 8003c8e:	3708      	adds	r7, #8
 8003c90:	46bd      	mov	sp, r7
 8003c92:	bd80      	pop	{r7, pc}
 8003c94:	40010400 	.word	0x40010400

08003c98 <HAL_I2C_Init>:
  * @param  hi2c Pointer to a I2C_HandleTypeDef structure that contains
  *                the configuration information for the specified I2C.
  * @retval HAL status
  */
HAL_StatusTypeDef HAL_I2C_Init(I2C_HandleTypeDef *hi2c)
{
 8003c98:	b580      	push	{r7, lr}
 8003c9a:	b082      	sub	sp, #8
 8003c9c:	af00      	add	r7, sp, #0
 8003c9e:	6078      	str	r0, [r7, #4]
  /* Check the I2C handle allocation */
  if (hi2c == NULL)
 8003ca0:	687b      	ldr	r3, [r7, #4]
 8003ca2:	2b00      	cmp	r3, #0
 8003ca4:	d101      	bne.n	8003caa <HAL_I2C_Init+0x12>
  {
    return HAL_ERROR;
 8003ca6:	2301      	movs	r3, #1
 8003ca8:	e081      	b.n	8003dae <HAL_I2C_Init+0x116>
  assert_param(IS_I2C_OWN_ADDRESS2(hi2c->Init.OwnAddress2));
  assert_param(IS_I2C_OWN_ADDRESS2_MASK(hi2c->Init.OwnAddress2Masks));
  assert_param(IS_I2C_GENERAL_CALL(hi2c->Init.GeneralCallMode));
  assert_param(IS_I2C_NO_STRETCH(hi2c->Init.NoStretchMode));

  if (hi2c->State == HAL_I2C_STATE_RESET)
 8003caa:	687b      	ldr	r3, [r7, #4]
 8003cac:	f893 3041 	ldrb.w	r3, [r3, #65]	; 0x41
 8003cb0:	b2db      	uxtb	r3, r3
 8003cb2:	2b00      	cmp	r3, #0
 8003cb4:	d106      	bne.n	8003cc4 <HAL_I2C_Init+0x2c>
  {
    /* Allocate lock resource and initialize it */
    hi2c->Lock = HAL_UNLOCKED;
 8003cb6:	687b      	ldr	r3, [r7, #4]
 8003cb8:	2200      	movs	r2, #0
 8003cba:	f883 2040 	strb.w	r2, [r3, #64]	; 0x40

    /* Init the low level hardware : GPIO, CLOCK, CORTEX...etc */
    hi2c->MspInitCallback(hi2c);
#else
    /* Init the low level hardware : GPIO, CLOCK, CORTEX...etc */
    HAL_I2C_MspInit(hi2c);
 8003cbe:	6878      	ldr	r0, [r7, #4]
 8003cc0:	f7fe fdba 	bl	8002838 <HAL_I2C_MspInit>
#endif /* USE_HAL_I2C_REGISTER_CALLBACKS */
  }

  hi2c->State = HAL_I2C_STATE_BUSY;
 8003cc4:	687b      	ldr	r3, [r7, #4]
 8003cc6:	2224      	movs	r2, #36	; 0x24
 8003cc8:	f883 2041 	strb.w	r2, [r3, #65]	; 0x41

  /* Disable the selected I2C peripheral */
  __HAL_I2C_DISABLE(hi2c);
 8003ccc:	687b      	ldr	r3, [r7, #4]
 8003cce:	681b      	ldr	r3, [r3, #0]
 8003cd0:	681a      	ldr	r2, [r3, #0]
 8003cd2:	687b      	ldr	r3, [r7, #4]
 8003cd4:	681b      	ldr	r3, [r3, #0]
 8003cd6:	f022 0201 	bic.w	r2, r2, #1
 8003cda:	601a      	str	r2, [r3, #0]

  /*---------------------------- I2Cx TIMINGR Configuration ------------------*/
  /* Configure I2Cx: Frequency range */
  hi2c->Instance->TIMINGR = hi2c->Init.Timing & TIMING_CLEAR_MASK;
 8003cdc:	687b      	ldr	r3, [r7, #4]
 8003cde:	685a      	ldr	r2, [r3, #4]
 8003ce0:	687b      	ldr	r3, [r7, #4]
 8003ce2:	681b      	ldr	r3, [r3, #0]
 8003ce4:	f022 6270 	bic.w	r2, r2, #251658240	; 0xf000000
 8003ce8:	611a      	str	r2, [r3, #16]

  /*---------------------------- I2Cx OAR1 Configuration ---------------------*/
  /* Disable Own Address1 before set the Own Address1 configuration */
  hi2c->Instance->OAR1 &= ~I2C_OAR1_OA1EN;
 8003cea:	687b      	ldr	r3, [r7, #4]
 8003cec:	681b      	ldr	r3, [r3, #0]
 8003cee:	689a      	ldr	r2, [r3, #8]
 8003cf0:	687b      	ldr	r3, [r7, #4]
 8003cf2:	681b      	ldr	r3, [r3, #0]
 8003cf4:	f422 4200 	bic.w	r2, r2, #32768	; 0x8000
 8003cf8:	609a      	str	r2, [r3, #8]

  /* Configure I2Cx: Own Address1 and ack own address1 mode */
  if (hi2c->Init.AddressingMode == I2C_ADDRESSINGMODE_7BIT)
 8003cfa:	687b      	ldr	r3, [r7, #4]
 8003cfc:	68db      	ldr	r3, [r3, #12]
 8003cfe:	2b01      	cmp	r3, #1
 8003d00:	d107      	bne.n	8003d12 <HAL_I2C_Init+0x7a>
  {
    hi2c->Instance->OAR1 = (I2C_OAR1_OA1EN | hi2c->Init.OwnAddress1);
 8003d02:	687b      	ldr	r3, [r7, #4]
 8003d04:	689a      	ldr	r2, [r3, #8]
 8003d06:	687b      	ldr	r3, [r7, #4]
 8003d08:	681b      	ldr	r3, [r3, #0]
 8003d0a:	f442 4200 	orr.w	r2, r2, #32768	; 0x8000
 8003d0e:	609a      	str	r2, [r3, #8]
 8003d10:	e006      	b.n	8003d20 <HAL_I2C_Init+0x88>
  }
  else /* I2C_ADDRESSINGMODE_10BIT */
  {
    hi2c->Instance->OAR1 = (I2C_OAR1_OA1EN | I2C_OAR1_OA1MODE | hi2c->Init.OwnAddress1);
 8003d12:	687b      	ldr	r3, [r7, #4]
 8003d14:	689a      	ldr	r2, [r3, #8]
 8003d16:	687b      	ldr	r3, [r7, #4]
 8003d18:	681b      	ldr	r3, [r3, #0]
 8003d1a:	f442 4204 	orr.w	r2, r2, #33792	; 0x8400
 8003d1e:	609a      	str	r2, [r3, #8]
  }

  /*---------------------------- I2Cx CR2 Configuration ----------------------*/
  /* Configure I2Cx: Addressing Master mode */
  if (hi2c->Init.AddressingMode == I2C_ADDRESSINGMODE_10BIT)
 8003d20:	687b      	ldr	r3, [r7, #4]
 8003d22:	68db      	ldr	r3, [r3, #12]
 8003d24:	2b02      	cmp	r3, #2
 8003d26:	d104      	bne.n	8003d32 <HAL_I2C_Init+0x9a>
  {
    hi2c->Instance->CR2 = (I2C_CR2_ADD10);
 8003d28:	687b      	ldr	r3, [r7, #4]
 8003d2a:	681b      	ldr	r3, [r3, #0]
 8003d2c:	f44f 6200 	mov.w	r2, #2048	; 0x800
 8003d30:	605a      	str	r2, [r3, #4]
  }
  /* Enable the AUTOEND by default, and enable NACK (should be disable only during Slave process */
  hi2c->Instance->CR2 |= (I2C_CR2_AUTOEND | I2C_CR2_NACK);
 8003d32:	687b      	ldr	r3, [r7, #4]
 8003d34:	681b      	ldr	r3, [r3, #0]
 8003d36:	685b      	ldr	r3, [r3, #4]
 8003d38:	687a      	ldr	r2, [r7, #4]
 8003d3a:	6812      	ldr	r2, [r2, #0]
 8003d3c:	f043 7300 	orr.w	r3, r3, #33554432	; 0x2000000
 8003d40:	f443 4300 	orr.w	r3, r3, #32768	; 0x8000
 8003d44:	6053      	str	r3, [r2, #4]

  /*---------------------------- I2Cx OAR2 Configuration ---------------------*/
  /* Disable Own Address2 before set the Own Address2 configuration */
  hi2c->Instance->OAR2 &= ~I2C_DUALADDRESS_ENABLE;
 8003d46:	687b      	ldr	r3, [r7, #4]
 8003d48:	681b      	ldr	r3, [r3, #0]
 8003d4a:	68da      	ldr	r2, [r3, #12]
 8003d4c:	687b      	ldr	r3, [r7, #4]
 8003d4e:	681b      	ldr	r3, [r3, #0]
 8003d50:	f422 4200 	bic.w	r2, r2, #32768	; 0x8000
 8003d54:	60da      	str	r2, [r3, #12]

  /* Configure I2Cx: Dual mode and Own Address2 */
  hi2c->Instance->OAR2 = (hi2c->Init.DualAddressMode | hi2c->Init.OwnAddress2 | (hi2c->Init.OwnAddress2Masks << 8));
 8003d56:	687b      	ldr	r3, [r7, #4]
 8003d58:	691a      	ldr	r2, [r3, #16]
 8003d5a:	687b      	ldr	r3, [r7, #4]
 8003d5c:	695b      	ldr	r3, [r3, #20]
 8003d5e:	ea42 0103 	orr.w	r1, r2, r3
 8003d62:	687b      	ldr	r3, [r7, #4]
 8003d64:	699b      	ldr	r3, [r3, #24]
 8003d66:	021a      	lsls	r2, r3, #8
 8003d68:	687b      	ldr	r3, [r7, #4]
 8003d6a:	681b      	ldr	r3, [r3, #0]
 8003d6c:	430a      	orrs	r2, r1
 8003d6e:	60da      	str	r2, [r3, #12]

  /*---------------------------- I2Cx CR1 Configuration ----------------------*/
  /* Configure I2Cx: Generalcall and NoStretch mode */
  hi2c->Instance->CR1 = (hi2c->Init.GeneralCallMode | hi2c->Init.NoStretchMode);
 8003d70:	687b      	ldr	r3, [r7, #4]
 8003d72:	69d9      	ldr	r1, [r3, #28]
 8003d74:	687b      	ldr	r3, [r7, #4]
 8003d76:	6a1a      	ldr	r2, [r3, #32]
 8003d78:	687b      	ldr	r3, [r7, #4]
 8003d7a:	681b      	ldr	r3, [r3, #0]
 8003d7c:	430a      	orrs	r2, r1
 8003d7e:	601a      	str	r2, [r3, #0]

  /* Enable the selected I2C peripheral */
  __HAL_I2C_ENABLE(hi2c);
 8003d80:	687b      	ldr	r3, [r7, #4]
 8003d82:	681b      	ldr	r3, [r3, #0]
 8003d84:	681a      	ldr	r2, [r3, #0]
 8003d86:	687b      	ldr	r3, [r7, #4]
 8003d88:	681b      	ldr	r3, [r3, #0]
 8003d8a:	f042 0201 	orr.w	r2, r2, #1
 8003d8e:	601a      	str	r2, [r3, #0]

  hi2c->ErrorCode = HAL_I2C_ERROR_NONE;
 8003d90:	687b      	ldr	r3, [r7, #4]
 8003d92:	2200      	movs	r2, #0
 8003d94:	645a      	str	r2, [r3, #68]	; 0x44
  hi2c->State = HAL_I2C_STATE_READY;
 8003d96:	687b      	ldr	r3, [r7, #4]
 8003d98:	2220      	movs	r2, #32
 8003d9a:	f883 2041 	strb.w	r2, [r3, #65]	; 0x41
  hi2c->PreviousState = I2C_STATE_NONE;
 8003d9e:	687b      	ldr	r3, [r7, #4]
 8003da0:	2200      	movs	r2, #0
 8003da2:	631a      	str	r2, [r3, #48]	; 0x30
  hi2c->Mode = HAL_I2C_MODE_NONE;
 8003da4:	687b      	ldr	r3, [r7, #4]
 8003da6:	2200      	movs	r2, #0
 8003da8:	f883 2042 	strb.w	r2, [r3, #66]	; 0x42

  return HAL_OK;
 8003dac:	2300      	movs	r3, #0
}
 8003dae:	4618      	mov	r0, r3
 8003db0:	3708      	adds	r7, #8
 8003db2:	46bd      	mov	sp, r7
 8003db4:	bd80      	pop	{r7, pc}
	...

08003db8 <HAL_I2C_Mem_Write>:
  * @param  Timeout Timeout duration
  * @retval HAL status
  */
HAL_StatusTypeDef HAL_I2C_Mem_Write(I2C_HandleTypeDef *hi2c, uint16_t DevAddress, uint16_t MemAddress,
                                    uint16_t MemAddSize, uint8_t *pData, uint16_t Size, uint32_t Timeout)
{
 8003db8:	b580      	push	{r7, lr}
 8003dba:	b088      	sub	sp, #32
 8003dbc:	af02      	add	r7, sp, #8
 8003dbe:	60f8      	str	r0, [r7, #12]
 8003dc0:	4608      	mov	r0, r1
 8003dc2:	4611      	mov	r1, r2
 8003dc4:	461a      	mov	r2, r3
 8003dc6:	4603      	mov	r3, r0
 8003dc8:	817b      	strh	r3, [r7, #10]
 8003dca:	460b      	mov	r3, r1
 8003dcc:	813b      	strh	r3, [r7, #8]
 8003dce:	4613      	mov	r3, r2
 8003dd0:	80fb      	strh	r3, [r7, #6]
  uint32_t tickstart;

  /* Check the parameters */
  assert_param(IS_I2C_MEMADD_SIZE(MemAddSize));

  if (hi2c->State == HAL_I2C_STATE_READY)
 8003dd2:	68fb      	ldr	r3, [r7, #12]
 8003dd4:	f893 3041 	ldrb.w	r3, [r3, #65]	; 0x41
 8003dd8:	b2db      	uxtb	r3, r3
 8003dda:	2b20      	cmp	r3, #32
 8003ddc:	f040 80f9 	bne.w	8003fd2 <HAL_I2C_Mem_Write+0x21a>
  {
    if ((pData == NULL) || (Size == 0U))
 8003de0:	6a3b      	ldr	r3, [r7, #32]
 8003de2:	2b00      	cmp	r3, #0
 8003de4:	d002      	beq.n	8003dec <HAL_I2C_Mem_Write+0x34>
 8003de6:	8cbb      	ldrh	r3, [r7, #36]	; 0x24
 8003de8:	2b00      	cmp	r3, #0
 8003dea:	d105      	bne.n	8003df8 <HAL_I2C_Mem_Write+0x40>
    {
      hi2c->ErrorCode = HAL_I2C_ERROR_INVALID_PARAM;
 8003dec:	68fb      	ldr	r3, [r7, #12]
 8003dee:	f44f 7200 	mov.w	r2, #512	; 0x200
 8003df2:	645a      	str	r2, [r3, #68]	; 0x44
      return  HAL_ERROR;
 8003df4:	2301      	movs	r3, #1
 8003df6:	e0ed      	b.n	8003fd4 <HAL_I2C_Mem_Write+0x21c>
    }

    /* Process Locked */
    __HAL_LOCK(hi2c);
 8003df8:	68fb      	ldr	r3, [r7, #12]
 8003dfa:	f893 3040 	ldrb.w	r3, [r3, #64]	; 0x40
 8003dfe:	2b01      	cmp	r3, #1
 8003e00:	d101      	bne.n	8003e06 <HAL_I2C_Mem_Write+0x4e>
 8003e02:	2302      	movs	r3, #2
 8003e04:	e0e6      	b.n	8003fd4 <HAL_I2C_Mem_Write+0x21c>
 8003e06:	68fb      	ldr	r3, [r7, #12]
 8003e08:	2201      	movs	r2, #1
 8003e0a:	f883 2040 	strb.w	r2, [r3, #64]	; 0x40

    /* Init tickstart for timeout management*/
    tickstart = HAL_GetTick();
 8003e0e:	f7ff f939 	bl	8003084 <HAL_GetTick>
 8003e12:	6178      	str	r0, [r7, #20]

    if (I2C_WaitOnFlagUntilTimeout(hi2c, I2C_FLAG_BUSY, SET, I2C_TIMEOUT_BUSY, tickstart) != HAL_OK)
 8003e14:	697b      	ldr	r3, [r7, #20]
 8003e16:	9300      	str	r3, [sp, #0]
 8003e18:	2319      	movs	r3, #25
 8003e1a:	2201      	movs	r2, #1
 8003e1c:	f44f 4100 	mov.w	r1, #32768	; 0x8000
 8003e20:	68f8      	ldr	r0, [r7, #12]
 8003e22:	f000 f955 	bl	80040d0 <I2C_WaitOnFlagUntilTimeout>
 8003e26:	4603      	mov	r3, r0
 8003e28:	2b00      	cmp	r3, #0
 8003e2a:	d001      	beq.n	8003e30 <HAL_I2C_Mem_Write+0x78>
    {
      return HAL_ERROR;
 8003e2c:	2301      	movs	r3, #1
 8003e2e:	e0d1      	b.n	8003fd4 <HAL_I2C_Mem_Write+0x21c>
    }

    hi2c->State     = HAL_I2C_STATE_BUSY_TX;
 8003e30:	68fb      	ldr	r3, [r7, #12]
 8003e32:	2221      	movs	r2, #33	; 0x21
 8003e34:	f883 2041 	strb.w	r2, [r3, #65]	; 0x41
    hi2c->Mode      = HAL_I2C_MODE_MEM;
 8003e38:	68fb      	ldr	r3, [r7, #12]
 8003e3a:	2240      	movs	r2, #64	; 0x40
 8003e3c:	f883 2042 	strb.w	r2, [r3, #66]	; 0x42
    hi2c->ErrorCode = HAL_I2C_ERROR_NONE;
 8003e40:	68fb      	ldr	r3, [r7, #12]
 8003e42:	2200      	movs	r2, #0
 8003e44:	645a      	str	r2, [r3, #68]	; 0x44

    /* Prepare transfer parameters */
    hi2c->pBuffPtr  = pData;
 8003e46:	68fb      	ldr	r3, [r7, #12]
 8003e48:	6a3a      	ldr	r2, [r7, #32]
 8003e4a:	625a      	str	r2, [r3, #36]	; 0x24
    hi2c->XferCount = Size;
 8003e4c:	68fb      	ldr	r3, [r7, #12]
 8003e4e:	8cba      	ldrh	r2, [r7, #36]	; 0x24
 8003e50:	855a      	strh	r2, [r3, #42]	; 0x2a
    hi2c->XferISR   = NULL;
 8003e52:	68fb      	ldr	r3, [r7, #12]
 8003e54:	2200      	movs	r2, #0
 8003e56:	635a      	str	r2, [r3, #52]	; 0x34

    /* Send Slave Address and Memory Address */
    if (I2C_RequestMemoryWrite(hi2c, DevAddress, MemAddress, MemAddSize, Timeout, tickstart) != HAL_OK)
 8003e58:	88f8      	ldrh	r0, [r7, #6]
 8003e5a:	893a      	ldrh	r2, [r7, #8]
 8003e5c:	8979      	ldrh	r1, [r7, #10]
 8003e5e:	697b      	ldr	r3, [r7, #20]
 8003e60:	9301      	str	r3, [sp, #4]
 8003e62:	6abb      	ldr	r3, [r7, #40]	; 0x28
 8003e64:	9300      	str	r3, [sp, #0]
 8003e66:	4603      	mov	r3, r0
 8003e68:	68f8      	ldr	r0, [r7, #12]
 8003e6a:	f000 f8b9 	bl	8003fe0 <I2C_RequestMemoryWrite>
 8003e6e:	4603      	mov	r3, r0
 8003e70:	2b00      	cmp	r3, #0
 8003e72:	d005      	beq.n	8003e80 <HAL_I2C_Mem_Write+0xc8>
    {
      /* Process Unlocked */
      __HAL_UNLOCK(hi2c);
 8003e74:	68fb      	ldr	r3, [r7, #12]
 8003e76:	2200      	movs	r2, #0
 8003e78:	f883 2040 	strb.w	r2, [r3, #64]	; 0x40
      return HAL_ERROR;
 8003e7c:	2301      	movs	r3, #1
 8003e7e:	e0a9      	b.n	8003fd4 <HAL_I2C_Mem_Write+0x21c>
    }

    /* Set NBYTES to write and reload if hi2c->XferCount > MAX_NBYTE_SIZE */
    if (hi2c->XferCount > MAX_NBYTE_SIZE)
 8003e80:	68fb      	ldr	r3, [r7, #12]
 8003e82:	8d5b      	ldrh	r3, [r3, #42]	; 0x2a
 8003e84:	b29b      	uxth	r3, r3
 8003e86:	2bff      	cmp	r3, #255	; 0xff
 8003e88:	d90e      	bls.n	8003ea8 <HAL_I2C_Mem_Write+0xf0>
    {
      hi2c->XferSize = MAX_NBYTE_SIZE;
 8003e8a:	68fb      	ldr	r3, [r7, #12]
 8003e8c:	22ff      	movs	r2, #255	; 0xff
 8003e8e:	851a      	strh	r2, [r3, #40]	; 0x28
      I2C_TransferConfig(hi2c, DevAddress, (uint8_t)hi2c->XferSize, I2C_RELOAD_MODE, I2C_NO_STARTSTOP);
 8003e90:	68fb      	ldr	r3, [r7, #12]
 8003e92:	8d1b      	ldrh	r3, [r3, #40]	; 0x28
 8003e94:	b2da      	uxtb	r2, r3
 8003e96:	8979      	ldrh	r1, [r7, #10]
 8003e98:	2300      	movs	r3, #0
 8003e9a:	9300      	str	r3, [sp, #0]
 8003e9c:	f04f 7380 	mov.w	r3, #16777216	; 0x1000000
 8003ea0:	68f8      	ldr	r0, [r7, #12]
 8003ea2:	f000 fa37 	bl	8004314 <I2C_TransferConfig>
 8003ea6:	e00f      	b.n	8003ec8 <HAL_I2C_Mem_Write+0x110>
    }
    else
    {
      hi2c->XferSize = hi2c->XferCount;
 8003ea8:	68fb      	ldr	r3, [r7, #12]
 8003eaa:	8d5b      	ldrh	r3, [r3, #42]	; 0x2a
 8003eac:	b29a      	uxth	r2, r3
 8003eae:	68fb      	ldr	r3, [r7, #12]
 8003eb0:	851a      	strh	r2, [r3, #40]	; 0x28
      I2C_TransferConfig(hi2c, DevAddress, (uint8_t)hi2c->XferSize, I2C_AUTOEND_MODE, I2C_NO_STARTSTOP);
 8003eb2:	68fb      	ldr	r3, [r7, #12]
 8003eb4:	8d1b      	ldrh	r3, [r3, #40]	; 0x28
 8003eb6:	b2da      	uxtb	r2, r3
 8003eb8:	8979      	ldrh	r1, [r7, #10]
 8003eba:	2300      	movs	r3, #0
 8003ebc:	9300      	str	r3, [sp, #0]
 8003ebe:	f04f 7300 	mov.w	r3, #33554432	; 0x2000000
 8003ec2:	68f8      	ldr	r0, [r7, #12]
 8003ec4:	f000 fa26 	bl	8004314 <I2C_TransferConfig>
    }

    do
    {
      /* Wait until TXIS flag is set */
      if (I2C_WaitOnTXISFlagUntilTimeout(hi2c, Timeout, tickstart) != HAL_OK)
 8003ec8:	697a      	ldr	r2, [r7, #20]
 8003eca:	6ab9      	ldr	r1, [r7, #40]	; 0x28
 8003ecc:	68f8      	ldr	r0, [r7, #12]
 8003ece:	f000 f93f 	bl	8004150 <I2C_WaitOnTXISFlagUntilTimeout>
 8003ed2:	4603      	mov	r3, r0
 8003ed4:	2b00      	cmp	r3, #0
 8003ed6:	d001      	beq.n	8003edc <HAL_I2C_Mem_Write+0x124>
      {
        return HAL_ERROR;
 8003ed8:	2301      	movs	r3, #1
 8003eda:	e07b      	b.n	8003fd4 <HAL_I2C_Mem_Write+0x21c>
      }

      /* Write data to TXDR */
      hi2c->Instance->TXDR = *hi2c->pBuffPtr;
 8003edc:	68fb      	ldr	r3, [r7, #12]
 8003ede:	6a5b      	ldr	r3, [r3, #36]	; 0x24
 8003ee0:	781a      	ldrb	r2, [r3, #0]
 8003ee2:	68fb      	ldr	r3, [r7, #12]
 8003ee4:	681b      	ldr	r3, [r3, #0]
 8003ee6:	629a      	str	r2, [r3, #40]	; 0x28

      /* Increment Buffer pointer */
      hi2c->pBuffPtr++;
 8003ee8:	68fb      	ldr	r3, [r7, #12]
 8003eea:	6a5b      	ldr	r3, [r3, #36]	; 0x24
 8003eec:	1c5a      	adds	r2, r3, #1
 8003eee:	68fb      	ldr	r3, [r7, #12]
 8003ef0:	625a      	str	r2, [r3, #36]	; 0x24

      hi2c->XferCount--;
 8003ef2:	68fb      	ldr	r3, [r7, #12]
 8003ef4:	8d5b      	ldrh	r3, [r3, #42]	; 0x2a
 8003ef6:	b29b      	uxth	r3, r3
 8003ef8:	3b01      	subs	r3, #1
 8003efa:	b29a      	uxth	r2, r3
 8003efc:	68fb      	ldr	r3, [r7, #12]
 8003efe:	855a      	strh	r2, [r3, #42]	; 0x2a
      hi2c->XferSize--;
 8003f00:	68fb      	ldr	r3, [r7, #12]
 8003f02:	8d1b      	ldrh	r3, [r3, #40]	; 0x28
 8003f04:	3b01      	subs	r3, #1
 8003f06:	b29a      	uxth	r2, r3
 8003f08:	68fb      	ldr	r3, [r7, #12]
 8003f0a:	851a      	strh	r2, [r3, #40]	; 0x28

      if ((hi2c->XferCount != 0U) && (hi2c->XferSize == 0U))
 8003f0c:	68fb      	ldr	r3, [r7, #12]
 8003f0e:	8d5b      	ldrh	r3, [r3, #42]	; 0x2a
 8003f10:	b29b      	uxth	r3, r3
 8003f12:	2b00      	cmp	r3, #0
 8003f14:	d034      	beq.n	8003f80 <HAL_I2C_Mem_Write+0x1c8>
 8003f16:	68fb      	ldr	r3, [r7, #12]
 8003f18:	8d1b      	ldrh	r3, [r3, #40]	; 0x28
 8003f1a:	2b00      	cmp	r3, #0
 8003f1c:	d130      	bne.n	8003f80 <HAL_I2C_Mem_Write+0x1c8>
      {
        /* Wait until TCR flag is set */
        if (I2C_WaitOnFlagUntilTimeout(hi2c, I2C_FLAG_TCR, RESET, Timeout, tickstart) != HAL_OK)
 8003f1e:	697b      	ldr	r3, [r7, #20]
 8003f20:	9300      	str	r3, [sp, #0]
 8003f22:	6abb      	ldr	r3, [r7, #40]	; 0x28
 8003f24:	2200      	movs	r2, #0
 8003f26:	2180      	movs	r1, #128	; 0x80
 8003f28:	68f8      	ldr	r0, [r7, #12]
 8003f2a:	f000 f8d1 	bl	80040d0 <I2C_WaitOnFlagUntilTimeout>
 8003f2e:	4603      	mov	r3, r0
 8003f30:	2b00      	cmp	r3, #0
 8003f32:	d001      	beq.n	8003f38 <HAL_I2C_Mem_Write+0x180>
        {
          return HAL_ERROR;
 8003f34:	2301      	movs	r3, #1
 8003f36:	e04d      	b.n	8003fd4 <HAL_I2C_Mem_Write+0x21c>
        }

        if (hi2c->XferCount > MAX_NBYTE_SIZE)
 8003f38:	68fb      	ldr	r3, [r7, #12]
 8003f3a:	8d5b      	ldrh	r3, [r3, #42]	; 0x2a
 8003f3c:	b29b      	uxth	r3, r3
 8003f3e:	2bff      	cmp	r3, #255	; 0xff
 8003f40:	d90e      	bls.n	8003f60 <HAL_I2C_Mem_Write+0x1a8>
        {
          hi2c->XferSize = MAX_NBYTE_SIZE;
 8003f42:	68fb      	ldr	r3, [r7, #12]
 8003f44:	22ff      	movs	r2, #255	; 0xff
 8003f46:	851a      	strh	r2, [r3, #40]	; 0x28
          I2C_TransferConfig(hi2c, DevAddress, (uint8_t)hi2c->XferSize, I2C_RELOAD_MODE, I2C_NO_STARTSTOP);
 8003f48:	68fb      	ldr	r3, [r7, #12]
 8003f4a:	8d1b      	ldrh	r3, [r3, #40]	; 0x28
 8003f4c:	b2da      	uxtb	r2, r3
 8003f4e:	8979      	ldrh	r1, [r7, #10]
 8003f50:	2300      	movs	r3, #0
 8003f52:	9300      	str	r3, [sp, #0]
 8003f54:	f04f 7380 	mov.w	r3, #16777216	; 0x1000000
 8003f58:	68f8      	ldr	r0, [r7, #12]
 8003f5a:	f000 f9db 	bl	8004314 <I2C_TransferConfig>
 8003f5e:	e00f      	b.n	8003f80 <HAL_I2C_Mem_Write+0x1c8>
        }
        else
        {
          hi2c->XferSize = hi2c->XferCount;
 8003f60:	68fb      	ldr	r3, [r7, #12]
 8003f62:	8d5b      	ldrh	r3, [r3, #42]	; 0x2a
 8003f64:	b29a      	uxth	r2, r3
 8003f66:	68fb      	ldr	r3, [r7, #12]
 8003f68:	851a      	strh	r2, [r3, #40]	; 0x28
          I2C_TransferConfig(hi2c, DevAddress, (uint8_t)hi2c->XferSize, I2C_AUTOEND_MODE, I2C_NO_STARTSTOP);
 8003f6a:	68fb      	ldr	r3, [r7, #12]
 8003f6c:	8d1b      	ldrh	r3, [r3, #40]	; 0x28
 8003f6e:	b2da      	uxtb	r2, r3
 8003f70:	8979      	ldrh	r1, [r7, #10]
 8003f72:	2300      	movs	r3, #0
 8003f74:	9300      	str	r3, [sp, #0]
 8003f76:	f04f 7300 	mov.w	r3, #33554432	; 0x2000000
 8003f7a:	68f8      	ldr	r0, [r7, #12]
 8003f7c:	f000 f9ca 	bl	8004314 <I2C_TransferConfig>
        }
      }

    } while (hi2c->XferCount > 0U);
 8003f80:	68fb      	ldr	r3, [r7, #12]
 8003f82:	8d5b      	ldrh	r3, [r3, #42]	; 0x2a
 8003f84:	b29b      	uxth	r3, r3
 8003f86:	2b00      	cmp	r3, #0
 8003f88:	d19e      	bne.n	8003ec8 <HAL_I2C_Mem_Write+0x110>

    /* No need to Check TC flag, with AUTOEND mode the stop is automatically generated */
    /* Wait until STOPF flag is reset */
    if (I2C_WaitOnSTOPFlagUntilTimeout(hi2c, Timeout, tickstart) != HAL_OK)
 8003f8a:	697a      	ldr	r2, [r7, #20]
 8003f8c:	6ab9      	ldr	r1, [r7, #40]	; 0x28
 8003f8e:	68f8      	ldr	r0, [r7, #12]
 8003f90:	f000 f91e 	bl	80041d0 <I2C_WaitOnSTOPFlagUntilTimeout>
 8003f94:	4603      	mov	r3, r0
 8003f96:	2b00      	cmp	r3, #0
 8003f98:	d001      	beq.n	8003f9e <HAL_I2C_Mem_Write+0x1e6>
    {
      return HAL_ERROR;
 8003f9a:	2301      	movs	r3, #1
 8003f9c:	e01a      	b.n	8003fd4 <HAL_I2C_Mem_Write+0x21c>
    }

    /* Clear STOP Flag */
    __HAL_I2C_CLEAR_FLAG(hi2c, I2C_FLAG_STOPF);
 8003f9e:	68fb      	ldr	r3, [r7, #12]
 8003fa0:	681b      	ldr	r3, [r3, #0]
 8003fa2:	2220      	movs	r2, #32
 8003fa4:	61da      	str	r2, [r3, #28]

    /* Clear Configuration Register 2 */
    I2C_RESET_CR2(hi2c);
 8003fa6:	68fb      	ldr	r3, [r7, #12]
 8003fa8:	681b      	ldr	r3, [r3, #0]
 8003faa:	6859      	ldr	r1, [r3, #4]
 8003fac:	68fb      	ldr	r3, [r7, #12]
 8003fae:	681a      	ldr	r2, [r3, #0]
 8003fb0:	4b0a      	ldr	r3, [pc, #40]	; (8003fdc <HAL_I2C_Mem_Write+0x224>)
 8003fb2:	400b      	ands	r3, r1
 8003fb4:	6053      	str	r3, [r2, #4]

    hi2c->State = HAL_I2C_STATE_READY;
 8003fb6:	68fb      	ldr	r3, [r7, #12]
 8003fb8:	2220      	movs	r2, #32
 8003fba:	f883 2041 	strb.w	r2, [r3, #65]	; 0x41
    hi2c->Mode  = HAL_I2C_MODE_NONE;
 8003fbe:	68fb      	ldr	r3, [r7, #12]
 8003fc0:	2200      	movs	r2, #0
 8003fc2:	f883 2042 	strb.w	r2, [r3, #66]	; 0x42

    /* Process Unlocked */
    __HAL_UNLOCK(hi2c);
 8003fc6:	68fb      	ldr	r3, [r7, #12]
 8003fc8:	2200      	movs	r2, #0
 8003fca:	f883 2040 	strb.w	r2, [r3, #64]	; 0x40

    return HAL_OK;
 8003fce:	2300      	movs	r3, #0
 8003fd0:	e000      	b.n	8003fd4 <HAL_I2C_Mem_Write+0x21c>
  }
  else
  {
    return HAL_BUSY;
 8003fd2:	2302      	movs	r3, #2
  }
}
 8003fd4:	4618      	mov	r0, r3
 8003fd6:	3718      	adds	r7, #24
 8003fd8:	46bd      	mov	sp, r7
 8003fda:	bd80      	pop	{r7, pc}
 8003fdc:	fe00e800 	.word	0xfe00e800

08003fe0 <I2C_RequestMemoryWrite>:
  * @param  Tickstart Tick start value
  * @retval HAL status
  */
static HAL_StatusTypeDef I2C_RequestMemoryWrite(I2C_HandleTypeDef *hi2c, uint16_t DevAddress, uint16_t MemAddress,
                                                uint16_t MemAddSize, uint32_t Timeout, uint32_t Tickstart)
{
 8003fe0:	b580      	push	{r7, lr}
 8003fe2:	b086      	sub	sp, #24
 8003fe4:	af02      	add	r7, sp, #8
 8003fe6:	60f8      	str	r0, [r7, #12]
 8003fe8:	4608      	mov	r0, r1
 8003fea:	4611      	mov	r1, r2
 8003fec:	461a      	mov	r2, r3
 8003fee:	4603      	mov	r3, r0
 8003ff0:	817b      	strh	r3, [r7, #10]
 8003ff2:	460b      	mov	r3, r1
 8003ff4:	813b      	strh	r3, [r7, #8]
 8003ff6:	4613      	mov	r3, r2
 8003ff8:	80fb      	strh	r3, [r7, #6]
  I2C_TransferConfig(hi2c, DevAddress, (uint8_t)MemAddSize, I2C_RELOAD_MODE, I2C_GENERATE_START_WRITE);
 8003ffa:	88fb      	ldrh	r3, [r7, #6]
 8003ffc:	b2da      	uxtb	r2, r3
 8003ffe:	8979      	ldrh	r1, [r7, #10]
 8004000:	4b20      	ldr	r3, [pc, #128]	; (8004084 <I2C_RequestMemoryWrite+0xa4>)
 8004002:	9300      	str	r3, [sp, #0]
 8004004:	f04f 7380 	mov.w	r3, #16777216	; 0x1000000
 8004008:	68f8      	ldr	r0, [r7, #12]
 800400a:	f000 f983 	bl	8004314 <I2C_TransferConfig>

  /* Wait until TXIS flag is set */
  if (I2C_WaitOnTXISFlagUntilTimeout(hi2c, Timeout, Tickstart) != HAL_OK)
 800400e:	69fa      	ldr	r2, [r7, #28]
 8004010:	69b9      	ldr	r1, [r7, #24]
 8004012:	68f8      	ldr	r0, [r7, #12]
 8004014:	f000 f89c 	bl	8004150 <I2C_WaitOnTXISFlagUntilTimeout>
 8004018:	4603      	mov	r3, r0
 800401a:	2b00      	cmp	r3, #0
 800401c:	d001      	beq.n	8004022 <I2C_RequestMemoryWrite+0x42>
  {
    return HAL_ERROR;
 800401e:	2301      	movs	r3, #1
 8004020:	e02c      	b.n	800407c <I2C_RequestMemoryWrite+0x9c>
  }

  /* If Memory address size is 8Bit */
  if (MemAddSize == I2C_MEMADD_SIZE_8BIT)
 8004022:	88fb      	ldrh	r3, [r7, #6]
 8004024:	2b01      	cmp	r3, #1
 8004026:	d105      	bne.n	8004034 <I2C_RequestMemoryWrite+0x54>
  {
    /* Send Memory Address */
    hi2c->Instance->TXDR = I2C_MEM_ADD_LSB(MemAddress);
 8004028:	893b      	ldrh	r3, [r7, #8]
 800402a:	b2da      	uxtb	r2, r3
 800402c:	68fb      	ldr	r3, [r7, #12]
 800402e:	681b      	ldr	r3, [r3, #0]
 8004030:	629a      	str	r2, [r3, #40]	; 0x28
 8004032:	e015      	b.n	8004060 <I2C_RequestMemoryWrite+0x80>
  }
  /* If Memory address size is 16Bit */
  else
  {
    /* Send MSB of Memory Address */
    hi2c->Instance->TXDR = I2C_MEM_ADD_MSB(MemAddress);
 8004034:	893b      	ldrh	r3, [r7, #8]
 8004036:	0a1b      	lsrs	r3, r3, #8
 8004038:	b29b      	uxth	r3, r3
 800403a:	b2da      	uxtb	r2, r3
 800403c:	68fb      	ldr	r3, [r7, #12]
 800403e:	681b      	ldr	r3, [r3, #0]
 8004040:	629a      	str	r2, [r3, #40]	; 0x28

    /* Wait until TXIS flag is set */
    if (I2C_WaitOnTXISFlagUntilTimeout(hi2c, Timeout, Tickstart) != HAL_OK)
 8004042:	69fa      	ldr	r2, [r7, #28]
 8004044:	69b9      	ldr	r1, [r7, #24]
 8004046:	68f8      	ldr	r0, [r7, #12]
 8004048:	f000 f882 	bl	8004150 <I2C_WaitOnTXISFlagUntilTimeout>
 800404c:	4603      	mov	r3, r0
 800404e:	2b00      	cmp	r3, #0
 8004050:	d001      	beq.n	8004056 <I2C_RequestMemoryWrite+0x76>
    {
      return HAL_ERROR;
 8004052:	2301      	movs	r3, #1
 8004054:	e012      	b.n	800407c <I2C_RequestMemoryWrite+0x9c>
    }

    /* Send LSB of Memory Address */
    hi2c->Instance->TXDR = I2C_MEM_ADD_LSB(MemAddress);
 8004056:	893b      	ldrh	r3, [r7, #8]
 8004058:	b2da      	uxtb	r2, r3
 800405a:	68fb      	ldr	r3, [r7, #12]
 800405c:	681b      	ldr	r3, [r3, #0]
 800405e:	629a      	str	r2, [r3, #40]	; 0x28
  }

  /* Wait until TCR flag is set */
  if (I2C_WaitOnFlagUntilTimeout(hi2c, I2C_FLAG_TCR, RESET, Timeout, Tickstart) != HAL_OK)
 8004060:	69fb      	ldr	r3, [r7, #28]
 8004062:	9300      	str	r3, [sp, #0]
 8004064:	69bb      	ldr	r3, [r7, #24]
 8004066:	2200      	movs	r2, #0
 8004068:	2180      	movs	r1, #128	; 0x80
 800406a:	68f8      	ldr	r0, [r7, #12]
 800406c:	f000 f830 	bl	80040d0 <I2C_WaitOnFlagUntilTimeout>
 8004070:	4603      	mov	r3, r0
 8004072:	2b00      	cmp	r3, #0
 8004074:	d001      	beq.n	800407a <I2C_RequestMemoryWrite+0x9a>
  {
    return HAL_ERROR;
 8004076:	2301      	movs	r3, #1
 8004078:	e000      	b.n	800407c <I2C_RequestMemoryWrite+0x9c>
  }

  return HAL_OK;
 800407a:	2300      	movs	r3, #0
}
 800407c:	4618      	mov	r0, r3
 800407e:	3710      	adds	r7, #16
 8004080:	46bd      	mov	sp, r7
 8004082:	bd80      	pop	{r7, pc}
 8004084:	80002000 	.word	0x80002000

08004088 <I2C_Flush_TXDR>:
  * @brief  I2C Tx data register flush process.
  * @param  hi2c I2C handle.
  * @retval None
  */
static void I2C_Flush_TXDR(I2C_HandleTypeDef *hi2c)
{
 8004088:	b480      	push	{r7}
 800408a:	b083      	sub	sp, #12
 800408c:	af00      	add	r7, sp, #0
 800408e:	6078      	str	r0, [r7, #4]
  /* If a pending TXIS flag is set */
  /* Write a dummy data in TXDR to clear it */
  if (__HAL_I2C_GET_FLAG(hi2c, I2C_FLAG_TXIS) != RESET)
 8004090:	687b      	ldr	r3, [r7, #4]
 8004092:	681b      	ldr	r3, [r3, #0]
 8004094:	699b      	ldr	r3, [r3, #24]
 8004096:	f003 0302 	and.w	r3, r3, #2
 800409a:	2b02      	cmp	r3, #2
 800409c:	d103      	bne.n	80040a6 <I2C_Flush_TXDR+0x1e>
  {
    hi2c->Instance->TXDR = 0x00U;
 800409e:	687b      	ldr	r3, [r7, #4]
 80040a0:	681b      	ldr	r3, [r3, #0]
 80040a2:	2200      	movs	r2, #0
 80040a4:	629a      	str	r2, [r3, #40]	; 0x28
  }

  /* Flush TX register if not empty */
  if (__HAL_I2C_GET_FLAG(hi2c, I2C_FLAG_TXE) == RESET)
 80040a6:	687b      	ldr	r3, [r7, #4]
 80040a8:	681b      	ldr	r3, [r3, #0]
 80040aa:	699b      	ldr	r3, [r3, #24]
 80040ac:	f003 0301 	and.w	r3, r3, #1
 80040b0:	2b01      	cmp	r3, #1
 80040b2:	d007      	beq.n	80040c4 <I2C_Flush_TXDR+0x3c>
  {
    __HAL_I2C_CLEAR_FLAG(hi2c, I2C_FLAG_TXE);
 80040b4:	687b      	ldr	r3, [r7, #4]
 80040b6:	681b      	ldr	r3, [r3, #0]
 80040b8:	699a      	ldr	r2, [r3, #24]
 80040ba:	687b      	ldr	r3, [r7, #4]
 80040bc:	681b      	ldr	r3, [r3, #0]
 80040be:	f042 0201 	orr.w	r2, r2, #1
 80040c2:	619a      	str	r2, [r3, #24]
  }
}
 80040c4:	bf00      	nop
 80040c6:	370c      	adds	r7, #12
 80040c8:	46bd      	mov	sp, r7
 80040ca:	f85d 7b04 	ldr.w	r7, [sp], #4
 80040ce:	4770      	bx	lr

080040d0 <I2C_WaitOnFlagUntilTimeout>:
  * @param  Tickstart Tick start value
  * @retval HAL status
  */
static HAL_StatusTypeDef I2C_WaitOnFlagUntilTimeout(I2C_HandleTypeDef *hi2c, uint32_t Flag, FlagStatus Status,
                                                    uint32_t Timeout, uint32_t Tickstart)
{
 80040d0:	b580      	push	{r7, lr}
 80040d2:	b084      	sub	sp, #16
 80040d4:	af00      	add	r7, sp, #0
 80040d6:	60f8      	str	r0, [r7, #12]
 80040d8:	60b9      	str	r1, [r7, #8]
 80040da:	603b      	str	r3, [r7, #0]
 80040dc:	4613      	mov	r3, r2
 80040de:	71fb      	strb	r3, [r7, #7]
  while (__HAL_I2C_GET_FLAG(hi2c, Flag) == Status)
 80040e0:	e022      	b.n	8004128 <I2C_WaitOnFlagUntilTimeout+0x58>
  {
    /* Check for the Timeout */
    if (Timeout != HAL_MAX_DELAY)
 80040e2:	683b      	ldr	r3, [r7, #0]
 80040e4:	f1b3 3fff 	cmp.w	r3, #4294967295
 80040e8:	d01e      	beq.n	8004128 <I2C_WaitOnFlagUntilTimeout+0x58>
    {
      if (((HAL_GetTick() - Tickstart) > Timeout) || (Timeout == 0U))
 80040ea:	f7fe ffcb 	bl	8003084 <HAL_GetTick>
 80040ee:	4602      	mov	r2, r0
 80040f0:	69bb      	ldr	r3, [r7, #24]
 80040f2:	1ad3      	subs	r3, r2, r3
 80040f4:	683a      	ldr	r2, [r7, #0]
 80040f6:	429a      	cmp	r2, r3
 80040f8:	d302      	bcc.n	8004100 <I2C_WaitOnFlagUntilTimeout+0x30>
 80040fa:	683b      	ldr	r3, [r7, #0]
 80040fc:	2b00      	cmp	r3, #0
 80040fe:	d113      	bne.n	8004128 <I2C_WaitOnFlagUntilTimeout+0x58>
      {
        hi2c->ErrorCode |= HAL_I2C_ERROR_TIMEOUT;
 8004100:	68fb      	ldr	r3, [r7, #12]
 8004102:	6c5b      	ldr	r3, [r3, #68]	; 0x44
 8004104:	f043 0220 	orr.w	r2, r3, #32
 8004108:	68fb      	ldr	r3, [r7, #12]
 800410a:	645a      	str	r2, [r3, #68]	; 0x44
        hi2c->State = HAL_I2C_STATE_READY;
 800410c:	68fb      	ldr	r3, [r7, #12]
 800410e:	2220      	movs	r2, #32
 8004110:	f883 2041 	strb.w	r2, [r3, #65]	; 0x41
        hi2c->Mode = HAL_I2C_MODE_NONE;
 8004114:	68fb      	ldr	r3, [r7, #12]
 8004116:	2200      	movs	r2, #0
 8004118:	f883 2042 	strb.w	r2, [r3, #66]	; 0x42

        /* Process Unlocked */
        __HAL_UNLOCK(hi2c);
 800411c:	68fb      	ldr	r3, [r7, #12]
 800411e:	2200      	movs	r2, #0
 8004120:	f883 2040 	strb.w	r2, [r3, #64]	; 0x40
        return HAL_ERROR;
 8004124:	2301      	movs	r3, #1
 8004126:	e00f      	b.n	8004148 <I2C_WaitOnFlagUntilTimeout+0x78>
  while (__HAL_I2C_GET_FLAG(hi2c, Flag) == Status)
 8004128:	68fb      	ldr	r3, [r7, #12]
 800412a:	681b      	ldr	r3, [r3, #0]
 800412c:	699a      	ldr	r2, [r3, #24]
 800412e:	68bb      	ldr	r3, [r7, #8]
 8004130:	4013      	ands	r3, r2
 8004132:	68ba      	ldr	r2, [r7, #8]
 8004134:	429a      	cmp	r2, r3
 8004136:	bf0c      	ite	eq
 8004138:	2301      	moveq	r3, #1
 800413a:	2300      	movne	r3, #0
 800413c:	b2db      	uxtb	r3, r3
 800413e:	461a      	mov	r2, r3
 8004140:	79fb      	ldrb	r3, [r7, #7]
 8004142:	429a      	cmp	r2, r3
 8004144:	d0cd      	beq.n	80040e2 <I2C_WaitOnFlagUntilTimeout+0x12>
      }
    }
  }
  return HAL_OK;
 8004146:	2300      	movs	r3, #0
}
 8004148:	4618      	mov	r0, r3
 800414a:	3710      	adds	r7, #16
 800414c:	46bd      	mov	sp, r7
 800414e:	bd80      	pop	{r7, pc}

08004150 <I2C_WaitOnTXISFlagUntilTimeout>:
  * @param  Timeout Timeout duration
  * @param  Tickstart Tick start value
  * @retval HAL status
  */
static HAL_StatusTypeDef I2C_WaitOnTXISFlagUntilTimeout(I2C_HandleTypeDef *hi2c, uint32_t Timeout, uint32_t Tickstart)
{
 8004150:	b580      	push	{r7, lr}
 8004152:	b084      	sub	sp, #16
 8004154:	af00      	add	r7, sp, #0
 8004156:	60f8      	str	r0, [r7, #12]
 8004158:	60b9      	str	r1, [r7, #8]
 800415a:	607a      	str	r2, [r7, #4]
  while (__HAL_I2C_GET_FLAG(hi2c, I2C_FLAG_TXIS) == RESET)
 800415c:	e02c      	b.n	80041b8 <I2C_WaitOnTXISFlagUntilTimeout+0x68>
  {
    /* Check if a NACK is detected */
    if (I2C_IsAcknowledgeFailed(hi2c, Timeout, Tickstart) != HAL_OK)
 800415e:	687a      	ldr	r2, [r7, #4]
 8004160:	68b9      	ldr	r1, [r7, #8]
 8004162:	68f8      	ldr	r0, [r7, #12]
 8004164:	f000 f870 	bl	8004248 <I2C_IsAcknowledgeFailed>
 8004168:	4603      	mov	r3, r0
 800416a:	2b00      	cmp	r3, #0
 800416c:	d001      	beq.n	8004172 <I2C_WaitOnTXISFlagUntilTimeout+0x22>
    {
      return HAL_ERROR;
 800416e:	2301      	movs	r3, #1
 8004170:	e02a      	b.n	80041c8 <I2C_WaitOnTXISFlagUntilTimeout+0x78>
    }

    /* Check for the Timeout */
    if (Timeout != HAL_MAX_DELAY)
 8004172:	68bb      	ldr	r3, [r7, #8]
 8004174:	f1b3 3fff 	cmp.w	r3, #4294967295
 8004178:	d01e      	beq.n	80041b8 <I2C_WaitOnTXISFlagUntilTimeout+0x68>
    {
      if (((HAL_GetTick() - Tickstart) > Timeout) || (Timeout == 0U))
 800417a:	f7fe ff83 	bl	8003084 <HAL_GetTick>
 800417e:	4602      	mov	r2, r0
 8004180:	687b      	ldr	r3, [r7, #4]
 8004182:	1ad3      	subs	r3, r2, r3
 8004184:	68ba      	ldr	r2, [r7, #8]
 8004186:	429a      	cmp	r2, r3
 8004188:	d302      	bcc.n	8004190 <I2C_WaitOnTXISFlagUntilTimeout+0x40>
 800418a:	68bb      	ldr	r3, [r7, #8]
 800418c:	2b00      	cmp	r3, #0
 800418e:	d113      	bne.n	80041b8 <I2C_WaitOnTXISFlagUntilTimeout+0x68>
      {
        hi2c->ErrorCode |= HAL_I2C_ERROR_TIMEOUT;
 8004190:	68fb      	ldr	r3, [r7, #12]
 8004192:	6c5b      	ldr	r3, [r3, #68]	; 0x44
 8004194:	f043 0220 	orr.w	r2, r3, #32
 8004198:	68fb      	ldr	r3, [r7, #12]
 800419a:	645a      	str	r2, [r3, #68]	; 0x44
        hi2c->State = HAL_I2C_STATE_READY;
 800419c:	68fb      	ldr	r3, [r7, #12]
 800419e:	2220      	movs	r2, #32
 80041a0:	f883 2041 	strb.w	r2, [r3, #65]	; 0x41
        hi2c->Mode = HAL_I2C_MODE_NONE;
 80041a4:	68fb      	ldr	r3, [r7, #12]
 80041a6:	2200      	movs	r2, #0
 80041a8:	f883 2042 	strb.w	r2, [r3, #66]	; 0x42

        /* Process Unlocked */
        __HAL_UNLOCK(hi2c);
 80041ac:	68fb      	ldr	r3, [r7, #12]
 80041ae:	2200      	movs	r2, #0
 80041b0:	f883 2040 	strb.w	r2, [r3, #64]	; 0x40

        return HAL_ERROR;
 80041b4:	2301      	movs	r3, #1
 80041b6:	e007      	b.n	80041c8 <I2C_WaitOnTXISFlagUntilTimeout+0x78>
  while (__HAL_I2C_GET_FLAG(hi2c, I2C_FLAG_TXIS) == RESET)
 80041b8:	68fb      	ldr	r3, [r7, #12]
 80041ba:	681b      	ldr	r3, [r3, #0]
 80041bc:	699b      	ldr	r3, [r3, #24]
 80041be:	f003 0302 	and.w	r3, r3, #2
 80041c2:	2b02      	cmp	r3, #2
 80041c4:	d1cb      	bne.n	800415e <I2C_WaitOnTXISFlagUntilTimeout+0xe>
      }
    }
  }
  return HAL_OK;
 80041c6:	2300      	movs	r3, #0
}
 80041c8:	4618      	mov	r0, r3
 80041ca:	3710      	adds	r7, #16
 80041cc:	46bd      	mov	sp, r7
 80041ce:	bd80      	pop	{r7, pc}

080041d0 <I2C_WaitOnSTOPFlagUntilTimeout>:
  * @param  Timeout Timeout duration
  * @param  Tickstart Tick start value
  * @retval HAL status
  */
static HAL_StatusTypeDef I2C_WaitOnSTOPFlagUntilTimeout(I2C_HandleTypeDef *hi2c, uint32_t Timeout, uint32_t Tickstart)
{
 80041d0:	b580      	push	{r7, lr}
 80041d2:	b084      	sub	sp, #16
 80041d4:	af00      	add	r7, sp, #0
 80041d6:	60f8      	str	r0, [r7, #12]
 80041d8:	60b9      	str	r1, [r7, #8]
 80041da:	607a      	str	r2, [r7, #4]
  while (__HAL_I2C_GET_FLAG(hi2c, I2C_FLAG_STOPF) == RESET)
 80041dc:	e028      	b.n	8004230 <I2C_WaitOnSTOPFlagUntilTimeout+0x60>
  {
    /* Check if a NACK is detected */
    if (I2C_IsAcknowledgeFailed(hi2c, Timeout, Tickstart) != HAL_OK)
 80041de:	687a      	ldr	r2, [r7, #4]
 80041e0:	68b9      	ldr	r1, [r7, #8]
 80041e2:	68f8      	ldr	r0, [r7, #12]
 80041e4:	f000 f830 	bl	8004248 <I2C_IsAcknowledgeFailed>
 80041e8:	4603      	mov	r3, r0
 80041ea:	2b00      	cmp	r3, #0
 80041ec:	d001      	beq.n	80041f2 <I2C_WaitOnSTOPFlagUntilTimeout+0x22>
    {
      return HAL_ERROR;
 80041ee:	2301      	movs	r3, #1
 80041f0:	e026      	b.n	8004240 <I2C_WaitOnSTOPFlagUntilTimeout+0x70>
    }

    /* Check for the Timeout */
    if (((HAL_GetTick() - Tickstart) > Timeout) || (Timeout == 0U))
 80041f2:	f7fe ff47 	bl	8003084 <HAL_GetTick>
 80041f6:	4602      	mov	r2, r0
 80041f8:	687b      	ldr	r3, [r7, #4]
 80041fa:	1ad3      	subs	r3, r2, r3
 80041fc:	68ba      	ldr	r2, [r7, #8]
 80041fe:	429a      	cmp	r2, r3
 8004200:	d302      	bcc.n	8004208 <I2C_WaitOnSTOPFlagUntilTimeout+0x38>
 8004202:	68bb      	ldr	r3, [r7, #8]
 8004204:	2b00      	cmp	r3, #0
 8004206:	d113      	bne.n	8004230 <I2C_WaitOnSTOPFlagUntilTimeout+0x60>
    {
      hi2c->ErrorCode |= HAL_I2C_ERROR_TIMEOUT;
 8004208:	68fb      	ldr	r3, [r7, #12]
 800420a:	6c5b      	ldr	r3, [r3, #68]	; 0x44
 800420c:	f043 0220 	orr.w	r2, r3, #32
 8004210:	68fb      	ldr	r3, [r7, #12]
 8004212:	645a      	str	r2, [r3, #68]	; 0x44
      hi2c->State = HAL_I2C_STATE_READY;
 8004214:	68fb      	ldr	r3, [r7, #12]
 8004216:	2220      	movs	r2, #32
 8004218:	f883 2041 	strb.w	r2, [r3, #65]	; 0x41
      hi2c->Mode = HAL_I2C_MODE_NONE;
 800421c:	68fb      	ldr	r3, [r7, #12]
 800421e:	2200      	movs	r2, #0
 8004220:	f883 2042 	strb.w	r2, [r3, #66]	; 0x42

      /* Process Unlocked */
      __HAL_UNLOCK(hi2c);
 8004224:	68fb      	ldr	r3, [r7, #12]
 8004226:	2200      	movs	r2, #0
 8004228:	f883 2040 	strb.w	r2, [r3, #64]	; 0x40

      return HAL_ERROR;
 800422c:	2301      	movs	r3, #1
 800422e:	e007      	b.n	8004240 <I2C_WaitOnSTOPFlagUntilTimeout+0x70>
  while (__HAL_I2C_GET_FLAG(hi2c, I2C_FLAG_STOPF) == RESET)
 8004230:	68fb      	ldr	r3, [r7, #12]
 8004232:	681b      	ldr	r3, [r3, #0]
 8004234:	699b      	ldr	r3, [r3, #24]
 8004236:	f003 0320 	and.w	r3, r3, #32
 800423a:	2b20      	cmp	r3, #32
 800423c:	d1cf      	bne.n	80041de <I2C_WaitOnSTOPFlagUntilTimeout+0xe>
    }
  }
  return HAL_OK;
 800423e:	2300      	movs	r3, #0
}
 8004240:	4618      	mov	r0, r3
 8004242:	3710      	adds	r7, #16
 8004244:	46bd      	mov	sp, r7
 8004246:	bd80      	pop	{r7, pc}

08004248 <I2C_IsAcknowledgeFailed>:
  * @param  Timeout Timeout duration
  * @param  Tickstart Tick start value
  * @retval HAL status
  */
static HAL_StatusTypeDef I2C_IsAcknowledgeFailed(I2C_HandleTypeDef *hi2c, uint32_t Timeout, uint32_t Tickstart)
{
 8004248:	b580      	push	{r7, lr}
 800424a:	b084      	sub	sp, #16
 800424c:	af00      	add	r7, sp, #0
 800424e:	60f8      	str	r0, [r7, #12]
 8004250:	60b9      	str	r1, [r7, #8]
 8004252:	607a      	str	r2, [r7, #4]
  if (__HAL_I2C_GET_FLAG(hi2c, I2C_FLAG_AF) == SET)
 8004254:	68fb      	ldr	r3, [r7, #12]
 8004256:	681b      	ldr	r3, [r3, #0]
 8004258:	699b      	ldr	r3, [r3, #24]
 800425a:	f003 0310 	and.w	r3, r3, #16
 800425e:	2b10      	cmp	r3, #16
 8004260:	d151      	bne.n	8004306 <I2C_IsAcknowledgeFailed+0xbe>
  {
    /* Wait until STOP Flag is reset */
    /* AutoEnd should be initiate after AF */
    while (__HAL_I2C_GET_FLAG(hi2c, I2C_FLAG_STOPF) == RESET)
 8004262:	e022      	b.n	80042aa <I2C_IsAcknowledgeFailed+0x62>
    {
      /* Check for the Timeout */
      if (Timeout != HAL_MAX_DELAY)
 8004264:	68bb      	ldr	r3, [r7, #8]
 8004266:	f1b3 3fff 	cmp.w	r3, #4294967295
 800426a:	d01e      	beq.n	80042aa <I2C_IsAcknowledgeFailed+0x62>
      {
        if (((HAL_GetTick() - Tickstart) > Timeout) || (Timeout == 0U))
 800426c:	f7fe ff0a 	bl	8003084 <HAL_GetTick>
 8004270:	4602      	mov	r2, r0
 8004272:	687b      	ldr	r3, [r7, #4]
 8004274:	1ad3      	subs	r3, r2, r3
 8004276:	68ba      	ldr	r2, [r7, #8]
 8004278:	429a      	cmp	r2, r3
 800427a:	d302      	bcc.n	8004282 <I2C_IsAcknowledgeFailed+0x3a>
 800427c:	68bb      	ldr	r3, [r7, #8]
 800427e:	2b00      	cmp	r3, #0
 8004280:	d113      	bne.n	80042aa <I2C_IsAcknowledgeFailed+0x62>
        {
          hi2c->ErrorCode |= HAL_I2C_ERROR_TIMEOUT;
 8004282:	68fb      	ldr	r3, [r7, #12]
 8004284:	6c5b      	ldr	r3, [r3, #68]	; 0x44
 8004286:	f043 0220 	orr.w	r2, r3, #32
 800428a:	68fb      	ldr	r3, [r7, #12]
 800428c:	645a      	str	r2, [r3, #68]	; 0x44
          hi2c->State = HAL_I2C_STATE_READY;
 800428e:	68fb      	ldr	r3, [r7, #12]
 8004290:	2220      	movs	r2, #32
 8004292:	f883 2041 	strb.w	r2, [r3, #65]	; 0x41
          hi2c->Mode = HAL_I2C_MODE_NONE;
 8004296:	68fb      	ldr	r3, [r7, #12]
 8004298:	2200      	movs	r2, #0
 800429a:	f883 2042 	strb.w	r2, [r3, #66]	; 0x42

          /* Process Unlocked */
          __HAL_UNLOCK(hi2c);
 800429e:	68fb      	ldr	r3, [r7, #12]
 80042a0:	2200      	movs	r2, #0
 80042a2:	f883 2040 	strb.w	r2, [r3, #64]	; 0x40

          return HAL_ERROR;
 80042a6:	2301      	movs	r3, #1
 80042a8:	e02e      	b.n	8004308 <I2C_IsAcknowledgeFailed+0xc0>
    while (__HAL_I2C_GET_FLAG(hi2c, I2C_FLAG_STOPF) == RESET)
 80042aa:	68fb      	ldr	r3, [r7, #12]
 80042ac:	681b      	ldr	r3, [r3, #0]
 80042ae:	699b      	ldr	r3, [r3, #24]
 80042b0:	f003 0320 	and.w	r3, r3, #32
 80042b4:	2b20      	cmp	r3, #32
 80042b6:	d1d5      	bne.n	8004264 <I2C_IsAcknowledgeFailed+0x1c>
        }
      }
    }

    /* Clear NACKF Flag */
    __HAL_I2C_CLEAR_FLAG(hi2c, I2C_FLAG_AF);
 80042b8:	68fb      	ldr	r3, [r7, #12]
 80042ba:	681b      	ldr	r3, [r3, #0]
 80042bc:	2210      	movs	r2, #16
 80042be:	61da      	str	r2, [r3, #28]

    /* Clear STOP Flag */
    __HAL_I2C_CLEAR_FLAG(hi2c, I2C_FLAG_STOPF);
 80042c0:	68fb      	ldr	r3, [r7, #12]
 80042c2:	681b      	ldr	r3, [r3, #0]
 80042c4:	2220      	movs	r2, #32
 80042c6:	61da      	str	r2, [r3, #28]

    /* Flush TX register */
    I2C_Flush_TXDR(hi2c);
 80042c8:	68f8      	ldr	r0, [r7, #12]
 80042ca:	f7ff fedd 	bl	8004088 <I2C_Flush_TXDR>

    /* Clear Configuration Register 2 */
    I2C_RESET_CR2(hi2c);
 80042ce:	68fb      	ldr	r3, [r7, #12]
 80042d0:	681b      	ldr	r3, [r3, #0]
 80042d2:	6859      	ldr	r1, [r3, #4]
 80042d4:	68fb      	ldr	r3, [r7, #12]
 80042d6:	681a      	ldr	r2, [r3, #0]
 80042d8:	4b0d      	ldr	r3, [pc, #52]	; (8004310 <I2C_IsAcknowledgeFailed+0xc8>)
 80042da:	400b      	ands	r3, r1
 80042dc:	6053      	str	r3, [r2, #4]

    hi2c->ErrorCode |= HAL_I2C_ERROR_AF;
 80042de:	68fb      	ldr	r3, [r7, #12]
 80042e0:	6c5b      	ldr	r3, [r3, #68]	; 0x44
 80042e2:	f043 0204 	orr.w	r2, r3, #4
 80042e6:	68fb      	ldr	r3, [r7, #12]
 80042e8:	645a      	str	r2, [r3, #68]	; 0x44
    hi2c->State = HAL_I2C_STATE_READY;
 80042ea:	68fb      	ldr	r3, [r7, #12]
 80042ec:	2220      	movs	r2, #32
 80042ee:	f883 2041 	strb.w	r2, [r3, #65]	; 0x41
    hi2c->Mode = HAL_I2C_MODE_NONE;
 80042f2:	68fb      	ldr	r3, [r7, #12]
 80042f4:	2200      	movs	r2, #0
 80042f6:	f883 2042 	strb.w	r2, [r3, #66]	; 0x42

    /* Process Unlocked */
    __HAL_UNLOCK(hi2c);
 80042fa:	68fb      	ldr	r3, [r7, #12]
 80042fc:	2200      	movs	r2, #0
 80042fe:	f883 2040 	strb.w	r2, [r3, #64]	; 0x40

    return HAL_ERROR;
 8004302:	2301      	movs	r3, #1
 8004304:	e000      	b.n	8004308 <I2C_IsAcknowledgeFailed+0xc0>
  }
  return HAL_OK;
 8004306:	2300      	movs	r3, #0
}
 8004308:	4618      	mov	r0, r3
 800430a:	3710      	adds	r7, #16
 800430c:	46bd      	mov	sp, r7
 800430e:	bd80      	pop	{r7, pc}
 8004310:	fe00e800 	.word	0xfe00e800

08004314 <I2C_TransferConfig>:
  *     @arg @ref I2C_GENERATE_START_WRITE Generate Restart for write request.
  * @retval None
  */
static void I2C_TransferConfig(I2C_HandleTypeDef *hi2c, uint16_t DevAddress, uint8_t Size, uint32_t Mode,
                               uint32_t Request)
{
 8004314:	b480      	push	{r7}
 8004316:	b085      	sub	sp, #20
 8004318:	af00      	add	r7, sp, #0
 800431a:	60f8      	str	r0, [r7, #12]
 800431c:	607b      	str	r3, [r7, #4]
 800431e:	460b      	mov	r3, r1
 8004320:	817b      	strh	r3, [r7, #10]
 8004322:	4613      	mov	r3, r2
 8004324:	727b      	strb	r3, [r7, #9]
  assert_param(IS_I2C_ALL_INSTANCE(hi2c->Instance));
  assert_param(IS_TRANSFER_MODE(Mode));
  assert_param(IS_TRANSFER_REQUEST(Request));

  /* update CR2 register */
  MODIFY_REG(hi2c->Instance->CR2,
 8004326:	68fb      	ldr	r3, [r7, #12]
 8004328:	681b      	ldr	r3, [r3, #0]
 800432a:	685a      	ldr	r2, [r3, #4]
 800432c:	69bb      	ldr	r3, [r7, #24]
 800432e:	0d5b      	lsrs	r3, r3, #21
 8004330:	f403 6180 	and.w	r1, r3, #1024	; 0x400
 8004334:	4b0d      	ldr	r3, [pc, #52]	; (800436c <I2C_TransferConfig+0x58>)
 8004336:	430b      	orrs	r3, r1
 8004338:	43db      	mvns	r3, r3
 800433a:	ea02 0103 	and.w	r1, r2, r3
 800433e:	897b      	ldrh	r3, [r7, #10]
 8004340:	f3c3 0209 	ubfx	r2, r3, #0, #10
 8004344:	7a7b      	ldrb	r3, [r7, #9]
 8004346:	041b      	lsls	r3, r3, #16
 8004348:	f403 037f 	and.w	r3, r3, #16711680	; 0xff0000
 800434c:	431a      	orrs	r2, r3
 800434e:	687b      	ldr	r3, [r7, #4]
 8004350:	431a      	orrs	r2, r3
 8004352:	69bb      	ldr	r3, [r7, #24]
 8004354:	431a      	orrs	r2, r3
 8004356:	68fb      	ldr	r3, [r7, #12]
 8004358:	681b      	ldr	r3, [r3, #0]
 800435a:	430a      	orrs	r2, r1
 800435c:	605a      	str	r2, [r3, #4]
             ((I2C_CR2_SADD | I2C_CR2_NBYTES | I2C_CR2_RELOAD | I2C_CR2_AUTOEND | \
               (I2C_CR2_RD_WRN & (uint32_t)(Request >> (31U - I2C_CR2_RD_WRN_Pos))) | I2C_CR2_START | I2C_CR2_STOP)), \
             (uint32_t)(((uint32_t)DevAddress & I2C_CR2_SADD) |
                        (((uint32_t)Size << I2C_CR2_NBYTES_Pos) & I2C_CR2_NBYTES) | (uint32_t)Mode | (uint32_t)Request));
}
 800435e:	bf00      	nop
 8004360:	3714      	adds	r7, #20
 8004362:	46bd      	mov	sp, r7
 8004364:	f85d 7b04 	ldr.w	r7, [sp], #4
 8004368:	4770      	bx	lr
 800436a:	bf00      	nop
 800436c:	03ff63ff 	.word	0x03ff63ff

08004370 <HAL_I2CEx_ConfigAnalogFilter>:
  *                the configuration information for the specified I2Cx peripheral.
  * @param  AnalogFilter New state of the Analog filter.
  * @retval HAL status
  */
HAL_StatusTypeDef HAL_I2CEx_ConfigAnalogFilter(I2C_HandleTypeDef *hi2c, uint32_t AnalogFilter)
{
 8004370:	b480      	push	{r7}
 8004372:	b083      	sub	sp, #12
 8004374:	af00      	add	r7, sp, #0
 8004376:	6078      	str	r0, [r7, #4]
 8004378:	6039      	str	r1, [r7, #0]
  /* Check the parameters */
  assert_param(IS_I2C_ALL_INSTANCE(hi2c->Instance));
  assert_param(IS_I2C_ANALOG_FILTER(AnalogFilter));

  if (hi2c->State == HAL_I2C_STATE_READY)
 800437a:	687b      	ldr	r3, [r7, #4]
 800437c:	f893 3041 	ldrb.w	r3, [r3, #65]	; 0x41
 8004380:	b2db      	uxtb	r3, r3
 8004382:	2b20      	cmp	r3, #32
 8004384:	d138      	bne.n	80043f8 <HAL_I2CEx_ConfigAnalogFilter+0x88>
  {
    /* Process Locked */
    __HAL_LOCK(hi2c);
 8004386:	687b      	ldr	r3, [r7, #4]
 8004388:	f893 3040 	ldrb.w	r3, [r3, #64]	; 0x40
 800438c:	2b01      	cmp	r3, #1
 800438e:	d101      	bne.n	8004394 <HAL_I2CEx_ConfigAnalogFilter+0x24>
 8004390:	2302      	movs	r3, #2
 8004392:	e032      	b.n	80043fa <HAL_I2CEx_ConfigAnalogFilter+0x8a>
 8004394:	687b      	ldr	r3, [r7, #4]
 8004396:	2201      	movs	r2, #1
 8004398:	f883 2040 	strb.w	r2, [r3, #64]	; 0x40

    hi2c->State = HAL_I2C_STATE_BUSY;
 800439c:	687b      	ldr	r3, [r7, #4]
 800439e:	2224      	movs	r2, #36	; 0x24
 80043a0:	f883 2041 	strb.w	r2, [r3, #65]	; 0x41

    /* Disable the selected I2C peripheral */
    __HAL_I2C_DISABLE(hi2c);
 80043a4:	687b      	ldr	r3, [r7, #4]
 80043a6:	681b      	ldr	r3, [r3, #0]
 80043a8:	681a      	ldr	r2, [r3, #0]
 80043aa:	687b      	ldr	r3, [r7, #4]
 80043ac:	681b      	ldr	r3, [r3, #0]
 80043ae:	f022 0201 	bic.w	r2, r2, #1
 80043b2:	601a      	str	r2, [r3, #0]

    /* Reset I2Cx ANOFF bit */
    hi2c->Instance->CR1 &= ~(I2C_CR1_ANFOFF);
 80043b4:	687b      	ldr	r3, [r7, #4]
 80043b6:	681b      	ldr	r3, [r3, #0]
 80043b8:	681a      	ldr	r2, [r3, #0]
 80043ba:	687b      	ldr	r3, [r7, #4]
 80043bc:	681b      	ldr	r3, [r3, #0]
 80043be:	f422 5280 	bic.w	r2, r2, #4096	; 0x1000
 80043c2:	601a      	str	r2, [r3, #0]

    /* Set analog filter bit*/
    hi2c->Instance->CR1 |= AnalogFilter;
 80043c4:	687b      	ldr	r3, [r7, #4]
 80043c6:	681b      	ldr	r3, [r3, #0]
 80043c8:	6819      	ldr	r1, [r3, #0]
 80043ca:	687b      	ldr	r3, [r7, #4]
 80043cc:	681b      	ldr	r3, [r3, #0]
 80043ce:	683a      	ldr	r2, [r7, #0]
 80043d0:	430a      	orrs	r2, r1
 80043d2:	601a      	str	r2, [r3, #0]

    __HAL_I2C_ENABLE(hi2c);
 80043d4:	687b      	ldr	r3, [r7, #4]
 80043d6:	681b      	ldr	r3, [r3, #0]
 80043d8:	681a      	ldr	r2, [r3, #0]
 80043da:	687b      	ldr	r3, [r7, #4]
 80043dc:	681b      	ldr	r3, [r3, #0]
 80043de:	f042 0201 	orr.w	r2, r2, #1
 80043e2:	601a      	str	r2, [r3, #0]

    hi2c->State = HAL_I2C_STATE_READY;
 80043e4:	687b      	ldr	r3, [r7, #4]
 80043e6:	2220      	movs	r2, #32
 80043e8:	f883 2041 	strb.w	r2, [r3, #65]	; 0x41

    /* Process Unlocked */
    __HAL_UNLOCK(hi2c);
 80043ec:	687b      	ldr	r3, [r7, #4]
 80043ee:	2200      	movs	r2, #0
 80043f0:	f883 2040 	strb.w	r2, [r3, #64]	; 0x40

    return HAL_OK;
 80043f4:	2300      	movs	r3, #0
 80043f6:	e000      	b.n	80043fa <HAL_I2CEx_ConfigAnalogFilter+0x8a>
  }
  else
  {
    return HAL_BUSY;
 80043f8:	2302      	movs	r3, #2
  }
}
 80043fa:	4618      	mov	r0, r3
 80043fc:	370c      	adds	r7, #12
 80043fe:	46bd      	mov	sp, r7
 8004400:	f85d 7b04 	ldr.w	r7, [sp], #4
 8004404:	4770      	bx	lr

08004406 <HAL_I2CEx_ConfigDigitalFilter>:
  *                the configuration information for the specified I2Cx peripheral.
  * @param  DigitalFilter Coefficient of digital noise filter between Min_Data=0x00 and Max_Data=0x0F.
  * @retval HAL status
  */
HAL_StatusTypeDef HAL_I2CEx_ConfigDigitalFilter(I2C_HandleTypeDef *hi2c, uint32_t DigitalFilter)
{
 8004406:	b480      	push	{r7}
 8004408:	b085      	sub	sp, #20
 800440a:	af00      	add	r7, sp, #0
 800440c:	6078      	str	r0, [r7, #4]
 800440e:	6039      	str	r1, [r7, #0]

  /* Check the parameters */
  assert_param(IS_I2C_ALL_INSTANCE(hi2c->Instance));
  assert_param(IS_I2C_DIGITAL_FILTER(DigitalFilter));

  if (hi2c->State == HAL_I2C_STATE_READY)
 8004410:	687b      	ldr	r3, [r7, #4]
 8004412:	f893 3041 	ldrb.w	r3, [r3, #65]	; 0x41
 8004416:	b2db      	uxtb	r3, r3
 8004418:	2b20      	cmp	r3, #32
 800441a:	d139      	bne.n	8004490 <HAL_I2CEx_ConfigDigitalFilter+0x8a>
  {
    /* Process Locked */
    __HAL_LOCK(hi2c);
 800441c:	687b      	ldr	r3, [r7, #4]
 800441e:	f893 3040 	ldrb.w	r3, [r3, #64]	; 0x40
 8004422:	2b01      	cmp	r3, #1
 8004424:	d101      	bne.n	800442a <HAL_I2CEx_ConfigDigitalFilter+0x24>
 8004426:	2302      	movs	r3, #2
 8004428:	e033      	b.n	8004492 <HAL_I2CEx_ConfigDigitalFilter+0x8c>
 800442a:	687b      	ldr	r3, [r7, #4]
 800442c:	2201      	movs	r2, #1
 800442e:	f883 2040 	strb.w	r2, [r3, #64]	; 0x40

    hi2c->State = HAL_I2C_STATE_BUSY;
 8004432:	687b      	ldr	r3, [r7, #4]
 8004434:	2224      	movs	r2, #36	; 0x24
 8004436:	f883 2041 	strb.w	r2, [r3, #65]	; 0x41

    /* Disable the selected I2C peripheral */
    __HAL_I2C_DISABLE(hi2c);
 800443a:	687b      	ldr	r3, [r7, #4]
 800443c:	681b      	ldr	r3, [r3, #0]
 800443e:	681a      	ldr	r2, [r3, #0]
 8004440:	687b      	ldr	r3, [r7, #4]
 8004442:	681b      	ldr	r3, [r3, #0]
 8004444:	f022 0201 	bic.w	r2, r2, #1
 8004448:	601a      	str	r2, [r3, #0]

    /* Get the old register value */
    tmpreg = hi2c->Instance->CR1;
 800444a:	687b      	ldr	r3, [r7, #4]
 800444c:	681b      	ldr	r3, [r3, #0]
 800444e:	681b      	ldr	r3, [r3, #0]
 8004450:	60fb      	str	r3, [r7, #12]

    /* Reset I2Cx DNF bits [11:8] */
    tmpreg &= ~(I2C_CR1_DNF);
 8004452:	68fb      	ldr	r3, [r7, #12]
 8004454:	f423 6370 	bic.w	r3, r3, #3840	; 0xf00
 8004458:	60fb      	str	r3, [r7, #12]

    /* Set I2Cx DNF coefficient */
    tmpreg |= DigitalFilter << 8U;
 800445a:	683b      	ldr	r3, [r7, #0]
 800445c:	021b      	lsls	r3, r3, #8
 800445e:	68fa      	ldr	r2, [r7, #12]
 8004460:	4313      	orrs	r3, r2
 8004462:	60fb      	str	r3, [r7, #12]

    /* Store the new register value */
    hi2c->Instance->CR1 = tmpreg;
 8004464:	687b      	ldr	r3, [r7, #4]
 8004466:	681b      	ldr	r3, [r3, #0]
 8004468:	68fa      	ldr	r2, [r7, #12]
 800446a:	601a      	str	r2, [r3, #0]

    __HAL_I2C_ENABLE(hi2c);
 800446c:	687b      	ldr	r3, [r7, #4]
 800446e:	681b      	ldr	r3, [r3, #0]
 8004470:	681a      	ldr	r2, [r3, #0]
 8004472:	687b      	ldr	r3, [r7, #4]
 8004474:	681b      	ldr	r3, [r3, #0]
 8004476:	f042 0201 	orr.w	r2, r2, #1
 800447a:	601a      	str	r2, [r3, #0]

    hi2c->State = HAL_I2C_STATE_READY;
 800447c:	687b      	ldr	r3, [r7, #4]
 800447e:	2220      	movs	r2, #32
 8004480:	f883 2041 	strb.w	r2, [r3, #65]	; 0x41

    /* Process Unlocked */
    __HAL_UNLOCK(hi2c);
 8004484:	687b      	ldr	r3, [r7, #4]
 8004486:	2200      	movs	r2, #0
 8004488:	f883 2040 	strb.w	r2, [r3, #64]	; 0x40

    return HAL_OK;
 800448c:	2300      	movs	r3, #0
 800448e:	e000      	b.n	8004492 <HAL_I2CEx_ConfigDigitalFilter+0x8c>
  }
  else
  {
    return HAL_BUSY;
 8004490:	2302      	movs	r3, #2
  }
}
 8004492:	4618      	mov	r0, r3
 8004494:	3714      	adds	r7, #20
 8004496:	46bd      	mov	sp, r7
 8004498:	f85d 7b04 	ldr.w	r7, [sp], #4
 800449c:	4770      	bx	lr
	...

080044a0 <HAL_PWREx_GetVoltageRange>:
  * @brief Return Voltage Scaling Range.
  * @retval VOS bit field (PWR_REGULATOR_VOLTAGE_SCALE1 or PWR_REGULATOR_VOLTAGE_SCALE2
  *         or PWR_REGULATOR_VOLTAGE_SCALE1_BOOST when applicable)
  */
uint32_t HAL_PWREx_GetVoltageRange(void)
{
 80044a0:	b480      	push	{r7}
 80044a2:	af00      	add	r7, sp, #0
    else
    {
      return PWR_REGULATOR_VOLTAGE_SCALE1_BOOST;
    }
#else
  return  (PWR->CR1 & PWR_CR1_VOS);
 80044a4:	4b04      	ldr	r3, [pc, #16]	; (80044b8 <HAL_PWREx_GetVoltageRange+0x18>)
 80044a6:	681b      	ldr	r3, [r3, #0]
 80044a8:	f403 63c0 	and.w	r3, r3, #1536	; 0x600
#endif
}
 80044ac:	4618      	mov	r0, r3
 80044ae:	46bd      	mov	sp, r7
 80044b0:	f85d 7b04 	ldr.w	r7, [sp], #4
 80044b4:	4770      	bx	lr
 80044b6:	bf00      	nop
 80044b8:	40007000 	.word	0x40007000

080044bc <HAL_PWREx_ControlVoltageScaling>:
  *        cleared before returning the status. If the flag is not cleared within
  *        50 microseconds, HAL_TIMEOUT status is reported.
  * @retval HAL Status
  */
HAL_StatusTypeDef HAL_PWREx_ControlVoltageScaling(uint32_t VoltageScaling)
{
 80044bc:	b480      	push	{r7}
 80044be:	b085      	sub	sp, #20
 80044c0:	af00      	add	r7, sp, #0
 80044c2:	6078      	str	r0, [r7, #4]
  }

#else

  /* If Set Range 1 */
  if (VoltageScaling == PWR_REGULATOR_VOLTAGE_SCALE1)
 80044c4:	687b      	ldr	r3, [r7, #4]
 80044c6:	f5b3 7f00 	cmp.w	r3, #512	; 0x200
 80044ca:	d130      	bne.n	800452e <HAL_PWREx_ControlVoltageScaling+0x72>
  {
    if (READ_BIT(PWR->CR1, PWR_CR1_VOS) != PWR_REGULATOR_VOLTAGE_SCALE1)
 80044cc:	4b23      	ldr	r3, [pc, #140]	; (800455c <HAL_PWREx_ControlVoltageScaling+0xa0>)
 80044ce:	681b      	ldr	r3, [r3, #0]
 80044d0:	f403 63c0 	and.w	r3, r3, #1536	; 0x600
 80044d4:	f5b3 7f00 	cmp.w	r3, #512	; 0x200
 80044d8:	d038      	beq.n	800454c <HAL_PWREx_ControlVoltageScaling+0x90>
    {
      /* Set Range 1 */
      MODIFY_REG(PWR->CR1, PWR_CR1_VOS, PWR_REGULATOR_VOLTAGE_SCALE1);
 80044da:	4b20      	ldr	r3, [pc, #128]	; (800455c <HAL_PWREx_ControlVoltageScaling+0xa0>)
 80044dc:	681b      	ldr	r3, [r3, #0]
 80044de:	f423 63c0 	bic.w	r3, r3, #1536	; 0x600
 80044e2:	4a1e      	ldr	r2, [pc, #120]	; (800455c <HAL_PWREx_ControlVoltageScaling+0xa0>)
 80044e4:	f443 7300 	orr.w	r3, r3, #512	; 0x200
 80044e8:	6013      	str	r3, [r2, #0]

      /* Wait until VOSF is cleared */
      wait_loop_index = ((PWR_FLAG_SETTING_DELAY_US * SystemCoreClock) / 1000000U) + 1U;
 80044ea:	4b1d      	ldr	r3, [pc, #116]	; (8004560 <HAL_PWREx_ControlVoltageScaling+0xa4>)
 80044ec:	681b      	ldr	r3, [r3, #0]
 80044ee:	2232      	movs	r2, #50	; 0x32
 80044f0:	fb02 f303 	mul.w	r3, r2, r3
 80044f4:	4a1b      	ldr	r2, [pc, #108]	; (8004564 <HAL_PWREx_ControlVoltageScaling+0xa8>)
 80044f6:	fba2 2303 	umull	r2, r3, r2, r3
 80044fa:	0c9b      	lsrs	r3, r3, #18
 80044fc:	3301      	adds	r3, #1
 80044fe:	60fb      	str	r3, [r7, #12]
      while ((HAL_IS_BIT_SET(PWR->SR2, PWR_SR2_VOSF)) && (wait_loop_index != 0U))
 8004500:	e002      	b.n	8004508 <HAL_PWREx_ControlVoltageScaling+0x4c>
      {
        wait_loop_index--;
 8004502:	68fb      	ldr	r3, [r7, #12]
 8004504:	3b01      	subs	r3, #1
 8004506:	60fb      	str	r3, [r7, #12]
      while ((HAL_IS_BIT_SET(PWR->SR2, PWR_SR2_VOSF)) && (wait_loop_index != 0U))
 8004508:	4b14      	ldr	r3, [pc, #80]	; (800455c <HAL_PWREx_ControlVoltageScaling+0xa0>)
 800450a:	695b      	ldr	r3, [r3, #20]
 800450c:	f403 6380 	and.w	r3, r3, #1024	; 0x400
 8004510:	f5b3 6f80 	cmp.w	r3, #1024	; 0x400
 8004514:	d102      	bne.n	800451c <HAL_PWREx_ControlVoltageScaling+0x60>
 8004516:	68fb      	ldr	r3, [r7, #12]
 8004518:	2b00      	cmp	r3, #0
 800451a:	d1f2      	bne.n	8004502 <HAL_PWREx_ControlVoltageScaling+0x46>
      }
      if (HAL_IS_BIT_SET(PWR->SR2, PWR_SR2_VOSF))
 800451c:	4b0f      	ldr	r3, [pc, #60]	; (800455c <HAL_PWREx_ControlVoltageScaling+0xa0>)
 800451e:	695b      	ldr	r3, [r3, #20]
 8004520:	f403 6380 	and.w	r3, r3, #1024	; 0x400
 8004524:	f5b3 6f80 	cmp.w	r3, #1024	; 0x400
 8004528:	d110      	bne.n	800454c <HAL_PWREx_ControlVoltageScaling+0x90>
      {
        return HAL_TIMEOUT;
 800452a:	2303      	movs	r3, #3
 800452c:	e00f      	b.n	800454e <HAL_PWREx_ControlVoltageScaling+0x92>
      }
    }
  }
  else
  {
    if (READ_BIT(PWR->CR1, PWR_CR1_VOS) != PWR_REGULATOR_VOLTAGE_SCALE2)
 800452e:	4b0b      	ldr	r3, [pc, #44]	; (800455c <HAL_PWREx_ControlVoltageScaling+0xa0>)
 8004530:	681b      	ldr	r3, [r3, #0]
 8004532:	f403 63c0 	and.w	r3, r3, #1536	; 0x600
 8004536:	f5b3 6f80 	cmp.w	r3, #1024	; 0x400
 800453a:	d007      	beq.n	800454c <HAL_PWREx_ControlVoltageScaling+0x90>
    {
      /* Set Range 2 */
      MODIFY_REG(PWR->CR1, PWR_CR1_VOS, PWR_REGULATOR_VOLTAGE_SCALE2);
 800453c:	4b07      	ldr	r3, [pc, #28]	; (800455c <HAL_PWREx_ControlVoltageScaling+0xa0>)
 800453e:	681b      	ldr	r3, [r3, #0]
 8004540:	f423 63c0 	bic.w	r3, r3, #1536	; 0x600
 8004544:	4a05      	ldr	r2, [pc, #20]	; (800455c <HAL_PWREx_ControlVoltageScaling+0xa0>)
 8004546:	f443 6380 	orr.w	r3, r3, #1024	; 0x400
 800454a:	6013      	str	r3, [r2, #0]
      /* No need to wait for VOSF to be cleared for this transition */
    }
  }
#endif

  return HAL_OK;
 800454c:	2300      	movs	r3, #0
}
 800454e:	4618      	mov	r0, r3
 8004550:	3714      	adds	r7, #20
 8004552:	46bd      	mov	sp, r7
 8004554:	f85d 7b04 	ldr.w	r7, [sp], #4
 8004558:	4770      	bx	lr
 800455a:	bf00      	nop
 800455c:	40007000 	.word	0x40007000
 8004560:	200002b4 	.word	0x200002b4
 8004564:	431bde83 	.word	0x431bde83

08004568 <HAL_RCC_OscConfig>:
  *         supported by this macro. User should request a transition to HSE Off
  *         first and then HSE On or HSE Bypass.
  * @retval HAL status
  */
HAL_StatusTypeDef HAL_RCC_OscConfig(RCC_OscInitTypeDef  *RCC_OscInitStruct)
{
 8004568:	b580      	push	{r7, lr}
 800456a:	b088      	sub	sp, #32
 800456c:	af00      	add	r7, sp, #0
 800456e:	6078      	str	r0, [r7, #4]
  uint32_t tickstart;
  HAL_StatusTypeDef status;
  uint32_t sysclk_source, pll_config;

  /* Check Null pointer */
  if(RCC_OscInitStruct == NULL)
 8004570:	687b      	ldr	r3, [r7, #4]
 8004572:	2b00      	cmp	r3, #0
 8004574:	d101      	bne.n	800457a <HAL_RCC_OscConfig+0x12>
  {
    return HAL_ERROR;
 8004576:	2301      	movs	r3, #1
 8004578:	e3d4      	b.n	8004d24 <HAL_RCC_OscConfig+0x7bc>
  }

  /* Check the parameters */
  assert_param(IS_RCC_OSCILLATORTYPE(RCC_OscInitStruct->OscillatorType));

  sysclk_source = __HAL_RCC_GET_SYSCLK_SOURCE();
 800457a:	4ba1      	ldr	r3, [pc, #644]	; (8004800 <HAL_RCC_OscConfig+0x298>)
 800457c:	689b      	ldr	r3, [r3, #8]
 800457e:	f003 030c 	and.w	r3, r3, #12
 8004582:	61bb      	str	r3, [r7, #24]
  pll_config = __HAL_RCC_GET_PLL_OSCSOURCE();
 8004584:	4b9e      	ldr	r3, [pc, #632]	; (8004800 <HAL_RCC_OscConfig+0x298>)
 8004586:	68db      	ldr	r3, [r3, #12]
 8004588:	f003 0303 	and.w	r3, r3, #3
 800458c:	617b      	str	r3, [r7, #20]

  /*----------------------------- MSI Configuration --------------------------*/
  if(((RCC_OscInitStruct->OscillatorType) & RCC_OSCILLATORTYPE_MSI) == RCC_OSCILLATORTYPE_MSI)
 800458e:	687b      	ldr	r3, [r7, #4]
 8004590:	681b      	ldr	r3, [r3, #0]
 8004592:	f003 0310 	and.w	r3, r3, #16
 8004596:	2b00      	cmp	r3, #0
 8004598:	f000 80e4 	beq.w	8004764 <HAL_RCC_OscConfig+0x1fc>
    assert_param(IS_RCC_MSI(RCC_OscInitStruct->MSIState));
    assert_param(IS_RCC_MSICALIBRATION_VALUE(RCC_OscInitStruct->MSICalibrationValue));
    assert_param(IS_RCC_MSI_CLOCK_RANGE(RCC_OscInitStruct->MSIClockRange));

    /* Check if MSI is used as system clock or as PLL source when PLL is selected as system clock */
    if((sysclk_source == RCC_CFGR_SWS_MSI) ||
 800459c:	69bb      	ldr	r3, [r7, #24]
 800459e:	2b00      	cmp	r3, #0
 80045a0:	d007      	beq.n	80045b2 <HAL_RCC_OscConfig+0x4a>
 80045a2:	69bb      	ldr	r3, [r7, #24]
 80045a4:	2b0c      	cmp	r3, #12
 80045a6:	f040 808b 	bne.w	80046c0 <HAL_RCC_OscConfig+0x158>
       ((sysclk_source == RCC_CFGR_SWS_PLL) && (pll_config == RCC_PLLSOURCE_MSI)))
 80045aa:	697b      	ldr	r3, [r7, #20]
 80045ac:	2b01      	cmp	r3, #1
 80045ae:	f040 8087 	bne.w	80046c0 <HAL_RCC_OscConfig+0x158>
    {
      if((READ_BIT(RCC->CR, RCC_CR_MSIRDY) != 0U) && (RCC_OscInitStruct->MSIState == RCC_MSI_OFF))
 80045b2:	4b93      	ldr	r3, [pc, #588]	; (8004800 <HAL_RCC_OscConfig+0x298>)
 80045b4:	681b      	ldr	r3, [r3, #0]
 80045b6:	f003 0302 	and.w	r3, r3, #2
 80045ba:	2b00      	cmp	r3, #0
 80045bc:	d005      	beq.n	80045ca <HAL_RCC_OscConfig+0x62>
 80045be:	687b      	ldr	r3, [r7, #4]
 80045c0:	699b      	ldr	r3, [r3, #24]
 80045c2:	2b00      	cmp	r3, #0
 80045c4:	d101      	bne.n	80045ca <HAL_RCC_OscConfig+0x62>
      {
        return HAL_ERROR;
 80045c6:	2301      	movs	r3, #1
 80045c8:	e3ac      	b.n	8004d24 <HAL_RCC_OscConfig+0x7bc>
      else
      {
        /* To correctly read data from FLASH memory, the number of wait states (LATENCY)
           must be correctly programmed according to the frequency of the CPU clock
           (HCLK) and the supply voltage of the device. */
        if(RCC_OscInitStruct->MSIClockRange > __HAL_RCC_GET_MSI_RANGE())
 80045ca:	687b      	ldr	r3, [r7, #4]
 80045cc:	6a1a      	ldr	r2, [r3, #32]
 80045ce:	4b8c      	ldr	r3, [pc, #560]	; (8004800 <HAL_RCC_OscConfig+0x298>)
 80045d0:	681b      	ldr	r3, [r3, #0]
 80045d2:	f003 0308 	and.w	r3, r3, #8
 80045d6:	2b00      	cmp	r3, #0
 80045d8:	d004      	beq.n	80045e4 <HAL_RCC_OscConfig+0x7c>
 80045da:	4b89      	ldr	r3, [pc, #548]	; (8004800 <HAL_RCC_OscConfig+0x298>)
 80045dc:	681b      	ldr	r3, [r3, #0]
 80045de:	f003 03f0 	and.w	r3, r3, #240	; 0xf0
 80045e2:	e005      	b.n	80045f0 <HAL_RCC_OscConfig+0x88>
 80045e4:	4b86      	ldr	r3, [pc, #536]	; (8004800 <HAL_RCC_OscConfig+0x298>)
 80045e6:	f8d3 3094 	ldr.w	r3, [r3, #148]	; 0x94
 80045ea:	091b      	lsrs	r3, r3, #4
 80045ec:	f003 03f0 	and.w	r3, r3, #240	; 0xf0
 80045f0:	4293      	cmp	r3, r2
 80045f2:	d223      	bcs.n	800463c <HAL_RCC_OscConfig+0xd4>
        {
          /* First increase number of wait states update if necessary */
          if(RCC_SetFlashLatencyFromMSIRange(RCC_OscInitStruct->MSIClockRange) != HAL_OK)
 80045f4:	687b      	ldr	r3, [r7, #4]
 80045f6:	6a1b      	ldr	r3, [r3, #32]
 80045f8:	4618      	mov	r0, r3
 80045fa:	f000 fd07 	bl	800500c <RCC_SetFlashLatencyFromMSIRange>
 80045fe:	4603      	mov	r3, r0
 8004600:	2b00      	cmp	r3, #0
 8004602:	d001      	beq.n	8004608 <HAL_RCC_OscConfig+0xa0>
          {
            return HAL_ERROR;
 8004604:	2301      	movs	r3, #1
 8004606:	e38d      	b.n	8004d24 <HAL_RCC_OscConfig+0x7bc>
          }

          /* Selects the Multiple Speed oscillator (MSI) clock range .*/
          __HAL_RCC_MSI_RANGE_CONFIG(RCC_OscInitStruct->MSIClockRange);
 8004608:	4b7d      	ldr	r3, [pc, #500]	; (8004800 <HAL_RCC_OscConfig+0x298>)
 800460a:	681b      	ldr	r3, [r3, #0]
 800460c:	4a7c      	ldr	r2, [pc, #496]	; (8004800 <HAL_RCC_OscConfig+0x298>)
 800460e:	f043 0308 	orr.w	r3, r3, #8
 8004612:	6013      	str	r3, [r2, #0]
 8004614:	4b7a      	ldr	r3, [pc, #488]	; (8004800 <HAL_RCC_OscConfig+0x298>)
 8004616:	681b      	ldr	r3, [r3, #0]
 8004618:	f023 02f0 	bic.w	r2, r3, #240	; 0xf0
 800461c:	687b      	ldr	r3, [r7, #4]
 800461e:	6a1b      	ldr	r3, [r3, #32]
 8004620:	4977      	ldr	r1, [pc, #476]	; (8004800 <HAL_RCC_OscConfig+0x298>)
 8004622:	4313      	orrs	r3, r2
 8004624:	600b      	str	r3, [r1, #0]
          /* Adjusts the Multiple Speed oscillator (MSI) calibration value.*/
          __HAL_RCC_MSI_CALIBRATIONVALUE_ADJUST(RCC_OscInitStruct->MSICalibrationValue);
 8004626:	4b76      	ldr	r3, [pc, #472]	; (8004800 <HAL_RCC_OscConfig+0x298>)
 8004628:	685b      	ldr	r3, [r3, #4]
 800462a:	f423 427f 	bic.w	r2, r3, #65280	; 0xff00
 800462e:	687b      	ldr	r3, [r7, #4]
 8004630:	69db      	ldr	r3, [r3, #28]
 8004632:	021b      	lsls	r3, r3, #8
 8004634:	4972      	ldr	r1, [pc, #456]	; (8004800 <HAL_RCC_OscConfig+0x298>)
 8004636:	4313      	orrs	r3, r2
 8004638:	604b      	str	r3, [r1, #4]
 800463a:	e025      	b.n	8004688 <HAL_RCC_OscConfig+0x120>
        }
        else
        {
          /* Else, keep current flash latency while decreasing applies */
          /* Selects the Multiple Speed oscillator (MSI) clock range .*/
          __HAL_RCC_MSI_RANGE_CONFIG(RCC_OscInitStruct->MSIClockRange);
 800463c:	4b70      	ldr	r3, [pc, #448]	; (8004800 <HAL_RCC_OscConfig+0x298>)
 800463e:	681b      	ldr	r3, [r3, #0]
 8004640:	4a6f      	ldr	r2, [pc, #444]	; (8004800 <HAL_RCC_OscConfig+0x298>)
 8004642:	f043 0308 	orr.w	r3, r3, #8
 8004646:	6013      	str	r3, [r2, #0]
 8004648:	4b6d      	ldr	r3, [pc, #436]	; (8004800 <HAL_RCC_OscConfig+0x298>)
 800464a:	681b      	ldr	r3, [r3, #0]
 800464c:	f023 02f0 	bic.w	r2, r3, #240	; 0xf0
 8004650:	687b      	ldr	r3, [r7, #4]
 8004652:	6a1b      	ldr	r3, [r3, #32]
 8004654:	496a      	ldr	r1, [pc, #424]	; (8004800 <HAL_RCC_OscConfig+0x298>)
 8004656:	4313      	orrs	r3, r2
 8004658:	600b      	str	r3, [r1, #0]
          /* Adjusts the Multiple Speed oscillator (MSI) calibration value.*/
          __HAL_RCC_MSI_CALIBRATIONVALUE_ADJUST(RCC_OscInitStruct->MSICalibrationValue);
 800465a:	4b69      	ldr	r3, [pc, #420]	; (8004800 <HAL_RCC_OscConfig+0x298>)
 800465c:	685b      	ldr	r3, [r3, #4]
 800465e:	f423 427f 	bic.w	r2, r3, #65280	; 0xff00
 8004662:	687b      	ldr	r3, [r7, #4]
 8004664:	69db      	ldr	r3, [r3, #28]
 8004666:	021b      	lsls	r3, r3, #8
 8004668:	4965      	ldr	r1, [pc, #404]	; (8004800 <HAL_RCC_OscConfig+0x298>)
 800466a:	4313      	orrs	r3, r2
 800466c:	604b      	str	r3, [r1, #4]

          /* Decrease number of wait states update if necessary */
          /* Only possible when MSI is the System clock source  */
          if(sysclk_source == RCC_CFGR_SWS_MSI)
 800466e:	69bb      	ldr	r3, [r7, #24]
 8004670:	2b00      	cmp	r3, #0
 8004672:	d109      	bne.n	8004688 <HAL_RCC_OscConfig+0x120>
          {
            if(RCC_SetFlashLatencyFromMSIRange(RCC_OscInitStruct->MSIClockRange) != HAL_OK)
 8004674:	687b      	ldr	r3, [r7, #4]
 8004676:	6a1b      	ldr	r3, [r3, #32]
 8004678:	4618      	mov	r0, r3
 800467a:	f000 fcc7 	bl	800500c <RCC_SetFlashLatencyFromMSIRange>
 800467e:	4603      	mov	r3, r0
 8004680:	2b00      	cmp	r3, #0
 8004682:	d001      	beq.n	8004688 <HAL_RCC_OscConfig+0x120>
            {
              return HAL_ERROR;
 8004684:	2301      	movs	r3, #1
 8004686:	e34d      	b.n	8004d24 <HAL_RCC_OscConfig+0x7bc>
            }
          }
        }

        /* Update the SystemCoreClock global variable */
        SystemCoreClock = HAL_RCC_GetSysClockFreq() >> (AHBPrescTable[READ_BIT(RCC->CFGR, RCC_CFGR_HPRE) >> RCC_CFGR_HPRE_Pos] & 0x1FU);
 8004688:	f000 fc36 	bl	8004ef8 <HAL_RCC_GetSysClockFreq>
 800468c:	4601      	mov	r1, r0
 800468e:	4b5c      	ldr	r3, [pc, #368]	; (8004800 <HAL_RCC_OscConfig+0x298>)
 8004690:	689b      	ldr	r3, [r3, #8]
 8004692:	091b      	lsrs	r3, r3, #4
 8004694:	f003 030f 	and.w	r3, r3, #15
 8004698:	4a5a      	ldr	r2, [pc, #360]	; (8004804 <HAL_RCC_OscConfig+0x29c>)
 800469a:	5cd3      	ldrb	r3, [r2, r3]
 800469c:	f003 031f 	and.w	r3, r3, #31
 80046a0:	fa21 f303 	lsr.w	r3, r1, r3
 80046a4:	4a58      	ldr	r2, [pc, #352]	; (8004808 <HAL_RCC_OscConfig+0x2a0>)
 80046a6:	6013      	str	r3, [r2, #0]

        /* Configure the source of time base considering new system clocks settings*/
        status = HAL_InitTick(uwTickPrio);
 80046a8:	4b58      	ldr	r3, [pc, #352]	; (800480c <HAL_RCC_OscConfig+0x2a4>)
 80046aa:	681b      	ldr	r3, [r3, #0]
 80046ac:	4618      	mov	r0, r3
 80046ae:	f7fe fc99 	bl	8002fe4 <HAL_InitTick>
 80046b2:	4603      	mov	r3, r0
 80046b4:	73fb      	strb	r3, [r7, #15]
        if(status != HAL_OK)
 80046b6:	7bfb      	ldrb	r3, [r7, #15]
 80046b8:	2b00      	cmp	r3, #0
 80046ba:	d052      	beq.n	8004762 <HAL_RCC_OscConfig+0x1fa>
        {
          return status;
 80046bc:	7bfb      	ldrb	r3, [r7, #15]
 80046be:	e331      	b.n	8004d24 <HAL_RCC_OscConfig+0x7bc>
      }
    }
    else
    {
      /* Check the MSI State */
      if(RCC_OscInitStruct->MSIState != RCC_MSI_OFF)
 80046c0:	687b      	ldr	r3, [r7, #4]
 80046c2:	699b      	ldr	r3, [r3, #24]
 80046c4:	2b00      	cmp	r3, #0
 80046c6:	d032      	beq.n	800472e <HAL_RCC_OscConfig+0x1c6>
      {
        /* Enable the Internal High Speed oscillator (MSI). */
        __HAL_RCC_MSI_ENABLE();
 80046c8:	4b4d      	ldr	r3, [pc, #308]	; (8004800 <HAL_RCC_OscConfig+0x298>)
 80046ca:	681b      	ldr	r3, [r3, #0]
 80046cc:	4a4c      	ldr	r2, [pc, #304]	; (8004800 <HAL_RCC_OscConfig+0x298>)
 80046ce:	f043 0301 	orr.w	r3, r3, #1
 80046d2:	6013      	str	r3, [r2, #0]

        /* Get timeout */
        tickstart = HAL_GetTick();
 80046d4:	f7fe fcd6 	bl	8003084 <HAL_GetTick>
 80046d8:	6138      	str	r0, [r7, #16]

        /* Wait till MSI is ready */
        while(READ_BIT(RCC->CR, RCC_CR_MSIRDY) == 0U)
 80046da:	e008      	b.n	80046ee <HAL_RCC_OscConfig+0x186>
        {
          if((HAL_GetTick() - tickstart) > MSI_TIMEOUT_VALUE)
 80046dc:	f7fe fcd2 	bl	8003084 <HAL_GetTick>
 80046e0:	4602      	mov	r2, r0
 80046e2:	693b      	ldr	r3, [r7, #16]
 80046e4:	1ad3      	subs	r3, r2, r3
 80046e6:	2b02      	cmp	r3, #2
 80046e8:	d901      	bls.n	80046ee <HAL_RCC_OscConfig+0x186>
          {
            return HAL_TIMEOUT;
 80046ea:	2303      	movs	r3, #3
 80046ec:	e31a      	b.n	8004d24 <HAL_RCC_OscConfig+0x7bc>
        while(READ_BIT(RCC->CR, RCC_CR_MSIRDY) == 0U)
 80046ee:	4b44      	ldr	r3, [pc, #272]	; (8004800 <HAL_RCC_OscConfig+0x298>)
 80046f0:	681b      	ldr	r3, [r3, #0]
 80046f2:	f003 0302 	and.w	r3, r3, #2
 80046f6:	2b00      	cmp	r3, #0
 80046f8:	d0f0      	beq.n	80046dc <HAL_RCC_OscConfig+0x174>
          }
        }
         /* Selects the Multiple Speed oscillator (MSI) clock range .*/
        __HAL_RCC_MSI_RANGE_CONFIG(RCC_OscInitStruct->MSIClockRange);
 80046fa:	4b41      	ldr	r3, [pc, #260]	; (8004800 <HAL_RCC_OscConfig+0x298>)
 80046fc:	681b      	ldr	r3, [r3, #0]
 80046fe:	4a40      	ldr	r2, [pc, #256]	; (8004800 <HAL_RCC_OscConfig+0x298>)
 8004700:	f043 0308 	orr.w	r3, r3, #8
 8004704:	6013      	str	r3, [r2, #0]
 8004706:	4b3e      	ldr	r3, [pc, #248]	; (8004800 <HAL_RCC_OscConfig+0x298>)
 8004708:	681b      	ldr	r3, [r3, #0]
 800470a:	f023 02f0 	bic.w	r2, r3, #240	; 0xf0
 800470e:	687b      	ldr	r3, [r7, #4]
 8004710:	6a1b      	ldr	r3, [r3, #32]
 8004712:	493b      	ldr	r1, [pc, #236]	; (8004800 <HAL_RCC_OscConfig+0x298>)
 8004714:	4313      	orrs	r3, r2
 8004716:	600b      	str	r3, [r1, #0]
         /* Adjusts the Multiple Speed oscillator (MSI) calibration value.*/
        __HAL_RCC_MSI_CALIBRATIONVALUE_ADJUST(RCC_OscInitStruct->MSICalibrationValue);
 8004718:	4b39      	ldr	r3, [pc, #228]	; (8004800 <HAL_RCC_OscConfig+0x298>)
 800471a:	685b      	ldr	r3, [r3, #4]
 800471c:	f423 427f 	bic.w	r2, r3, #65280	; 0xff00
 8004720:	687b      	ldr	r3, [r7, #4]
 8004722:	69db      	ldr	r3, [r3, #28]
 8004724:	021b      	lsls	r3, r3, #8
 8004726:	4936      	ldr	r1, [pc, #216]	; (8004800 <HAL_RCC_OscConfig+0x298>)
 8004728:	4313      	orrs	r3, r2
 800472a:	604b      	str	r3, [r1, #4]
 800472c:	e01a      	b.n	8004764 <HAL_RCC_OscConfig+0x1fc>

      }
      else
      {
        /* Disable the Internal High Speed oscillator (MSI). */
        __HAL_RCC_MSI_DISABLE();
 800472e:	4b34      	ldr	r3, [pc, #208]	; (8004800 <HAL_RCC_OscConfig+0x298>)
 8004730:	681b      	ldr	r3, [r3, #0]
 8004732:	4a33      	ldr	r2, [pc, #204]	; (8004800 <HAL_RCC_OscConfig+0x298>)
 8004734:	f023 0301 	bic.w	r3, r3, #1
 8004738:	6013      	str	r3, [r2, #0]

        /* Get timeout */
        tickstart = HAL_GetTick();
 800473a:	f7fe fca3 	bl	8003084 <HAL_GetTick>
 800473e:	6138      	str	r0, [r7, #16]

        /* Wait till MSI is ready */
        while(READ_BIT(RCC->CR, RCC_CR_MSIRDY) != 0U)
 8004740:	e008      	b.n	8004754 <HAL_RCC_OscConfig+0x1ec>
        {
          if((HAL_GetTick() - tickstart) > MSI_TIMEOUT_VALUE)
 8004742:	f7fe fc9f 	bl	8003084 <HAL_GetTick>
 8004746:	4602      	mov	r2, r0
 8004748:	693b      	ldr	r3, [r7, #16]
 800474a:	1ad3      	subs	r3, r2, r3
 800474c:	2b02      	cmp	r3, #2
 800474e:	d901      	bls.n	8004754 <HAL_RCC_OscConfig+0x1ec>
          {
            return HAL_TIMEOUT;
 8004750:	2303      	movs	r3, #3
 8004752:	e2e7      	b.n	8004d24 <HAL_RCC_OscConfig+0x7bc>
        while(READ_BIT(RCC->CR, RCC_CR_MSIRDY) != 0U)
 8004754:	4b2a      	ldr	r3, [pc, #168]	; (8004800 <HAL_RCC_OscConfig+0x298>)
 8004756:	681b      	ldr	r3, [r3, #0]
 8004758:	f003 0302 	and.w	r3, r3, #2
 800475c:	2b00      	cmp	r3, #0
 800475e:	d1f0      	bne.n	8004742 <HAL_RCC_OscConfig+0x1da>
 8004760:	e000      	b.n	8004764 <HAL_RCC_OscConfig+0x1fc>
      if((READ_BIT(RCC->CR, RCC_CR_MSIRDY) != 0U) && (RCC_OscInitStruct->MSIState == RCC_MSI_OFF))
 8004762:	bf00      	nop
        }
      }
    }
  }
  /*------------------------------- HSE Configuration ------------------------*/
  if(((RCC_OscInitStruct->OscillatorType) & RCC_OSCILLATORTYPE_HSE) == RCC_OSCILLATORTYPE_HSE)
 8004764:	687b      	ldr	r3, [r7, #4]
 8004766:	681b      	ldr	r3, [r3, #0]
 8004768:	f003 0301 	and.w	r3, r3, #1
 800476c:	2b00      	cmp	r3, #0
 800476e:	d074      	beq.n	800485a <HAL_RCC_OscConfig+0x2f2>
  {
    /* Check the parameters */
    assert_param(IS_RCC_HSE(RCC_OscInitStruct->HSEState));

    /* When the HSE is used as system clock or clock source for PLL in these cases it is not allowed to be disabled */
    if((sysclk_source == RCC_CFGR_SWS_HSE) ||
 8004770:	69bb      	ldr	r3, [r7, #24]
 8004772:	2b08      	cmp	r3, #8
 8004774:	d005      	beq.n	8004782 <HAL_RCC_OscConfig+0x21a>
 8004776:	69bb      	ldr	r3, [r7, #24]
 8004778:	2b0c      	cmp	r3, #12
 800477a:	d10e      	bne.n	800479a <HAL_RCC_OscConfig+0x232>
       ((sysclk_source == RCC_CFGR_SWS_PLL) && (pll_config == RCC_PLLSOURCE_HSE)))
 800477c:	697b      	ldr	r3, [r7, #20]
 800477e:	2b03      	cmp	r3, #3
 8004780:	d10b      	bne.n	800479a <HAL_RCC_OscConfig+0x232>
    {
      if((READ_BIT(RCC->CR, RCC_CR_HSERDY) != 0U) && (RCC_OscInitStruct->HSEState == RCC_HSE_OFF))
 8004782:	4b1f      	ldr	r3, [pc, #124]	; (8004800 <HAL_RCC_OscConfig+0x298>)
 8004784:	681b      	ldr	r3, [r3, #0]
 8004786:	f403 3300 	and.w	r3, r3, #131072	; 0x20000
 800478a:	2b00      	cmp	r3, #0
 800478c:	d064      	beq.n	8004858 <HAL_RCC_OscConfig+0x2f0>
 800478e:	687b      	ldr	r3, [r7, #4]
 8004790:	685b      	ldr	r3, [r3, #4]
 8004792:	2b00      	cmp	r3, #0
 8004794:	d160      	bne.n	8004858 <HAL_RCC_OscConfig+0x2f0>
      {
        return HAL_ERROR;
 8004796:	2301      	movs	r3, #1
 8004798:	e2c4      	b.n	8004d24 <HAL_RCC_OscConfig+0x7bc>
      }
    }
    else
    {
      /* Set the new HSE configuration ---------------------------------------*/
      __HAL_RCC_HSE_CONFIG(RCC_OscInitStruct->HSEState);
 800479a:	687b      	ldr	r3, [r7, #4]
 800479c:	685b      	ldr	r3, [r3, #4]
 800479e:	f5b3 3f80 	cmp.w	r3, #65536	; 0x10000
 80047a2:	d106      	bne.n	80047b2 <HAL_RCC_OscConfig+0x24a>
 80047a4:	4b16      	ldr	r3, [pc, #88]	; (8004800 <HAL_RCC_OscConfig+0x298>)
 80047a6:	681b      	ldr	r3, [r3, #0]
 80047a8:	4a15      	ldr	r2, [pc, #84]	; (8004800 <HAL_RCC_OscConfig+0x298>)
 80047aa:	f443 3380 	orr.w	r3, r3, #65536	; 0x10000
 80047ae:	6013      	str	r3, [r2, #0]
 80047b0:	e01d      	b.n	80047ee <HAL_RCC_OscConfig+0x286>
 80047b2:	687b      	ldr	r3, [r7, #4]
 80047b4:	685b      	ldr	r3, [r3, #4]
 80047b6:	f5b3 2fa0 	cmp.w	r3, #327680	; 0x50000
 80047ba:	d10c      	bne.n	80047d6 <HAL_RCC_OscConfig+0x26e>
 80047bc:	4b10      	ldr	r3, [pc, #64]	; (8004800 <HAL_RCC_OscConfig+0x298>)
 80047be:	681b      	ldr	r3, [r3, #0]
 80047c0:	4a0f      	ldr	r2, [pc, #60]	; (8004800 <HAL_RCC_OscConfig+0x298>)
 80047c2:	f443 2380 	orr.w	r3, r3, #262144	; 0x40000
 80047c6:	6013      	str	r3, [r2, #0]
 80047c8:	4b0d      	ldr	r3, [pc, #52]	; (8004800 <HAL_RCC_OscConfig+0x298>)
 80047ca:	681b      	ldr	r3, [r3, #0]
 80047cc:	4a0c      	ldr	r2, [pc, #48]	; (8004800 <HAL_RCC_OscConfig+0x298>)
 80047ce:	f443 3380 	orr.w	r3, r3, #65536	; 0x10000
 80047d2:	6013      	str	r3, [r2, #0]
 80047d4:	e00b      	b.n	80047ee <HAL_RCC_OscConfig+0x286>
 80047d6:	4b0a      	ldr	r3, [pc, #40]	; (8004800 <HAL_RCC_OscConfig+0x298>)
 80047d8:	681b      	ldr	r3, [r3, #0]
 80047da:	4a09      	ldr	r2, [pc, #36]	; (8004800 <HAL_RCC_OscConfig+0x298>)
 80047dc:	f423 3380 	bic.w	r3, r3, #65536	; 0x10000
 80047e0:	6013      	str	r3, [r2, #0]
 80047e2:	4b07      	ldr	r3, [pc, #28]	; (8004800 <HAL_RCC_OscConfig+0x298>)
 80047e4:	681b      	ldr	r3, [r3, #0]
 80047e6:	4a06      	ldr	r2, [pc, #24]	; (8004800 <HAL_RCC_OscConfig+0x298>)
 80047e8:	f423 2380 	bic.w	r3, r3, #262144	; 0x40000
 80047ec:	6013      	str	r3, [r2, #0]

      /* Check the HSE State */
      if(RCC_OscInitStruct->HSEState != RCC_HSE_OFF)
 80047ee:	687b      	ldr	r3, [r7, #4]
 80047f0:	685b      	ldr	r3, [r3, #4]
 80047f2:	2b00      	cmp	r3, #0
 80047f4:	d01c      	beq.n	8004830 <HAL_RCC_OscConfig+0x2c8>
      {
        /* Get Start Tick*/
        tickstart = HAL_GetTick();
 80047f6:	f7fe fc45 	bl	8003084 <HAL_GetTick>
 80047fa:	6138      	str	r0, [r7, #16]

        /* Wait till HSE is ready */
        while(READ_BIT(RCC->CR, RCC_CR_HSERDY) == 0U)
 80047fc:	e011      	b.n	8004822 <HAL_RCC_OscConfig+0x2ba>
 80047fe:	bf00      	nop
 8004800:	40021000 	.word	0x40021000
 8004804:	0800957c 	.word	0x0800957c
 8004808:	200002b4 	.word	0x200002b4
 800480c:	200002b8 	.word	0x200002b8
        {
          if((HAL_GetTick() - tickstart) > HSE_TIMEOUT_VALUE)
 8004810:	f7fe fc38 	bl	8003084 <HAL_GetTick>
 8004814:	4602      	mov	r2, r0
 8004816:	693b      	ldr	r3, [r7, #16]
 8004818:	1ad3      	subs	r3, r2, r3
 800481a:	2b64      	cmp	r3, #100	; 0x64
 800481c:	d901      	bls.n	8004822 <HAL_RCC_OscConfig+0x2ba>
          {
            return HAL_TIMEOUT;
 800481e:	2303      	movs	r3, #3
 8004820:	e280      	b.n	8004d24 <HAL_RCC_OscConfig+0x7bc>
        while(READ_BIT(RCC->CR, RCC_CR_HSERDY) == 0U)
 8004822:	4baf      	ldr	r3, [pc, #700]	; (8004ae0 <HAL_RCC_OscConfig+0x578>)
 8004824:	681b      	ldr	r3, [r3, #0]
 8004826:	f403 3300 	and.w	r3, r3, #131072	; 0x20000
 800482a:	2b00      	cmp	r3, #0
 800482c:	d0f0      	beq.n	8004810 <HAL_RCC_OscConfig+0x2a8>
 800482e:	e014      	b.n	800485a <HAL_RCC_OscConfig+0x2f2>
        }
      }
      else
      {
        /* Get Start Tick*/
        tickstart = HAL_GetTick();
 8004830:	f7fe fc28 	bl	8003084 <HAL_GetTick>
 8004834:	6138      	str	r0, [r7, #16]

        /* Wait till HSE is disabled */
        while(READ_BIT(RCC->CR, RCC_CR_HSERDY) != 0U)
 8004836:	e008      	b.n	800484a <HAL_RCC_OscConfig+0x2e2>
        {
          if((HAL_GetTick() - tickstart) > HSE_TIMEOUT_VALUE)
 8004838:	f7fe fc24 	bl	8003084 <HAL_GetTick>
 800483c:	4602      	mov	r2, r0
 800483e:	693b      	ldr	r3, [r7, #16]
 8004840:	1ad3      	subs	r3, r2, r3
 8004842:	2b64      	cmp	r3, #100	; 0x64
 8004844:	d901      	bls.n	800484a <HAL_RCC_OscConfig+0x2e2>
          {
            return HAL_TIMEOUT;
 8004846:	2303      	movs	r3, #3
 8004848:	e26c      	b.n	8004d24 <HAL_RCC_OscConfig+0x7bc>
        while(READ_BIT(RCC->CR, RCC_CR_HSERDY) != 0U)
 800484a:	4ba5      	ldr	r3, [pc, #660]	; (8004ae0 <HAL_RCC_OscConfig+0x578>)
 800484c:	681b      	ldr	r3, [r3, #0]
 800484e:	f403 3300 	and.w	r3, r3, #131072	; 0x20000
 8004852:	2b00      	cmp	r3, #0
 8004854:	d1f0      	bne.n	8004838 <HAL_RCC_OscConfig+0x2d0>
 8004856:	e000      	b.n	800485a <HAL_RCC_OscConfig+0x2f2>
      if((READ_BIT(RCC->CR, RCC_CR_HSERDY) != 0U) && (RCC_OscInitStruct->HSEState == RCC_HSE_OFF))
 8004858:	bf00      	nop
        }
      }
    }
  }
  /*----------------------------- HSI Configuration --------------------------*/
  if(((RCC_OscInitStruct->OscillatorType) & RCC_OSCILLATORTYPE_HSI) == RCC_OSCILLATORTYPE_HSI)
 800485a:	687b      	ldr	r3, [r7, #4]
 800485c:	681b      	ldr	r3, [r3, #0]
 800485e:	f003 0302 	and.w	r3, r3, #2
 8004862:	2b00      	cmp	r3, #0
 8004864:	d060      	beq.n	8004928 <HAL_RCC_OscConfig+0x3c0>
    /* Check the parameters */
    assert_param(IS_RCC_HSI(RCC_OscInitStruct->HSIState));
    assert_param(IS_RCC_HSI_CALIBRATION_VALUE(RCC_OscInitStruct->HSICalibrationValue));

    /* Check if HSI is used as system clock or as PLL source when PLL is selected as system clock */
    if((sysclk_source == RCC_CFGR_SWS_HSI) ||
 8004866:	69bb      	ldr	r3, [r7, #24]
 8004868:	2b04      	cmp	r3, #4
 800486a:	d005      	beq.n	8004878 <HAL_RCC_OscConfig+0x310>
 800486c:	69bb      	ldr	r3, [r7, #24]
 800486e:	2b0c      	cmp	r3, #12
 8004870:	d119      	bne.n	80048a6 <HAL_RCC_OscConfig+0x33e>
       ((sysclk_source == RCC_CFGR_SWS_PLL) && (pll_config == RCC_PLLSOURCE_HSI)))
 8004872:	697b      	ldr	r3, [r7, #20]
 8004874:	2b02      	cmp	r3, #2
 8004876:	d116      	bne.n	80048a6 <HAL_RCC_OscConfig+0x33e>
    {
      /* When HSI is used as system clock it will not be disabled */
      if((READ_BIT(RCC->CR, RCC_CR_HSIRDY) != 0U) && (RCC_OscInitStruct->HSIState == RCC_HSI_OFF))
 8004878:	4b99      	ldr	r3, [pc, #612]	; (8004ae0 <HAL_RCC_OscConfig+0x578>)
 800487a:	681b      	ldr	r3, [r3, #0]
 800487c:	f403 6380 	and.w	r3, r3, #1024	; 0x400
 8004880:	2b00      	cmp	r3, #0
 8004882:	d005      	beq.n	8004890 <HAL_RCC_OscConfig+0x328>
 8004884:	687b      	ldr	r3, [r7, #4]
 8004886:	68db      	ldr	r3, [r3, #12]
 8004888:	2b00      	cmp	r3, #0
 800488a:	d101      	bne.n	8004890 <HAL_RCC_OscConfig+0x328>
      {
        return HAL_ERROR;
 800488c:	2301      	movs	r3, #1
 800488e:	e249      	b.n	8004d24 <HAL_RCC_OscConfig+0x7bc>
      }
      /* Otherwise, just the calibration is allowed */
      else
      {
        /* Adjusts the Internal High Speed oscillator (HSI) calibration value.*/
        __HAL_RCC_HSI_CALIBRATIONVALUE_ADJUST(RCC_OscInitStruct->HSICalibrationValue);
 8004890:	4b93      	ldr	r3, [pc, #588]	; (8004ae0 <HAL_RCC_OscConfig+0x578>)
 8004892:	685b      	ldr	r3, [r3, #4]
 8004894:	f023 52f8 	bic.w	r2, r3, #520093696	; 0x1f000000
 8004898:	687b      	ldr	r3, [r7, #4]
 800489a:	691b      	ldr	r3, [r3, #16]
 800489c:	061b      	lsls	r3, r3, #24
 800489e:	4990      	ldr	r1, [pc, #576]	; (8004ae0 <HAL_RCC_OscConfig+0x578>)
 80048a0:	4313      	orrs	r3, r2
 80048a2:	604b      	str	r3, [r1, #4]
      if((READ_BIT(RCC->CR, RCC_CR_HSIRDY) != 0U) && (RCC_OscInitStruct->HSIState == RCC_HSI_OFF))
 80048a4:	e040      	b.n	8004928 <HAL_RCC_OscConfig+0x3c0>
      }
    }
    else
    {
      /* Check the HSI State */
      if(RCC_OscInitStruct->HSIState != RCC_HSI_OFF)
 80048a6:	687b      	ldr	r3, [r7, #4]
 80048a8:	68db      	ldr	r3, [r3, #12]
 80048aa:	2b00      	cmp	r3, #0
 80048ac:	d023      	beq.n	80048f6 <HAL_RCC_OscConfig+0x38e>
      {
        /* Enable the Internal High Speed oscillator (HSI). */
        __HAL_RCC_HSI_ENABLE();
 80048ae:	4b8c      	ldr	r3, [pc, #560]	; (8004ae0 <HAL_RCC_OscConfig+0x578>)
 80048b0:	681b      	ldr	r3, [r3, #0]
 80048b2:	4a8b      	ldr	r2, [pc, #556]	; (8004ae0 <HAL_RCC_OscConfig+0x578>)
 80048b4:	f443 7380 	orr.w	r3, r3, #256	; 0x100
 80048b8:	6013      	str	r3, [r2, #0]

        /* Get Start Tick*/
        tickstart = HAL_GetTick();
 80048ba:	f7fe fbe3 	bl	8003084 <HAL_GetTick>
 80048be:	6138      	str	r0, [r7, #16]

        /* Wait till HSI is ready */
        while(READ_BIT(RCC->CR, RCC_CR_HSIRDY) == 0U)
 80048c0:	e008      	b.n	80048d4 <HAL_RCC_OscConfig+0x36c>
        {
          if((HAL_GetTick() - tickstart) > HSI_TIMEOUT_VALUE)
 80048c2:	f7fe fbdf 	bl	8003084 <HAL_GetTick>
 80048c6:	4602      	mov	r2, r0
 80048c8:	693b      	ldr	r3, [r7, #16]
 80048ca:	1ad3      	subs	r3, r2, r3
 80048cc:	2b02      	cmp	r3, #2
 80048ce:	d901      	bls.n	80048d4 <HAL_RCC_OscConfig+0x36c>
          {
            return HAL_TIMEOUT;
 80048d0:	2303      	movs	r3, #3
 80048d2:	e227      	b.n	8004d24 <HAL_RCC_OscConfig+0x7bc>
        while(READ_BIT(RCC->CR, RCC_CR_HSIRDY) == 0U)
 80048d4:	4b82      	ldr	r3, [pc, #520]	; (8004ae0 <HAL_RCC_OscConfig+0x578>)
 80048d6:	681b      	ldr	r3, [r3, #0]
 80048d8:	f403 6380 	and.w	r3, r3, #1024	; 0x400
 80048dc:	2b00      	cmp	r3, #0
 80048de:	d0f0      	beq.n	80048c2 <HAL_RCC_OscConfig+0x35a>
          }
        }

        /* Adjusts the Internal High Speed oscillator (HSI) calibration value.*/
        __HAL_RCC_HSI_CALIBRATIONVALUE_ADJUST(RCC_OscInitStruct->HSICalibrationValue);
 80048e0:	4b7f      	ldr	r3, [pc, #508]	; (8004ae0 <HAL_RCC_OscConfig+0x578>)
 80048e2:	685b      	ldr	r3, [r3, #4]
 80048e4:	f023 52f8 	bic.w	r2, r3, #520093696	; 0x1f000000
 80048e8:	687b      	ldr	r3, [r7, #4]
 80048ea:	691b      	ldr	r3, [r3, #16]
 80048ec:	061b      	lsls	r3, r3, #24
 80048ee:	497c      	ldr	r1, [pc, #496]	; (8004ae0 <HAL_RCC_OscConfig+0x578>)
 80048f0:	4313      	orrs	r3, r2
 80048f2:	604b      	str	r3, [r1, #4]
 80048f4:	e018      	b.n	8004928 <HAL_RCC_OscConfig+0x3c0>
      }
      else
      {
        /* Disable the Internal High Speed oscillator (HSI). */
        __HAL_RCC_HSI_DISABLE();
 80048f6:	4b7a      	ldr	r3, [pc, #488]	; (8004ae0 <HAL_RCC_OscConfig+0x578>)
 80048f8:	681b      	ldr	r3, [r3, #0]
 80048fa:	4a79      	ldr	r2, [pc, #484]	; (8004ae0 <HAL_RCC_OscConfig+0x578>)
 80048fc:	f423 7380 	bic.w	r3, r3, #256	; 0x100
 8004900:	6013      	str	r3, [r2, #0]

        /* Get Start Tick*/
        tickstart = HAL_GetTick();
 8004902:	f7fe fbbf 	bl	8003084 <HAL_GetTick>
 8004906:	6138      	str	r0, [r7, #16]

        /* Wait till HSI is disabled */
        while(READ_BIT(RCC->CR, RCC_CR_HSIRDY) != 0U)
 8004908:	e008      	b.n	800491c <HAL_RCC_OscConfig+0x3b4>
        {
          if((HAL_GetTick() - tickstart) > HSI_TIMEOUT_VALUE)
 800490a:	f7fe fbbb 	bl	8003084 <HAL_GetTick>
 800490e:	4602      	mov	r2, r0
 8004910:	693b      	ldr	r3, [r7, #16]
 8004912:	1ad3      	subs	r3, r2, r3
 8004914:	2b02      	cmp	r3, #2
 8004916:	d901      	bls.n	800491c <HAL_RCC_OscConfig+0x3b4>
          {
            return HAL_TIMEOUT;
 8004918:	2303      	movs	r3, #3
 800491a:	e203      	b.n	8004d24 <HAL_RCC_OscConfig+0x7bc>
        while(READ_BIT(RCC->CR, RCC_CR_HSIRDY) != 0U)
 800491c:	4b70      	ldr	r3, [pc, #448]	; (8004ae0 <HAL_RCC_OscConfig+0x578>)
 800491e:	681b      	ldr	r3, [r3, #0]
 8004920:	f403 6380 	and.w	r3, r3, #1024	; 0x400
 8004924:	2b00      	cmp	r3, #0
 8004926:	d1f0      	bne.n	800490a <HAL_RCC_OscConfig+0x3a2>
        }
      }
    }
  }
  /*------------------------------ LSI Configuration -------------------------*/
  if(((RCC_OscInitStruct->OscillatorType) & RCC_OSCILLATORTYPE_LSI) == RCC_OSCILLATORTYPE_LSI)
 8004928:	687b      	ldr	r3, [r7, #4]
 800492a:	681b      	ldr	r3, [r3, #0]
 800492c:	f003 0308 	and.w	r3, r3, #8
 8004930:	2b00      	cmp	r3, #0
 8004932:	d03c      	beq.n	80049ae <HAL_RCC_OscConfig+0x446>
  {
    /* Check the parameters */
    assert_param(IS_RCC_LSI(RCC_OscInitStruct->LSIState));

    /* Check the LSI State */
    if(RCC_OscInitStruct->LSIState != RCC_LSI_OFF)
 8004934:	687b      	ldr	r3, [r7, #4]
 8004936:	695b      	ldr	r3, [r3, #20]
 8004938:	2b00      	cmp	r3, #0
 800493a:	d01c      	beq.n	8004976 <HAL_RCC_OscConfig+0x40e>
        MODIFY_REG(RCC->CSR, RCC_CSR_LSIPREDIV, RCC_OscInitStruct->LSIDiv);
      }
#endif /* RCC_CSR_LSIPREDIV */

      /* Enable the Internal Low Speed oscillator (LSI). */
      __HAL_RCC_LSI_ENABLE();
 800493c:	4b68      	ldr	r3, [pc, #416]	; (8004ae0 <HAL_RCC_OscConfig+0x578>)
 800493e:	f8d3 3094 	ldr.w	r3, [r3, #148]	; 0x94
 8004942:	4a67      	ldr	r2, [pc, #412]	; (8004ae0 <HAL_RCC_OscConfig+0x578>)
 8004944:	f043 0301 	orr.w	r3, r3, #1
 8004948:	f8c2 3094 	str.w	r3, [r2, #148]	; 0x94

      /* Get Start Tick*/
      tickstart = HAL_GetTick();
 800494c:	f7fe fb9a 	bl	8003084 <HAL_GetTick>
 8004950:	6138      	str	r0, [r7, #16]

      /* Wait till LSI is ready */
      while(READ_BIT(RCC->CSR, RCC_CSR_LSIRDY) == 0U)
 8004952:	e008      	b.n	8004966 <HAL_RCC_OscConfig+0x3fe>
      {
        if((HAL_GetTick() - tickstart) > LSI_TIMEOUT_VALUE)
 8004954:	f7fe fb96 	bl	8003084 <HAL_GetTick>
 8004958:	4602      	mov	r2, r0
 800495a:	693b      	ldr	r3, [r7, #16]
 800495c:	1ad3      	subs	r3, r2, r3
 800495e:	2b02      	cmp	r3, #2
 8004960:	d901      	bls.n	8004966 <HAL_RCC_OscConfig+0x3fe>
        {
          return HAL_TIMEOUT;
 8004962:	2303      	movs	r3, #3
 8004964:	e1de      	b.n	8004d24 <HAL_RCC_OscConfig+0x7bc>
      while(READ_BIT(RCC->CSR, RCC_CSR_LSIRDY) == 0U)
 8004966:	4b5e      	ldr	r3, [pc, #376]	; (8004ae0 <HAL_RCC_OscConfig+0x578>)
 8004968:	f8d3 3094 	ldr.w	r3, [r3, #148]	; 0x94
 800496c:	f003 0302 	and.w	r3, r3, #2
 8004970:	2b00      	cmp	r3, #0
 8004972:	d0ef      	beq.n	8004954 <HAL_RCC_OscConfig+0x3ec>
 8004974:	e01b      	b.n	80049ae <HAL_RCC_OscConfig+0x446>
      }
    }
    else
    {
      /* Disable the Internal Low Speed oscillator (LSI). */
      __HAL_RCC_LSI_DISABLE();
 8004976:	4b5a      	ldr	r3, [pc, #360]	; (8004ae0 <HAL_RCC_OscConfig+0x578>)
 8004978:	f8d3 3094 	ldr.w	r3, [r3, #148]	; 0x94
 800497c:	4a58      	ldr	r2, [pc, #352]	; (8004ae0 <HAL_RCC_OscConfig+0x578>)
 800497e:	f023 0301 	bic.w	r3, r3, #1
 8004982:	f8c2 3094 	str.w	r3, [r2, #148]	; 0x94

      /* Get Start Tick*/
      tickstart = HAL_GetTick();
 8004986:	f7fe fb7d 	bl	8003084 <HAL_GetTick>
 800498a:	6138      	str	r0, [r7, #16]

      /* Wait till LSI is disabled */
      while(READ_BIT(RCC->CSR, RCC_CSR_LSIRDY) != 0U)
 800498c:	e008      	b.n	80049a0 <HAL_RCC_OscConfig+0x438>
      {
        if((HAL_GetTick() - tickstart) > LSI_TIMEOUT_VALUE)
 800498e:	f7fe fb79 	bl	8003084 <HAL_GetTick>
 8004992:	4602      	mov	r2, r0
 8004994:	693b      	ldr	r3, [r7, #16]
 8004996:	1ad3      	subs	r3, r2, r3
 8004998:	2b02      	cmp	r3, #2
 800499a:	d901      	bls.n	80049a0 <HAL_RCC_OscConfig+0x438>
        {
          return HAL_TIMEOUT;
 800499c:	2303      	movs	r3, #3
 800499e:	e1c1      	b.n	8004d24 <HAL_RCC_OscConfig+0x7bc>
      while(READ_BIT(RCC->CSR, RCC_CSR_LSIRDY) != 0U)
 80049a0:	4b4f      	ldr	r3, [pc, #316]	; (8004ae0 <HAL_RCC_OscConfig+0x578>)
 80049a2:	f8d3 3094 	ldr.w	r3, [r3, #148]	; 0x94
 80049a6:	f003 0302 	and.w	r3, r3, #2
 80049aa:	2b00      	cmp	r3, #0
 80049ac:	d1ef      	bne.n	800498e <HAL_RCC_OscConfig+0x426>
        }
      }
    }
  }
  /*------------------------------ LSE Configuration -------------------------*/
  if(((RCC_OscInitStruct->OscillatorType) & RCC_OSCILLATORTYPE_LSE) == RCC_OSCILLATORTYPE_LSE)
 80049ae:	687b      	ldr	r3, [r7, #4]
 80049b0:	681b      	ldr	r3, [r3, #0]
 80049b2:	f003 0304 	and.w	r3, r3, #4
 80049b6:	2b00      	cmp	r3, #0
 80049b8:	f000 80a6 	beq.w	8004b08 <HAL_RCC_OscConfig+0x5a0>
  {
    FlagStatus       pwrclkchanged = RESET;
 80049bc:	2300      	movs	r3, #0
 80049be:	77fb      	strb	r3, [r7, #31]
    /* Check the parameters */
    assert_param(IS_RCC_LSE(RCC_OscInitStruct->LSEState));

    /* Update LSE configuration in Backup Domain control register    */
    /* Requires to enable write access to Backup Domain of necessary */
    if(HAL_IS_BIT_CLR(RCC->APB1ENR1, RCC_APB1ENR1_PWREN))
 80049c0:	4b47      	ldr	r3, [pc, #284]	; (8004ae0 <HAL_RCC_OscConfig+0x578>)
 80049c2:	6d9b      	ldr	r3, [r3, #88]	; 0x58
 80049c4:	f003 5380 	and.w	r3, r3, #268435456	; 0x10000000
 80049c8:	2b00      	cmp	r3, #0
 80049ca:	d10d      	bne.n	80049e8 <HAL_RCC_OscConfig+0x480>
    {
      __HAL_RCC_PWR_CLK_ENABLE();
 80049cc:	4b44      	ldr	r3, [pc, #272]	; (8004ae0 <HAL_RCC_OscConfig+0x578>)
 80049ce:	6d9b      	ldr	r3, [r3, #88]	; 0x58
 80049d0:	4a43      	ldr	r2, [pc, #268]	; (8004ae0 <HAL_RCC_OscConfig+0x578>)
 80049d2:	f043 5380 	orr.w	r3, r3, #268435456	; 0x10000000
 80049d6:	6593      	str	r3, [r2, #88]	; 0x58
 80049d8:	4b41      	ldr	r3, [pc, #260]	; (8004ae0 <HAL_RCC_OscConfig+0x578>)
 80049da:	6d9b      	ldr	r3, [r3, #88]	; 0x58
 80049dc:	f003 5380 	and.w	r3, r3, #268435456	; 0x10000000
 80049e0:	60bb      	str	r3, [r7, #8]
 80049e2:	68bb      	ldr	r3, [r7, #8]
      pwrclkchanged = SET;
 80049e4:	2301      	movs	r3, #1
 80049e6:	77fb      	strb	r3, [r7, #31]
    }

    if(HAL_IS_BIT_CLR(PWR->CR1, PWR_CR1_DBP))
 80049e8:	4b3e      	ldr	r3, [pc, #248]	; (8004ae4 <HAL_RCC_OscConfig+0x57c>)
 80049ea:	681b      	ldr	r3, [r3, #0]
 80049ec:	f403 7380 	and.w	r3, r3, #256	; 0x100
 80049f0:	2b00      	cmp	r3, #0
 80049f2:	d118      	bne.n	8004a26 <HAL_RCC_OscConfig+0x4be>
    {
      /* Enable write access to Backup domain */
      SET_BIT(PWR->CR1, PWR_CR1_DBP);
 80049f4:	4b3b      	ldr	r3, [pc, #236]	; (8004ae4 <HAL_RCC_OscConfig+0x57c>)
 80049f6:	681b      	ldr	r3, [r3, #0]
 80049f8:	4a3a      	ldr	r2, [pc, #232]	; (8004ae4 <HAL_RCC_OscConfig+0x57c>)
 80049fa:	f443 7380 	orr.w	r3, r3, #256	; 0x100
 80049fe:	6013      	str	r3, [r2, #0]

      /* Wait for Backup domain Write protection disable */
      tickstart = HAL_GetTick();
 8004a00:	f7fe fb40 	bl	8003084 <HAL_GetTick>
 8004a04:	6138      	str	r0, [r7, #16]

      while(HAL_IS_BIT_CLR(PWR->CR1, PWR_CR1_DBP))
 8004a06:	e008      	b.n	8004a1a <HAL_RCC_OscConfig+0x4b2>
      {
        if((HAL_GetTick() - tickstart) > RCC_DBP_TIMEOUT_VALUE)
 8004a08:	f7fe fb3c 	bl	8003084 <HAL_GetTick>
 8004a0c:	4602      	mov	r2, r0
 8004a0e:	693b      	ldr	r3, [r7, #16]
 8004a10:	1ad3      	subs	r3, r2, r3
 8004a12:	2b02      	cmp	r3, #2
 8004a14:	d901      	bls.n	8004a1a <HAL_RCC_OscConfig+0x4b2>
        {
          return HAL_TIMEOUT;
 8004a16:	2303      	movs	r3, #3
 8004a18:	e184      	b.n	8004d24 <HAL_RCC_OscConfig+0x7bc>
      while(HAL_IS_BIT_CLR(PWR->CR1, PWR_CR1_DBP))
 8004a1a:	4b32      	ldr	r3, [pc, #200]	; (8004ae4 <HAL_RCC_OscConfig+0x57c>)
 8004a1c:	681b      	ldr	r3, [r3, #0]
 8004a1e:	f403 7380 	and.w	r3, r3, #256	; 0x100
 8004a22:	2b00      	cmp	r3, #0
 8004a24:	d0f0      	beq.n	8004a08 <HAL_RCC_OscConfig+0x4a0>
    {
      CLEAR_BIT(RCC->BDCR, RCC_BDCR_LSEON);
      CLEAR_BIT(RCC->BDCR, RCC_BDCR_LSEBYP);
    }
#else
    __HAL_RCC_LSE_CONFIG(RCC_OscInitStruct->LSEState);
 8004a26:	687b      	ldr	r3, [r7, #4]
 8004a28:	689b      	ldr	r3, [r3, #8]
 8004a2a:	2b01      	cmp	r3, #1
 8004a2c:	d108      	bne.n	8004a40 <HAL_RCC_OscConfig+0x4d8>
 8004a2e:	4b2c      	ldr	r3, [pc, #176]	; (8004ae0 <HAL_RCC_OscConfig+0x578>)
 8004a30:	f8d3 3090 	ldr.w	r3, [r3, #144]	; 0x90
 8004a34:	4a2a      	ldr	r2, [pc, #168]	; (8004ae0 <HAL_RCC_OscConfig+0x578>)
 8004a36:	f043 0301 	orr.w	r3, r3, #1
 8004a3a:	f8c2 3090 	str.w	r3, [r2, #144]	; 0x90
 8004a3e:	e024      	b.n	8004a8a <HAL_RCC_OscConfig+0x522>
 8004a40:	687b      	ldr	r3, [r7, #4]
 8004a42:	689b      	ldr	r3, [r3, #8]
 8004a44:	2b05      	cmp	r3, #5
 8004a46:	d110      	bne.n	8004a6a <HAL_RCC_OscConfig+0x502>
 8004a48:	4b25      	ldr	r3, [pc, #148]	; (8004ae0 <HAL_RCC_OscConfig+0x578>)
 8004a4a:	f8d3 3090 	ldr.w	r3, [r3, #144]	; 0x90
 8004a4e:	4a24      	ldr	r2, [pc, #144]	; (8004ae0 <HAL_RCC_OscConfig+0x578>)
 8004a50:	f043 0304 	orr.w	r3, r3, #4
 8004a54:	f8c2 3090 	str.w	r3, [r2, #144]	; 0x90
 8004a58:	4b21      	ldr	r3, [pc, #132]	; (8004ae0 <HAL_RCC_OscConfig+0x578>)
 8004a5a:	f8d3 3090 	ldr.w	r3, [r3, #144]	; 0x90
 8004a5e:	4a20      	ldr	r2, [pc, #128]	; (8004ae0 <HAL_RCC_OscConfig+0x578>)
 8004a60:	f043 0301 	orr.w	r3, r3, #1
 8004a64:	f8c2 3090 	str.w	r3, [r2, #144]	; 0x90
 8004a68:	e00f      	b.n	8004a8a <HAL_RCC_OscConfig+0x522>
 8004a6a:	4b1d      	ldr	r3, [pc, #116]	; (8004ae0 <HAL_RCC_OscConfig+0x578>)
 8004a6c:	f8d3 3090 	ldr.w	r3, [r3, #144]	; 0x90
 8004a70:	4a1b      	ldr	r2, [pc, #108]	; (8004ae0 <HAL_RCC_OscConfig+0x578>)
 8004a72:	f023 0301 	bic.w	r3, r3, #1
 8004a76:	f8c2 3090 	str.w	r3, [r2, #144]	; 0x90
 8004a7a:	4b19      	ldr	r3, [pc, #100]	; (8004ae0 <HAL_RCC_OscConfig+0x578>)
 8004a7c:	f8d3 3090 	ldr.w	r3, [r3, #144]	; 0x90
 8004a80:	4a17      	ldr	r2, [pc, #92]	; (8004ae0 <HAL_RCC_OscConfig+0x578>)
 8004a82:	f023 0304 	bic.w	r3, r3, #4
 8004a86:	f8c2 3090 	str.w	r3, [r2, #144]	; 0x90
#endif /* RCC_BDCR_LSESYSDIS */

    /* Check the LSE State */
    if(RCC_OscInitStruct->LSEState != RCC_LSE_OFF)
 8004a8a:	687b      	ldr	r3, [r7, #4]
 8004a8c:	689b      	ldr	r3, [r3, #8]
 8004a8e:	2b00      	cmp	r3, #0
 8004a90:	d016      	beq.n	8004ac0 <HAL_RCC_OscConfig+0x558>
    {
      /* Get Start Tick*/
      tickstart = HAL_GetTick();
 8004a92:	f7fe faf7 	bl	8003084 <HAL_GetTick>
 8004a96:	6138      	str	r0, [r7, #16]

      /* Wait till LSE is ready */
      while(READ_BIT(RCC->BDCR, RCC_BDCR_LSERDY) == 0U)
 8004a98:	e00a      	b.n	8004ab0 <HAL_RCC_OscConfig+0x548>
      {
        if((HAL_GetTick() - tickstart) > RCC_LSE_TIMEOUT_VALUE)
 8004a9a:	f7fe faf3 	bl	8003084 <HAL_GetTick>
 8004a9e:	4602      	mov	r2, r0
 8004aa0:	693b      	ldr	r3, [r7, #16]
 8004aa2:	1ad3      	subs	r3, r2, r3
 8004aa4:	f241 3288 	movw	r2, #5000	; 0x1388
 8004aa8:	4293      	cmp	r3, r2
 8004aaa:	d901      	bls.n	8004ab0 <HAL_RCC_OscConfig+0x548>
        {
          return HAL_TIMEOUT;
 8004aac:	2303      	movs	r3, #3
 8004aae:	e139      	b.n	8004d24 <HAL_RCC_OscConfig+0x7bc>
      while(READ_BIT(RCC->BDCR, RCC_BDCR_LSERDY) == 0U)
 8004ab0:	4b0b      	ldr	r3, [pc, #44]	; (8004ae0 <HAL_RCC_OscConfig+0x578>)
 8004ab2:	f8d3 3090 	ldr.w	r3, [r3, #144]	; 0x90
 8004ab6:	f003 0302 	and.w	r3, r3, #2
 8004aba:	2b00      	cmp	r3, #0
 8004abc:	d0ed      	beq.n	8004a9a <HAL_RCC_OscConfig+0x532>
 8004abe:	e01a      	b.n	8004af6 <HAL_RCC_OscConfig+0x58e>
      }
    }
    else
    {
      /* Get Start Tick*/
      tickstart = HAL_GetTick();
 8004ac0:	f7fe fae0 	bl	8003084 <HAL_GetTick>
 8004ac4:	6138      	str	r0, [r7, #16]

      /* Wait till LSE is disabled */
      while(READ_BIT(RCC->BDCR, RCC_BDCR_LSERDY) != 0U)
 8004ac6:	e00f      	b.n	8004ae8 <HAL_RCC_OscConfig+0x580>
      {
        if((HAL_GetTick() - tickstart) > RCC_LSE_TIMEOUT_VALUE)
 8004ac8:	f7fe fadc 	bl	8003084 <HAL_GetTick>
 8004acc:	4602      	mov	r2, r0
 8004ace:	693b      	ldr	r3, [r7, #16]
 8004ad0:	1ad3      	subs	r3, r2, r3
 8004ad2:	f241 3288 	movw	r2, #5000	; 0x1388
 8004ad6:	4293      	cmp	r3, r2
 8004ad8:	d906      	bls.n	8004ae8 <HAL_RCC_OscConfig+0x580>
        {
          return HAL_TIMEOUT;
 8004ada:	2303      	movs	r3, #3
 8004adc:	e122      	b.n	8004d24 <HAL_RCC_OscConfig+0x7bc>
 8004ade:	bf00      	nop
 8004ae0:	40021000 	.word	0x40021000
 8004ae4:	40007000 	.word	0x40007000
      while(READ_BIT(RCC->BDCR, RCC_BDCR_LSERDY) != 0U)
 8004ae8:	4b90      	ldr	r3, [pc, #576]	; (8004d2c <HAL_RCC_OscConfig+0x7c4>)
 8004aea:	f8d3 3090 	ldr.w	r3, [r3, #144]	; 0x90
 8004aee:	f003 0302 	and.w	r3, r3, #2
 8004af2:	2b00      	cmp	r3, #0
 8004af4:	d1e8      	bne.n	8004ac8 <HAL_RCC_OscConfig+0x560>
      CLEAR_BIT(RCC->BDCR, RCC_BDCR_LSESYSDIS);
#endif /* RCC_BDCR_LSESYSDIS */
    }

    /* Restore clock configuration if changed */
    if(pwrclkchanged == SET)
 8004af6:	7ffb      	ldrb	r3, [r7, #31]
 8004af8:	2b01      	cmp	r3, #1
 8004afa:	d105      	bne.n	8004b08 <HAL_RCC_OscConfig+0x5a0>
    {
      __HAL_RCC_PWR_CLK_DISABLE();
 8004afc:	4b8b      	ldr	r3, [pc, #556]	; (8004d2c <HAL_RCC_OscConfig+0x7c4>)
 8004afe:	6d9b      	ldr	r3, [r3, #88]	; 0x58
 8004b00:	4a8a      	ldr	r2, [pc, #552]	; (8004d2c <HAL_RCC_OscConfig+0x7c4>)
 8004b02:	f023 5380 	bic.w	r3, r3, #268435456	; 0x10000000
 8004b06:	6593      	str	r3, [r2, #88]	; 0x58
#endif /* RCC_HSI48_SUPPORT */
  /*-------------------------------- PLL Configuration -----------------------*/
  /* Check the parameters */
  assert_param(IS_RCC_PLL(RCC_OscInitStruct->PLL.PLLState));

  if(RCC_OscInitStruct->PLL.PLLState != RCC_PLL_NONE)
 8004b08:	687b      	ldr	r3, [r7, #4]
 8004b0a:	6a9b      	ldr	r3, [r3, #40]	; 0x28
 8004b0c:	2b00      	cmp	r3, #0
 8004b0e:	f000 8108 	beq.w	8004d22 <HAL_RCC_OscConfig+0x7ba>
  {
    /* PLL On ? */
    if(RCC_OscInitStruct->PLL.PLLState == RCC_PLL_ON)
 8004b12:	687b      	ldr	r3, [r7, #4]
 8004b14:	6a9b      	ldr	r3, [r3, #40]	; 0x28
 8004b16:	2b02      	cmp	r3, #2
 8004b18:	f040 80d0 	bne.w	8004cbc <HAL_RCC_OscConfig+0x754>
#endif /* RCC_PLLP_SUPPORT */
      assert_param(IS_RCC_PLLQ_VALUE(RCC_OscInitStruct->PLL.PLLQ));
      assert_param(IS_RCC_PLLR_VALUE(RCC_OscInitStruct->PLL.PLLR));

      /* Do nothing if PLL configuration is the unchanged */
      pll_config = RCC->PLLCFGR;
 8004b1c:	4b83      	ldr	r3, [pc, #524]	; (8004d2c <HAL_RCC_OscConfig+0x7c4>)
 8004b1e:	68db      	ldr	r3, [r3, #12]
 8004b20:	617b      	str	r3, [r7, #20]
      if((READ_BIT(pll_config, RCC_PLLCFGR_PLLSRC)  != RCC_OscInitStruct->PLL.PLLSource) ||
 8004b22:	697b      	ldr	r3, [r7, #20]
 8004b24:	f003 0203 	and.w	r2, r3, #3
 8004b28:	687b      	ldr	r3, [r7, #4]
 8004b2a:	6adb      	ldr	r3, [r3, #44]	; 0x2c
 8004b2c:	429a      	cmp	r2, r3
 8004b2e:	d130      	bne.n	8004b92 <HAL_RCC_OscConfig+0x62a>
         (READ_BIT(pll_config, RCC_PLLCFGR_PLLM)    != ((RCC_OscInitStruct->PLL.PLLM - 1U) << RCC_PLLCFGR_PLLM_Pos)) ||
 8004b30:	697b      	ldr	r3, [r7, #20]
 8004b32:	f003 0270 	and.w	r2, r3, #112	; 0x70
 8004b36:	687b      	ldr	r3, [r7, #4]
 8004b38:	6b1b      	ldr	r3, [r3, #48]	; 0x30
 8004b3a:	3b01      	subs	r3, #1
 8004b3c:	011b      	lsls	r3, r3, #4
      if((READ_BIT(pll_config, RCC_PLLCFGR_PLLSRC)  != RCC_OscInitStruct->PLL.PLLSource) ||
 8004b3e:	429a      	cmp	r2, r3
 8004b40:	d127      	bne.n	8004b92 <HAL_RCC_OscConfig+0x62a>
         (READ_BIT(pll_config, RCC_PLLCFGR_PLLN)    != (RCC_OscInitStruct->PLL.PLLN << RCC_PLLCFGR_PLLN_Pos)) ||
 8004b42:	697b      	ldr	r3, [r7, #20]
 8004b44:	f403 42fe 	and.w	r2, r3, #32512	; 0x7f00
 8004b48:	687b      	ldr	r3, [r7, #4]
 8004b4a:	6b5b      	ldr	r3, [r3, #52]	; 0x34
 8004b4c:	021b      	lsls	r3, r3, #8
         (READ_BIT(pll_config, RCC_PLLCFGR_PLLM)    != ((RCC_OscInitStruct->PLL.PLLM - 1U) << RCC_PLLCFGR_PLLM_Pos)) ||
 8004b4e:	429a      	cmp	r2, r3
 8004b50:	d11f      	bne.n	8004b92 <HAL_RCC_OscConfig+0x62a>
#if defined(RCC_PLLP_SUPPORT)
#if defined(RCC_PLLP_DIV_2_31_SUPPORT)
         (READ_BIT(pll_config, RCC_PLLCFGR_PLLPDIV) != (RCC_OscInitStruct->PLL.PLLP << RCC_PLLCFGR_PLLPDIV_Pos)) ||
#else
         (READ_BIT(pll_config, RCC_PLLCFGR_PLLP)    != ((RCC_OscInitStruct->PLL.PLLP == RCC_PLLP_DIV7) ? 0U : 1U)) ||
 8004b52:	697b      	ldr	r3, [r7, #20]
 8004b54:	f403 3300 	and.w	r3, r3, #131072	; 0x20000
 8004b58:	687a      	ldr	r2, [r7, #4]
 8004b5a:	6b92      	ldr	r2, [r2, #56]	; 0x38
 8004b5c:	2a07      	cmp	r2, #7
 8004b5e:	bf14      	ite	ne
 8004b60:	2201      	movne	r2, #1
 8004b62:	2200      	moveq	r2, #0
 8004b64:	b2d2      	uxtb	r2, r2
         (READ_BIT(pll_config, RCC_PLLCFGR_PLLN)    != (RCC_OscInitStruct->PLL.PLLN << RCC_PLLCFGR_PLLN_Pos)) ||
 8004b66:	4293      	cmp	r3, r2
 8004b68:	d113      	bne.n	8004b92 <HAL_RCC_OscConfig+0x62a>
#endif
#endif
         (READ_BIT(pll_config, RCC_PLLCFGR_PLLQ)    != ((((RCC_OscInitStruct->PLL.PLLQ) >> 1U) - 1U) << RCC_PLLCFGR_PLLQ_Pos)) ||
 8004b6a:	697b      	ldr	r3, [r7, #20]
 8004b6c:	f403 02c0 	and.w	r2, r3, #6291456	; 0x600000
 8004b70:	687b      	ldr	r3, [r7, #4]
 8004b72:	6bdb      	ldr	r3, [r3, #60]	; 0x3c
 8004b74:	085b      	lsrs	r3, r3, #1
 8004b76:	3b01      	subs	r3, #1
 8004b78:	055b      	lsls	r3, r3, #21
         (READ_BIT(pll_config, RCC_PLLCFGR_PLLP)    != ((RCC_OscInitStruct->PLL.PLLP == RCC_PLLP_DIV7) ? 0U : 1U)) ||
 8004b7a:	429a      	cmp	r2, r3
 8004b7c:	d109      	bne.n	8004b92 <HAL_RCC_OscConfig+0x62a>
         (READ_BIT(pll_config, RCC_PLLCFGR_PLLR)    != ((((RCC_OscInitStruct->PLL.PLLR) >> 1U) - 1U) << RCC_PLLCFGR_PLLR_Pos)))
 8004b7e:	697b      	ldr	r3, [r7, #20]
 8004b80:	f003 62c0 	and.w	r2, r3, #100663296	; 0x6000000
 8004b84:	687b      	ldr	r3, [r7, #4]
 8004b86:	6c1b      	ldr	r3, [r3, #64]	; 0x40
 8004b88:	085b      	lsrs	r3, r3, #1
 8004b8a:	3b01      	subs	r3, #1
 8004b8c:	065b      	lsls	r3, r3, #25
         (READ_BIT(pll_config, RCC_PLLCFGR_PLLQ)    != ((((RCC_OscInitStruct->PLL.PLLQ) >> 1U) - 1U) << RCC_PLLCFGR_PLLQ_Pos)) ||
 8004b8e:	429a      	cmp	r2, r3
 8004b90:	d06e      	beq.n	8004c70 <HAL_RCC_OscConfig+0x708>
      {
        /* Check if the PLL is used as system clock or not */
        if(sysclk_source != RCC_CFGR_SWS_PLL)
 8004b92:	69bb      	ldr	r3, [r7, #24]
 8004b94:	2b0c      	cmp	r3, #12
 8004b96:	d069      	beq.n	8004c6c <HAL_RCC_OscConfig+0x704>
        {
#if defined(RCC_PLLSAI1_SUPPORT) || defined(RCC_PLLSAI2_SUPPORT)
          /* Check if main PLL can be updated */
          /* Not possible if the source is shared by other enabled PLLSAIx */
          if((READ_BIT(RCC->CR, RCC_CR_PLLSAI1ON) != 0U)
 8004b98:	4b64      	ldr	r3, [pc, #400]	; (8004d2c <HAL_RCC_OscConfig+0x7c4>)
 8004b9a:	681b      	ldr	r3, [r3, #0]
 8004b9c:	f003 6380 	and.w	r3, r3, #67108864	; 0x4000000
 8004ba0:	2b00      	cmp	r3, #0
 8004ba2:	d105      	bne.n	8004bb0 <HAL_RCC_OscConfig+0x648>
#if defined(RCC_PLLSAI2_SUPPORT)
             || (READ_BIT(RCC->CR, RCC_CR_PLLSAI2ON) != 0U)
 8004ba4:	4b61      	ldr	r3, [pc, #388]	; (8004d2c <HAL_RCC_OscConfig+0x7c4>)
 8004ba6:	681b      	ldr	r3, [r3, #0]
 8004ba8:	f003 5380 	and.w	r3, r3, #268435456	; 0x10000000
 8004bac:	2b00      	cmp	r3, #0
 8004bae:	d001      	beq.n	8004bb4 <HAL_RCC_OscConfig+0x64c>
#endif
            )
          {
            return HAL_ERROR;
 8004bb0:	2301      	movs	r3, #1
 8004bb2:	e0b7      	b.n	8004d24 <HAL_RCC_OscConfig+0x7bc>
          }
          else
#endif /* RCC_PLLSAI1_SUPPORT || RCC_PLLSAI2_SUPPORT */
          {
            /* Disable the main PLL. */
            __HAL_RCC_PLL_DISABLE();
 8004bb4:	4b5d      	ldr	r3, [pc, #372]	; (8004d2c <HAL_RCC_OscConfig+0x7c4>)
 8004bb6:	681b      	ldr	r3, [r3, #0]
 8004bb8:	4a5c      	ldr	r2, [pc, #368]	; (8004d2c <HAL_RCC_OscConfig+0x7c4>)
 8004bba:	f023 7380 	bic.w	r3, r3, #16777216	; 0x1000000
 8004bbe:	6013      	str	r3, [r2, #0]

            /* Get Start Tick*/
            tickstart = HAL_GetTick();
 8004bc0:	f7fe fa60 	bl	8003084 <HAL_GetTick>
 8004bc4:	6138      	str	r0, [r7, #16]

            /* Wait till PLL is ready */
            while(READ_BIT(RCC->CR, RCC_CR_PLLRDY) != 0U)
 8004bc6:	e008      	b.n	8004bda <HAL_RCC_OscConfig+0x672>
            {
              if((HAL_GetTick() - tickstart) > PLL_TIMEOUT_VALUE)
 8004bc8:	f7fe fa5c 	bl	8003084 <HAL_GetTick>
 8004bcc:	4602      	mov	r2, r0
 8004bce:	693b      	ldr	r3, [r7, #16]
 8004bd0:	1ad3      	subs	r3, r2, r3
 8004bd2:	2b02      	cmp	r3, #2
 8004bd4:	d901      	bls.n	8004bda <HAL_RCC_OscConfig+0x672>
              {
                return HAL_TIMEOUT;
 8004bd6:	2303      	movs	r3, #3
 8004bd8:	e0a4      	b.n	8004d24 <HAL_RCC_OscConfig+0x7bc>
            while(READ_BIT(RCC->CR, RCC_CR_PLLRDY) != 0U)
 8004bda:	4b54      	ldr	r3, [pc, #336]	; (8004d2c <HAL_RCC_OscConfig+0x7c4>)
 8004bdc:	681b      	ldr	r3, [r3, #0]
 8004bde:	f003 7300 	and.w	r3, r3, #33554432	; 0x2000000
 8004be2:	2b00      	cmp	r3, #0
 8004be4:	d1f0      	bne.n	8004bc8 <HAL_RCC_OscConfig+0x660>
              }
            }

            /* Configure the main PLL clock source, multiplication and division factors. */
            __HAL_RCC_PLL_CONFIG(RCC_OscInitStruct->PLL.PLLSource,
 8004be6:	4b51      	ldr	r3, [pc, #324]	; (8004d2c <HAL_RCC_OscConfig+0x7c4>)
 8004be8:	68da      	ldr	r2, [r3, #12]
 8004bea:	4b51      	ldr	r3, [pc, #324]	; (8004d30 <HAL_RCC_OscConfig+0x7c8>)
 8004bec:	4013      	ands	r3, r2
 8004bee:	687a      	ldr	r2, [r7, #4]
 8004bf0:	6ad1      	ldr	r1, [r2, #44]	; 0x2c
 8004bf2:	687a      	ldr	r2, [r7, #4]
 8004bf4:	6b12      	ldr	r2, [r2, #48]	; 0x30
 8004bf6:	3a01      	subs	r2, #1
 8004bf8:	0112      	lsls	r2, r2, #4
 8004bfa:	4311      	orrs	r1, r2
 8004bfc:	687a      	ldr	r2, [r7, #4]
 8004bfe:	6b52      	ldr	r2, [r2, #52]	; 0x34
 8004c00:	0212      	lsls	r2, r2, #8
 8004c02:	4311      	orrs	r1, r2
 8004c04:	687a      	ldr	r2, [r7, #4]
 8004c06:	6bd2      	ldr	r2, [r2, #60]	; 0x3c
 8004c08:	0852      	lsrs	r2, r2, #1
 8004c0a:	3a01      	subs	r2, #1
 8004c0c:	0552      	lsls	r2, r2, #21
 8004c0e:	4311      	orrs	r1, r2
 8004c10:	687a      	ldr	r2, [r7, #4]
 8004c12:	6c12      	ldr	r2, [r2, #64]	; 0x40
 8004c14:	0852      	lsrs	r2, r2, #1
 8004c16:	3a01      	subs	r2, #1
 8004c18:	0652      	lsls	r2, r2, #25
 8004c1a:	4311      	orrs	r1, r2
 8004c1c:	687a      	ldr	r2, [r7, #4]
 8004c1e:	6b92      	ldr	r2, [r2, #56]	; 0x38
 8004c20:	0912      	lsrs	r2, r2, #4
 8004c22:	0452      	lsls	r2, r2, #17
 8004c24:	430a      	orrs	r2, r1
 8004c26:	4941      	ldr	r1, [pc, #260]	; (8004d2c <HAL_RCC_OscConfig+0x7c4>)
 8004c28:	4313      	orrs	r3, r2
 8004c2a:	60cb      	str	r3, [r1, #12]
#endif
                                 RCC_OscInitStruct->PLL.PLLQ,
                                 RCC_OscInitStruct->PLL.PLLR);

            /* Enable the main PLL. */
            __HAL_RCC_PLL_ENABLE();
 8004c2c:	4b3f      	ldr	r3, [pc, #252]	; (8004d2c <HAL_RCC_OscConfig+0x7c4>)
 8004c2e:	681b      	ldr	r3, [r3, #0]
 8004c30:	4a3e      	ldr	r2, [pc, #248]	; (8004d2c <HAL_RCC_OscConfig+0x7c4>)
 8004c32:	f043 7380 	orr.w	r3, r3, #16777216	; 0x1000000
 8004c36:	6013      	str	r3, [r2, #0]

            /* Enable PLL System Clock output. */
            __HAL_RCC_PLLCLKOUT_ENABLE(RCC_PLL_SYSCLK);
 8004c38:	4b3c      	ldr	r3, [pc, #240]	; (8004d2c <HAL_RCC_OscConfig+0x7c4>)
 8004c3a:	68db      	ldr	r3, [r3, #12]
 8004c3c:	4a3b      	ldr	r2, [pc, #236]	; (8004d2c <HAL_RCC_OscConfig+0x7c4>)
 8004c3e:	f043 7380 	orr.w	r3, r3, #16777216	; 0x1000000
 8004c42:	60d3      	str	r3, [r2, #12]

            /* Get Start Tick*/
            tickstart = HAL_GetTick();
 8004c44:	f7fe fa1e 	bl	8003084 <HAL_GetTick>
 8004c48:	6138      	str	r0, [r7, #16]

            /* Wait till PLL is ready */
            while(READ_BIT(RCC->CR, RCC_CR_PLLRDY) == 0U)
 8004c4a:	e008      	b.n	8004c5e <HAL_RCC_OscConfig+0x6f6>
            {
              if((HAL_GetTick() - tickstart) > PLL_TIMEOUT_VALUE)
 8004c4c:	f7fe fa1a 	bl	8003084 <HAL_GetTick>
 8004c50:	4602      	mov	r2, r0
 8004c52:	693b      	ldr	r3, [r7, #16]
 8004c54:	1ad3      	subs	r3, r2, r3
 8004c56:	2b02      	cmp	r3, #2
 8004c58:	d901      	bls.n	8004c5e <HAL_RCC_OscConfig+0x6f6>
              {
                return HAL_TIMEOUT;
 8004c5a:	2303      	movs	r3, #3
 8004c5c:	e062      	b.n	8004d24 <HAL_RCC_OscConfig+0x7bc>
            while(READ_BIT(RCC->CR, RCC_CR_PLLRDY) == 0U)
 8004c5e:	4b33      	ldr	r3, [pc, #204]	; (8004d2c <HAL_RCC_OscConfig+0x7c4>)
 8004c60:	681b      	ldr	r3, [r3, #0]
 8004c62:	f003 7300 	and.w	r3, r3, #33554432	; 0x2000000
 8004c66:	2b00      	cmp	r3, #0
 8004c68:	d0f0      	beq.n	8004c4c <HAL_RCC_OscConfig+0x6e4>
        if(sysclk_source != RCC_CFGR_SWS_PLL)
 8004c6a:	e05a      	b.n	8004d22 <HAL_RCC_OscConfig+0x7ba>
          }
        }
        else
        {
          /* PLL is already used as System core clock */
          return HAL_ERROR;
 8004c6c:	2301      	movs	r3, #1
 8004c6e:	e059      	b.n	8004d24 <HAL_RCC_OscConfig+0x7bc>
      }
      else
      {
        /* PLL configuration is unchanged */
        /* Re-enable PLL if it was disabled (ie. low power mode) */
        if(READ_BIT(RCC->CR, RCC_CR_PLLRDY) == 0U)
 8004c70:	4b2e      	ldr	r3, [pc, #184]	; (8004d2c <HAL_RCC_OscConfig+0x7c4>)
 8004c72:	681b      	ldr	r3, [r3, #0]
 8004c74:	f003 7300 	and.w	r3, r3, #33554432	; 0x2000000
 8004c78:	2b00      	cmp	r3, #0
 8004c7a:	d152      	bne.n	8004d22 <HAL_RCC_OscConfig+0x7ba>
        {
          /* Enable the main PLL. */
          __HAL_RCC_PLL_ENABLE();
 8004c7c:	4b2b      	ldr	r3, [pc, #172]	; (8004d2c <HAL_RCC_OscConfig+0x7c4>)
 8004c7e:	681b      	ldr	r3, [r3, #0]
 8004c80:	4a2a      	ldr	r2, [pc, #168]	; (8004d2c <HAL_RCC_OscConfig+0x7c4>)
 8004c82:	f043 7380 	orr.w	r3, r3, #16777216	; 0x1000000
 8004c86:	6013      	str	r3, [r2, #0]

          /* Enable PLL System Clock output. */
          __HAL_RCC_PLLCLKOUT_ENABLE(RCC_PLL_SYSCLK);
 8004c88:	4b28      	ldr	r3, [pc, #160]	; (8004d2c <HAL_RCC_OscConfig+0x7c4>)
 8004c8a:	68db      	ldr	r3, [r3, #12]
 8004c8c:	4a27      	ldr	r2, [pc, #156]	; (8004d2c <HAL_RCC_OscConfig+0x7c4>)
 8004c8e:	f043 7380 	orr.w	r3, r3, #16777216	; 0x1000000
 8004c92:	60d3      	str	r3, [r2, #12]

          /* Get Start Tick*/
          tickstart = HAL_GetTick();
 8004c94:	f7fe f9f6 	bl	8003084 <HAL_GetTick>
 8004c98:	6138      	str	r0, [r7, #16]

          /* Wait till PLL is ready */
          while(READ_BIT(RCC->CR, RCC_CR_PLLRDY) == 0U)
 8004c9a:	e008      	b.n	8004cae <HAL_RCC_OscConfig+0x746>
          {
            if((HAL_GetTick() - tickstart) > PLL_TIMEOUT_VALUE)
 8004c9c:	f7fe f9f2 	bl	8003084 <HAL_GetTick>
 8004ca0:	4602      	mov	r2, r0
 8004ca2:	693b      	ldr	r3, [r7, #16]
 8004ca4:	1ad3      	subs	r3, r2, r3
 8004ca6:	2b02      	cmp	r3, #2
 8004ca8:	d901      	bls.n	8004cae <HAL_RCC_OscConfig+0x746>
            {
              return HAL_TIMEOUT;
 8004caa:	2303      	movs	r3, #3
 8004cac:	e03a      	b.n	8004d24 <HAL_RCC_OscConfig+0x7bc>
          while(READ_BIT(RCC->CR, RCC_CR_PLLRDY) == 0U)
 8004cae:	4b1f      	ldr	r3, [pc, #124]	; (8004d2c <HAL_RCC_OscConfig+0x7c4>)
 8004cb0:	681b      	ldr	r3, [r3, #0]
 8004cb2:	f003 7300 	and.w	r3, r3, #33554432	; 0x2000000
 8004cb6:	2b00      	cmp	r3, #0
 8004cb8:	d0f0      	beq.n	8004c9c <HAL_RCC_OscConfig+0x734>
 8004cba:	e032      	b.n	8004d22 <HAL_RCC_OscConfig+0x7ba>
      }
    }
    else
    {
      /* Check that PLL is not used as system clock or not */
      if(sysclk_source != RCC_CFGR_SWS_PLL)
 8004cbc:	69bb      	ldr	r3, [r7, #24]
 8004cbe:	2b0c      	cmp	r3, #12
 8004cc0:	d02d      	beq.n	8004d1e <HAL_RCC_OscConfig+0x7b6>
      {
        /* Disable the main PLL. */
        __HAL_RCC_PLL_DISABLE();
 8004cc2:	4b1a      	ldr	r3, [pc, #104]	; (8004d2c <HAL_RCC_OscConfig+0x7c4>)
 8004cc4:	681b      	ldr	r3, [r3, #0]
 8004cc6:	4a19      	ldr	r2, [pc, #100]	; (8004d2c <HAL_RCC_OscConfig+0x7c4>)
 8004cc8:	f023 7380 	bic.w	r3, r3, #16777216	; 0x1000000
 8004ccc:	6013      	str	r3, [r2, #0]

        /* Disable all PLL outputs to save power if no PLLs on */
#if defined(RCC_PLLSAI1_SUPPORT) && defined(RCC_CR_PLLSAI2RDY)
        if(READ_BIT(RCC->CR, (RCC_CR_PLLSAI1RDY | RCC_CR_PLLSAI2RDY)) == 0U)
 8004cce:	4b17      	ldr	r3, [pc, #92]	; (8004d2c <HAL_RCC_OscConfig+0x7c4>)
 8004cd0:	681b      	ldr	r3, [r3, #0]
 8004cd2:	f003 5320 	and.w	r3, r3, #671088640	; 0x28000000
 8004cd6:	2b00      	cmp	r3, #0
 8004cd8:	d105      	bne.n	8004ce6 <HAL_RCC_OscConfig+0x77e>
        {
          MODIFY_REG(RCC->PLLCFGR, RCC_PLLCFGR_PLLSRC, RCC_PLLSOURCE_NONE);
 8004cda:	4b14      	ldr	r3, [pc, #80]	; (8004d2c <HAL_RCC_OscConfig+0x7c4>)
 8004cdc:	68db      	ldr	r3, [r3, #12]
 8004cde:	4a13      	ldr	r2, [pc, #76]	; (8004d2c <HAL_RCC_OscConfig+0x7c4>)
 8004ce0:	f023 0303 	bic.w	r3, r3, #3
 8004ce4:	60d3      	str	r3, [r2, #12]
#else
        MODIFY_REG(RCC->PLLCFGR, RCC_PLLCFGR_PLLSRC, RCC_PLLSOURCE_NONE);
#endif /* RCC_PLLSAI1_SUPPORT && RCC_CR_PLLSAI2RDY */

#if defined(RCC_PLLSAI2_SUPPORT)
        __HAL_RCC_PLLCLKOUT_DISABLE(RCC_PLL_SYSCLK | RCC_PLL_48M1CLK | RCC_PLL_SAI3CLK);
 8004ce6:	4b11      	ldr	r3, [pc, #68]	; (8004d2c <HAL_RCC_OscConfig+0x7c4>)
 8004ce8:	68db      	ldr	r3, [r3, #12]
 8004cea:	4a10      	ldr	r2, [pc, #64]	; (8004d2c <HAL_RCC_OscConfig+0x7c4>)
 8004cec:	f023 7388 	bic.w	r3, r3, #17825792	; 0x1100000
 8004cf0:	f423 3380 	bic.w	r3, r3, #65536	; 0x10000
 8004cf4:	60d3      	str	r3, [r2, #12]
#else
        __HAL_RCC_PLLCLKOUT_DISABLE(RCC_PLL_SYSCLK | RCC_PLL_48M1CLK);
#endif /* RCC_PLLSAI2_SUPPORT */

        /* Get Start Tick*/
        tickstart = HAL_GetTick();
 8004cf6:	f7fe f9c5 	bl	8003084 <HAL_GetTick>
 8004cfa:	6138      	str	r0, [r7, #16]

        /* Wait till PLL is disabled */
        while(READ_BIT(RCC->CR, RCC_CR_PLLRDY) != 0U)
 8004cfc:	e008      	b.n	8004d10 <HAL_RCC_OscConfig+0x7a8>
        {
          if((HAL_GetTick() - tickstart) > PLL_TIMEOUT_VALUE)
 8004cfe:	f7fe f9c1 	bl	8003084 <HAL_GetTick>
 8004d02:	4602      	mov	r2, r0
 8004d04:	693b      	ldr	r3, [r7, #16]
 8004d06:	1ad3      	subs	r3, r2, r3
 8004d08:	2b02      	cmp	r3, #2
 8004d0a:	d901      	bls.n	8004d10 <HAL_RCC_OscConfig+0x7a8>
          {
            return HAL_TIMEOUT;
 8004d0c:	2303      	movs	r3, #3
 8004d0e:	e009      	b.n	8004d24 <HAL_RCC_OscConfig+0x7bc>
        while(READ_BIT(RCC->CR, RCC_CR_PLLRDY) != 0U)
 8004d10:	4b06      	ldr	r3, [pc, #24]	; (8004d2c <HAL_RCC_OscConfig+0x7c4>)
 8004d12:	681b      	ldr	r3, [r3, #0]
 8004d14:	f003 7300 	and.w	r3, r3, #33554432	; 0x2000000
 8004d18:	2b00      	cmp	r3, #0
 8004d1a:	d1f0      	bne.n	8004cfe <HAL_RCC_OscConfig+0x796>
 8004d1c:	e001      	b.n	8004d22 <HAL_RCC_OscConfig+0x7ba>
        }
      }
      else
      {
        /* PLL is already used as System core clock */
        return HAL_ERROR;
 8004d1e:	2301      	movs	r3, #1
 8004d20:	e000      	b.n	8004d24 <HAL_RCC_OscConfig+0x7bc>
      }
    }
  }
  return HAL_OK;
 8004d22:	2300      	movs	r3, #0
}
 8004d24:	4618      	mov	r0, r3
 8004d26:	3720      	adds	r7, #32
 8004d28:	46bd      	mov	sp, r7
 8004d2a:	bd80      	pop	{r7, pc}
 8004d2c:	40021000 	.word	0x40021000
 8004d30:	f99d808c 	.word	0xf99d808c

08004d34 <HAL_RCC_ClockConfig>:
  *         HPRE[3:0] bits to ensure that HCLK not exceed the maximum allowed frequency
  *         (for more details refer to section above "Initialization/de-initialization functions")
  * @retval None
  */
HAL_StatusTypeDef HAL_RCC_ClockConfig(RCC_ClkInitTypeDef  *RCC_ClkInitStruct, uint32_t FLatency)
{
 8004d34:	b580      	push	{r7, lr}
 8004d36:	b084      	sub	sp, #16
 8004d38:	af00      	add	r7, sp, #0
 8004d3a:	6078      	str	r0, [r7, #4]
 8004d3c:	6039      	str	r1, [r7, #0]
  uint32_t hpre = RCC_SYSCLK_DIV1;
#endif
  HAL_StatusTypeDef status;

  /* Check Null pointer */
  if(RCC_ClkInitStruct == NULL)
 8004d3e:	687b      	ldr	r3, [r7, #4]
 8004d40:	2b00      	cmp	r3, #0
 8004d42:	d101      	bne.n	8004d48 <HAL_RCC_ClockConfig+0x14>
  {
    return HAL_ERROR;
 8004d44:	2301      	movs	r3, #1
 8004d46:	e0c8      	b.n	8004eda <HAL_RCC_ClockConfig+0x1a6>
  /* To correctly read data from FLASH memory, the number of wait states (LATENCY)
    must be correctly programmed according to the frequency of the CPU clock
    (HCLK) and the supply voltage of the device. */

  /* Increasing the number of wait states because of higher CPU frequency */
  if(FLatency > __HAL_FLASH_GET_LATENCY())
 8004d48:	4b66      	ldr	r3, [pc, #408]	; (8004ee4 <HAL_RCC_ClockConfig+0x1b0>)
 8004d4a:	681b      	ldr	r3, [r3, #0]
 8004d4c:	f003 0307 	and.w	r3, r3, #7
 8004d50:	683a      	ldr	r2, [r7, #0]
 8004d52:	429a      	cmp	r2, r3
 8004d54:	d910      	bls.n	8004d78 <HAL_RCC_ClockConfig+0x44>
  {
    /* Program the new number of wait states to the LATENCY bits in the FLASH_ACR register */
    __HAL_FLASH_SET_LATENCY(FLatency);
 8004d56:	4b63      	ldr	r3, [pc, #396]	; (8004ee4 <HAL_RCC_ClockConfig+0x1b0>)
 8004d58:	681b      	ldr	r3, [r3, #0]
 8004d5a:	f023 0207 	bic.w	r2, r3, #7
 8004d5e:	4961      	ldr	r1, [pc, #388]	; (8004ee4 <HAL_RCC_ClockConfig+0x1b0>)
 8004d60:	683b      	ldr	r3, [r7, #0]
 8004d62:	4313      	orrs	r3, r2
 8004d64:	600b      	str	r3, [r1, #0]

    /* Check that the new number of wait states is taken into account to access the Flash
    memory by reading the FLASH_ACR register */
    if(__HAL_FLASH_GET_LATENCY() != FLatency)
 8004d66:	4b5f      	ldr	r3, [pc, #380]	; (8004ee4 <HAL_RCC_ClockConfig+0x1b0>)
 8004d68:	681b      	ldr	r3, [r3, #0]
 8004d6a:	f003 0307 	and.w	r3, r3, #7
 8004d6e:	683a      	ldr	r2, [r7, #0]
 8004d70:	429a      	cmp	r2, r3
 8004d72:	d001      	beq.n	8004d78 <HAL_RCC_ClockConfig+0x44>
    {
      return HAL_ERROR;
 8004d74:	2301      	movs	r3, #1
 8004d76:	e0b0      	b.n	8004eda <HAL_RCC_ClockConfig+0x1a6>
    }
  }

  /*------------------------- SYSCLK Configuration ---------------------------*/
  if(((RCC_ClkInitStruct->ClockType) & RCC_CLOCKTYPE_SYSCLK) == RCC_CLOCKTYPE_SYSCLK)
 8004d78:	687b      	ldr	r3, [r7, #4]
 8004d7a:	681b      	ldr	r3, [r3, #0]
 8004d7c:	f003 0301 	and.w	r3, r3, #1
 8004d80:	2b00      	cmp	r3, #0
 8004d82:	d04c      	beq.n	8004e1e <HAL_RCC_ClockConfig+0xea>
  {
    assert_param(IS_RCC_SYSCLKSOURCE(RCC_ClkInitStruct->SYSCLKSource));

    /* PLL is selected as System Clock Source */
    if(RCC_ClkInitStruct->SYSCLKSource == RCC_SYSCLKSOURCE_PLLCLK)
 8004d84:	687b      	ldr	r3, [r7, #4]
 8004d86:	685b      	ldr	r3, [r3, #4]
 8004d88:	2b03      	cmp	r3, #3
 8004d8a:	d107      	bne.n	8004d9c <HAL_RCC_ClockConfig+0x68>
    {
      /* Check the PLL ready flag */
      if(READ_BIT(RCC->CR, RCC_CR_PLLRDY) == 0U)
 8004d8c:	4b56      	ldr	r3, [pc, #344]	; (8004ee8 <HAL_RCC_ClockConfig+0x1b4>)
 8004d8e:	681b      	ldr	r3, [r3, #0]
 8004d90:	f003 7300 	and.w	r3, r3, #33554432	; 0x2000000
 8004d94:	2b00      	cmp	r3, #0
 8004d96:	d121      	bne.n	8004ddc <HAL_RCC_ClockConfig+0xa8>
      {
        return HAL_ERROR;
 8004d98:	2301      	movs	r3, #1
 8004d9a:	e09e      	b.n	8004eda <HAL_RCC_ClockConfig+0x1a6>
#endif
    }
    else
    {
      /* HSE is selected as System Clock Source */
      if(RCC_ClkInitStruct->SYSCLKSource == RCC_SYSCLKSOURCE_HSE)
 8004d9c:	687b      	ldr	r3, [r7, #4]
 8004d9e:	685b      	ldr	r3, [r3, #4]
 8004da0:	2b02      	cmp	r3, #2
 8004da2:	d107      	bne.n	8004db4 <HAL_RCC_ClockConfig+0x80>
      {
        /* Check the HSE ready flag */
        if(READ_BIT(RCC->CR, RCC_CR_HSERDY) == 0U)
 8004da4:	4b50      	ldr	r3, [pc, #320]	; (8004ee8 <HAL_RCC_ClockConfig+0x1b4>)
 8004da6:	681b      	ldr	r3, [r3, #0]
 8004da8:	f403 3300 	and.w	r3, r3, #131072	; 0x20000
 8004dac:	2b00      	cmp	r3, #0
 8004dae:	d115      	bne.n	8004ddc <HAL_RCC_ClockConfig+0xa8>
        {
          return HAL_ERROR;
 8004db0:	2301      	movs	r3, #1
 8004db2:	e092      	b.n	8004eda <HAL_RCC_ClockConfig+0x1a6>
        }
      }
      /* MSI is selected as System Clock Source */
      else if(RCC_ClkInitStruct->SYSCLKSource == RCC_SYSCLKSOURCE_MSI)
 8004db4:	687b      	ldr	r3, [r7, #4]
 8004db6:	685b      	ldr	r3, [r3, #4]
 8004db8:	2b00      	cmp	r3, #0
 8004dba:	d107      	bne.n	8004dcc <HAL_RCC_ClockConfig+0x98>
      {
        /* Check the MSI ready flag */
        if(READ_BIT(RCC->CR, RCC_CR_MSIRDY) == 0U)
 8004dbc:	4b4a      	ldr	r3, [pc, #296]	; (8004ee8 <HAL_RCC_ClockConfig+0x1b4>)
 8004dbe:	681b      	ldr	r3, [r3, #0]
 8004dc0:	f003 0302 	and.w	r3, r3, #2
 8004dc4:	2b00      	cmp	r3, #0
 8004dc6:	d109      	bne.n	8004ddc <HAL_RCC_ClockConfig+0xa8>
        {
          return HAL_ERROR;
 8004dc8:	2301      	movs	r3, #1
 8004dca:	e086      	b.n	8004eda <HAL_RCC_ClockConfig+0x1a6>
      }
      /* HSI is selected as System Clock Source */
      else
      {
        /* Check the HSI ready flag */
        if(READ_BIT(RCC->CR, RCC_CR_HSIRDY) == 0U)
 8004dcc:	4b46      	ldr	r3, [pc, #280]	; (8004ee8 <HAL_RCC_ClockConfig+0x1b4>)
 8004dce:	681b      	ldr	r3, [r3, #0]
 8004dd0:	f403 6380 	and.w	r3, r3, #1024	; 0x400
 8004dd4:	2b00      	cmp	r3, #0
 8004dd6:	d101      	bne.n	8004ddc <HAL_RCC_ClockConfig+0xa8>
        {
          return HAL_ERROR;
 8004dd8:	2301      	movs	r3, #1
 8004dda:	e07e      	b.n	8004eda <HAL_RCC_ClockConfig+0x1a6>
      }
#endif

    }

    MODIFY_REG(RCC->CFGR, RCC_CFGR_SW, RCC_ClkInitStruct->SYSCLKSource);
 8004ddc:	4b42      	ldr	r3, [pc, #264]	; (8004ee8 <HAL_RCC_ClockConfig+0x1b4>)
 8004dde:	689b      	ldr	r3, [r3, #8]
 8004de0:	f023 0203 	bic.w	r2, r3, #3
 8004de4:	687b      	ldr	r3, [r7, #4]
 8004de6:	685b      	ldr	r3, [r3, #4]
 8004de8:	493f      	ldr	r1, [pc, #252]	; (8004ee8 <HAL_RCC_ClockConfig+0x1b4>)
 8004dea:	4313      	orrs	r3, r2
 8004dec:	608b      	str	r3, [r1, #8]

    /* Get Start Tick*/
    tickstart = HAL_GetTick();
 8004dee:	f7fe f949 	bl	8003084 <HAL_GetTick>
 8004df2:	60f8      	str	r0, [r7, #12]

    while(__HAL_RCC_GET_SYSCLK_SOURCE() != (RCC_ClkInitStruct->SYSCLKSource << RCC_CFGR_SWS_Pos))
 8004df4:	e00a      	b.n	8004e0c <HAL_RCC_ClockConfig+0xd8>
    {
      if((HAL_GetTick() - tickstart) > CLOCKSWITCH_TIMEOUT_VALUE)
 8004df6:	f7fe f945 	bl	8003084 <HAL_GetTick>
 8004dfa:	4602      	mov	r2, r0
 8004dfc:	68fb      	ldr	r3, [r7, #12]
 8004dfe:	1ad3      	subs	r3, r2, r3
 8004e00:	f241 3288 	movw	r2, #5000	; 0x1388
 8004e04:	4293      	cmp	r3, r2
 8004e06:	d901      	bls.n	8004e0c <HAL_RCC_ClockConfig+0xd8>
      {
        return HAL_TIMEOUT;
 8004e08:	2303      	movs	r3, #3
 8004e0a:	e066      	b.n	8004eda <HAL_RCC_ClockConfig+0x1a6>
    while(__HAL_RCC_GET_SYSCLK_SOURCE() != (RCC_ClkInitStruct->SYSCLKSource << RCC_CFGR_SWS_Pos))
 8004e0c:	4b36      	ldr	r3, [pc, #216]	; (8004ee8 <HAL_RCC_ClockConfig+0x1b4>)
 8004e0e:	689b      	ldr	r3, [r3, #8]
 8004e10:	f003 020c 	and.w	r2, r3, #12
 8004e14:	687b      	ldr	r3, [r7, #4]
 8004e16:	685b      	ldr	r3, [r3, #4]
 8004e18:	009b      	lsls	r3, r3, #2
 8004e1a:	429a      	cmp	r2, r3
 8004e1c:	d1eb      	bne.n	8004df6 <HAL_RCC_ClockConfig+0xc2>
      }
    }
  }

  /*-------------------------- HCLK Configuration --------------------------*/
  if(((RCC_ClkInitStruct->ClockType) & RCC_CLOCKTYPE_HCLK) == RCC_CLOCKTYPE_HCLK)
 8004e1e:	687b      	ldr	r3, [r7, #4]
 8004e20:	681b      	ldr	r3, [r3, #0]
 8004e22:	f003 0302 	and.w	r3, r3, #2
 8004e26:	2b00      	cmp	r3, #0
 8004e28:	d008      	beq.n	8004e3c <HAL_RCC_ClockConfig+0x108>
  {
    assert_param(IS_RCC_HCLK(RCC_ClkInitStruct->AHBCLKDivider));
    MODIFY_REG(RCC->CFGR, RCC_CFGR_HPRE, RCC_ClkInitStruct->AHBCLKDivider);
 8004e2a:	4b2f      	ldr	r3, [pc, #188]	; (8004ee8 <HAL_RCC_ClockConfig+0x1b4>)
 8004e2c:	689b      	ldr	r3, [r3, #8]
 8004e2e:	f023 02f0 	bic.w	r2, r3, #240	; 0xf0
 8004e32:	687b      	ldr	r3, [r7, #4]
 8004e34:	689b      	ldr	r3, [r3, #8]
 8004e36:	492c      	ldr	r1, [pc, #176]	; (8004ee8 <HAL_RCC_ClockConfig+0x1b4>)
 8004e38:	4313      	orrs	r3, r2
 8004e3a:	608b      	str	r3, [r1, #8]
    }
  }
#endif

  /* Decreasing the number of wait states because of lower CPU frequency */
  if(FLatency < __HAL_FLASH_GET_LATENCY())
 8004e3c:	4b29      	ldr	r3, [pc, #164]	; (8004ee4 <HAL_RCC_ClockConfig+0x1b0>)
 8004e3e:	681b      	ldr	r3, [r3, #0]
 8004e40:	f003 0307 	and.w	r3, r3, #7
 8004e44:	683a      	ldr	r2, [r7, #0]
 8004e46:	429a      	cmp	r2, r3
 8004e48:	d210      	bcs.n	8004e6c <HAL_RCC_ClockConfig+0x138>
  {
    /* Program the new number of wait states to the LATENCY bits in the FLASH_ACR register */
    __HAL_FLASH_SET_LATENCY(FLatency);
 8004e4a:	4b26      	ldr	r3, [pc, #152]	; (8004ee4 <HAL_RCC_ClockConfig+0x1b0>)
 8004e4c:	681b      	ldr	r3, [r3, #0]
 8004e4e:	f023 0207 	bic.w	r2, r3, #7
 8004e52:	4924      	ldr	r1, [pc, #144]	; (8004ee4 <HAL_RCC_ClockConfig+0x1b0>)
 8004e54:	683b      	ldr	r3, [r7, #0]
 8004e56:	4313      	orrs	r3, r2
 8004e58:	600b      	str	r3, [r1, #0]

    /* Check that the new number of wait states is taken into account to access the Flash
    memory by reading the FLASH_ACR register */
    if(__HAL_FLASH_GET_LATENCY() != FLatency)
 8004e5a:	4b22      	ldr	r3, [pc, #136]	; (8004ee4 <HAL_RCC_ClockConfig+0x1b0>)
 8004e5c:	681b      	ldr	r3, [r3, #0]
 8004e5e:	f003 0307 	and.w	r3, r3, #7
 8004e62:	683a      	ldr	r2, [r7, #0]
 8004e64:	429a      	cmp	r2, r3
 8004e66:	d001      	beq.n	8004e6c <HAL_RCC_ClockConfig+0x138>
    {
      return HAL_ERROR;
 8004e68:	2301      	movs	r3, #1
 8004e6a:	e036      	b.n	8004eda <HAL_RCC_ClockConfig+0x1a6>
    }
  }

  /*-------------------------- PCLK1 Configuration ---------------------------*/
  if(((RCC_ClkInitStruct->ClockType) & RCC_CLOCKTYPE_PCLK1) == RCC_CLOCKTYPE_PCLK1)
 8004e6c:	687b      	ldr	r3, [r7, #4]
 8004e6e:	681b      	ldr	r3, [r3, #0]
 8004e70:	f003 0304 	and.w	r3, r3, #4
 8004e74:	2b00      	cmp	r3, #0
 8004e76:	d008      	beq.n	8004e8a <HAL_RCC_ClockConfig+0x156>
  {
    assert_param(IS_RCC_PCLK(RCC_ClkInitStruct->APB1CLKDivider));
    MODIFY_REG(RCC->CFGR, RCC_CFGR_PPRE1, RCC_ClkInitStruct->APB1CLKDivider);
 8004e78:	4b1b      	ldr	r3, [pc, #108]	; (8004ee8 <HAL_RCC_ClockConfig+0x1b4>)
 8004e7a:	689b      	ldr	r3, [r3, #8]
 8004e7c:	f423 62e0 	bic.w	r2, r3, #1792	; 0x700
 8004e80:	687b      	ldr	r3, [r7, #4]
 8004e82:	68db      	ldr	r3, [r3, #12]
 8004e84:	4918      	ldr	r1, [pc, #96]	; (8004ee8 <HAL_RCC_ClockConfig+0x1b4>)
 8004e86:	4313      	orrs	r3, r2
 8004e88:	608b      	str	r3, [r1, #8]
  }

  /*-------------------------- PCLK2 Configuration ---------------------------*/
  if(((RCC_ClkInitStruct->ClockType) & RCC_CLOCKTYPE_PCLK2) == RCC_CLOCKTYPE_PCLK2)
 8004e8a:	687b      	ldr	r3, [r7, #4]
 8004e8c:	681b      	ldr	r3, [r3, #0]
 8004e8e:	f003 0308 	and.w	r3, r3, #8
 8004e92:	2b00      	cmp	r3, #0
 8004e94:	d009      	beq.n	8004eaa <HAL_RCC_ClockConfig+0x176>
  {
    assert_param(IS_RCC_PCLK(RCC_ClkInitStruct->APB2CLKDivider));
    MODIFY_REG(RCC->CFGR, RCC_CFGR_PPRE2, ((RCC_ClkInitStruct->APB2CLKDivider) << 3U));
 8004e96:	4b14      	ldr	r3, [pc, #80]	; (8004ee8 <HAL_RCC_ClockConfig+0x1b4>)
 8004e98:	689b      	ldr	r3, [r3, #8]
 8004e9a:	f423 5260 	bic.w	r2, r3, #14336	; 0x3800
 8004e9e:	687b      	ldr	r3, [r7, #4]
 8004ea0:	691b      	ldr	r3, [r3, #16]
 8004ea2:	00db      	lsls	r3, r3, #3
 8004ea4:	4910      	ldr	r1, [pc, #64]	; (8004ee8 <HAL_RCC_ClockConfig+0x1b4>)
 8004ea6:	4313      	orrs	r3, r2
 8004ea8:	608b      	str	r3, [r1, #8]
  }

  /* Update the SystemCoreClock global variable */
  SystemCoreClock = HAL_RCC_GetSysClockFreq() >> (AHBPrescTable[READ_BIT(RCC->CFGR, RCC_CFGR_HPRE) >> RCC_CFGR_HPRE_Pos] & 0x1FU);
 8004eaa:	f000 f825 	bl	8004ef8 <HAL_RCC_GetSysClockFreq>
 8004eae:	4601      	mov	r1, r0
 8004eb0:	4b0d      	ldr	r3, [pc, #52]	; (8004ee8 <HAL_RCC_ClockConfig+0x1b4>)
 8004eb2:	689b      	ldr	r3, [r3, #8]
 8004eb4:	091b      	lsrs	r3, r3, #4
 8004eb6:	f003 030f 	and.w	r3, r3, #15
 8004eba:	4a0c      	ldr	r2, [pc, #48]	; (8004eec <HAL_RCC_ClockConfig+0x1b8>)
 8004ebc:	5cd3      	ldrb	r3, [r2, r3]
 8004ebe:	f003 031f 	and.w	r3, r3, #31
 8004ec2:	fa21 f303 	lsr.w	r3, r1, r3
 8004ec6:	4a0a      	ldr	r2, [pc, #40]	; (8004ef0 <HAL_RCC_ClockConfig+0x1bc>)
 8004ec8:	6013      	str	r3, [r2, #0]

  /* Configure the source of time base considering new system clocks settings*/
  status = HAL_InitTick(uwTickPrio);
 8004eca:	4b0a      	ldr	r3, [pc, #40]	; (8004ef4 <HAL_RCC_ClockConfig+0x1c0>)
 8004ecc:	681b      	ldr	r3, [r3, #0]
 8004ece:	4618      	mov	r0, r3
 8004ed0:	f7fe f888 	bl	8002fe4 <HAL_InitTick>
 8004ed4:	4603      	mov	r3, r0
 8004ed6:	72fb      	strb	r3, [r7, #11]

  return status;
 8004ed8:	7afb      	ldrb	r3, [r7, #11]
}
 8004eda:	4618      	mov	r0, r3
 8004edc:	3710      	adds	r7, #16
 8004ede:	46bd      	mov	sp, r7
 8004ee0:	bd80      	pop	{r7, pc}
 8004ee2:	bf00      	nop
 8004ee4:	40022000 	.word	0x40022000
 8004ee8:	40021000 	.word	0x40021000
 8004eec:	0800957c 	.word	0x0800957c
 8004ef0:	200002b4 	.word	0x200002b4
 8004ef4:	200002b8 	.word	0x200002b8

08004ef8 <HAL_RCC_GetSysClockFreq>:
  *
  *
  * @retval SYSCLK frequency
  */
uint32_t HAL_RCC_GetSysClockFreq(void)
{
 8004ef8:	b480      	push	{r7}
 8004efa:	b089      	sub	sp, #36	; 0x24
 8004efc:	af00      	add	r7, sp, #0
  uint32_t msirange = 0U, sysclockfreq = 0U;
 8004efe:	2300      	movs	r3, #0
 8004f00:	61fb      	str	r3, [r7, #28]
 8004f02:	2300      	movs	r3, #0
 8004f04:	61bb      	str	r3, [r7, #24]
  uint32_t pllvco, pllsource, pllr, pllm;    /* no init needed */
  uint32_t sysclk_source, pll_oscsource;

  sysclk_source = __HAL_RCC_GET_SYSCLK_SOURCE();
 8004f06:	4b3d      	ldr	r3, [pc, #244]	; (8004ffc <HAL_RCC_GetSysClockFreq+0x104>)
 8004f08:	689b      	ldr	r3, [r3, #8]
 8004f0a:	f003 030c 	and.w	r3, r3, #12
 8004f0e:	613b      	str	r3, [r7, #16]
  pll_oscsource = __HAL_RCC_GET_PLL_OSCSOURCE();
 8004f10:	4b3a      	ldr	r3, [pc, #232]	; (8004ffc <HAL_RCC_GetSysClockFreq+0x104>)
 8004f12:	68db      	ldr	r3, [r3, #12]
 8004f14:	f003 0303 	and.w	r3, r3, #3
 8004f18:	60fb      	str	r3, [r7, #12]

  if((sysclk_source == RCC_CFGR_SWS_MSI) ||
 8004f1a:	693b      	ldr	r3, [r7, #16]
 8004f1c:	2b00      	cmp	r3, #0
 8004f1e:	d005      	beq.n	8004f2c <HAL_RCC_GetSysClockFreq+0x34>
 8004f20:	693b      	ldr	r3, [r7, #16]
 8004f22:	2b0c      	cmp	r3, #12
 8004f24:	d121      	bne.n	8004f6a <HAL_RCC_GetSysClockFreq+0x72>
     ((sysclk_source == RCC_CFGR_SWS_PLL) && (pll_oscsource == RCC_PLLSOURCE_MSI)))
 8004f26:	68fb      	ldr	r3, [r7, #12]
 8004f28:	2b01      	cmp	r3, #1
 8004f2a:	d11e      	bne.n	8004f6a <HAL_RCC_GetSysClockFreq+0x72>
  {
    /* MSI or PLL with MSI source used as system clock source */

    /* Get SYSCLK source */
    if(READ_BIT(RCC->CR, RCC_CR_MSIRGSEL) == 0U)
 8004f2c:	4b33      	ldr	r3, [pc, #204]	; (8004ffc <HAL_RCC_GetSysClockFreq+0x104>)
 8004f2e:	681b      	ldr	r3, [r3, #0]
 8004f30:	f003 0308 	and.w	r3, r3, #8
 8004f34:	2b00      	cmp	r3, #0
 8004f36:	d107      	bne.n	8004f48 <HAL_RCC_GetSysClockFreq+0x50>
    { /* MSISRANGE from RCC_CSR applies */
      msirange = READ_BIT(RCC->CSR, RCC_CSR_MSISRANGE) >> RCC_CSR_MSISRANGE_Pos;
 8004f38:	4b30      	ldr	r3, [pc, #192]	; (8004ffc <HAL_RCC_GetSysClockFreq+0x104>)
 8004f3a:	f8d3 3094 	ldr.w	r3, [r3, #148]	; 0x94
 8004f3e:	0a1b      	lsrs	r3, r3, #8
 8004f40:	f003 030f 	and.w	r3, r3, #15
 8004f44:	61fb      	str	r3, [r7, #28]
 8004f46:	e005      	b.n	8004f54 <HAL_RCC_GetSysClockFreq+0x5c>
    }
    else
    { /* MSIRANGE from RCC_CR applies */
      msirange = READ_BIT(RCC->CR, RCC_CR_MSIRANGE) >> RCC_CR_MSIRANGE_Pos;
 8004f48:	4b2c      	ldr	r3, [pc, #176]	; (8004ffc <HAL_RCC_GetSysClockFreq+0x104>)
 8004f4a:	681b      	ldr	r3, [r3, #0]
 8004f4c:	091b      	lsrs	r3, r3, #4
 8004f4e:	f003 030f 	and.w	r3, r3, #15
 8004f52:	61fb      	str	r3, [r7, #28]
    }
    /*MSI frequency range in HZ*/
    msirange = MSIRangeTable[msirange];
 8004f54:	4a2a      	ldr	r2, [pc, #168]	; (8005000 <HAL_RCC_GetSysClockFreq+0x108>)
 8004f56:	69fb      	ldr	r3, [r7, #28]
 8004f58:	f852 3023 	ldr.w	r3, [r2, r3, lsl #2]
 8004f5c:	61fb      	str	r3, [r7, #28]

    if(sysclk_source == RCC_CFGR_SWS_MSI)
 8004f5e:	693b      	ldr	r3, [r7, #16]
 8004f60:	2b00      	cmp	r3, #0
 8004f62:	d10d      	bne.n	8004f80 <HAL_RCC_GetSysClockFreq+0x88>
    {
      /* MSI used as system clock source */
      sysclockfreq = msirange;
 8004f64:	69fb      	ldr	r3, [r7, #28]
 8004f66:	61bb      	str	r3, [r7, #24]
    if(sysclk_source == RCC_CFGR_SWS_MSI)
 8004f68:	e00a      	b.n	8004f80 <HAL_RCC_GetSysClockFreq+0x88>
    }
  }
  else if(sysclk_source == RCC_CFGR_SWS_HSI)
 8004f6a:	693b      	ldr	r3, [r7, #16]
 8004f6c:	2b04      	cmp	r3, #4
 8004f6e:	d102      	bne.n	8004f76 <HAL_RCC_GetSysClockFreq+0x7e>
  {
    /* HSI used as system clock source */
    sysclockfreq = HSI_VALUE;
 8004f70:	4b24      	ldr	r3, [pc, #144]	; (8005004 <HAL_RCC_GetSysClockFreq+0x10c>)
 8004f72:	61bb      	str	r3, [r7, #24]
 8004f74:	e004      	b.n	8004f80 <HAL_RCC_GetSysClockFreq+0x88>
  }
  else if(sysclk_source == RCC_CFGR_SWS_HSE)
 8004f76:	693b      	ldr	r3, [r7, #16]
 8004f78:	2b08      	cmp	r3, #8
 8004f7a:	d101      	bne.n	8004f80 <HAL_RCC_GetSysClockFreq+0x88>
  {
    /* HSE used as system clock source */
    sysclockfreq = HSE_VALUE;
 8004f7c:	4b22      	ldr	r3, [pc, #136]	; (8005008 <HAL_RCC_GetSysClockFreq+0x110>)
 8004f7e:	61bb      	str	r3, [r7, #24]
  else
  {
    /* unexpected case: sysclockfreq at 0 */
  }

  if(sysclk_source == RCC_CFGR_SWS_PLL)
 8004f80:	693b      	ldr	r3, [r7, #16]
 8004f82:	2b0c      	cmp	r3, #12
 8004f84:	d133      	bne.n	8004fee <HAL_RCC_GetSysClockFreq+0xf6>
    /* PLL used as system clock  source */

    /* PLL_VCO = (HSE_VALUE or HSI_VALUE or MSI_VALUE) * PLLN / PLLM
    SYSCLK = PLL_VCO / PLLR
    */
    pllsource = READ_BIT(RCC->PLLCFGR, RCC_PLLCFGR_PLLSRC);
 8004f86:	4b1d      	ldr	r3, [pc, #116]	; (8004ffc <HAL_RCC_GetSysClockFreq+0x104>)
 8004f88:	68db      	ldr	r3, [r3, #12]
 8004f8a:	f003 0303 	and.w	r3, r3, #3
 8004f8e:	60bb      	str	r3, [r7, #8]

    switch (pllsource)
 8004f90:	68bb      	ldr	r3, [r7, #8]
 8004f92:	2b02      	cmp	r3, #2
 8004f94:	d002      	beq.n	8004f9c <HAL_RCC_GetSysClockFreq+0xa4>
 8004f96:	2b03      	cmp	r3, #3
 8004f98:	d003      	beq.n	8004fa2 <HAL_RCC_GetSysClockFreq+0xaa>
 8004f9a:	e005      	b.n	8004fa8 <HAL_RCC_GetSysClockFreq+0xb0>
    {
    case RCC_PLLSOURCE_HSI:  /* HSI used as PLL clock source */
      pllvco = HSI_VALUE;
 8004f9c:	4b19      	ldr	r3, [pc, #100]	; (8005004 <HAL_RCC_GetSysClockFreq+0x10c>)
 8004f9e:	617b      	str	r3, [r7, #20]
      break;
 8004fa0:	e005      	b.n	8004fae <HAL_RCC_GetSysClockFreq+0xb6>

    case RCC_PLLSOURCE_HSE:  /* HSE used as PLL clock source */
      pllvco = HSE_VALUE;
 8004fa2:	4b19      	ldr	r3, [pc, #100]	; (8005008 <HAL_RCC_GetSysClockFreq+0x110>)
 8004fa4:	617b      	str	r3, [r7, #20]
      break;
 8004fa6:	e002      	b.n	8004fae <HAL_RCC_GetSysClockFreq+0xb6>

    case RCC_PLLSOURCE_MSI:  /* MSI used as PLL clock source */
    default:
      pllvco = msirange;
 8004fa8:	69fb      	ldr	r3, [r7, #28]
 8004faa:	617b      	str	r3, [r7, #20]
      break;
 8004fac:	bf00      	nop
    }
    pllm = (READ_BIT(RCC->PLLCFGR, RCC_PLLCFGR_PLLM) >> RCC_PLLCFGR_PLLM_Pos) + 1U ;
 8004fae:	4b13      	ldr	r3, [pc, #76]	; (8004ffc <HAL_RCC_GetSysClockFreq+0x104>)
 8004fb0:	68db      	ldr	r3, [r3, #12]
 8004fb2:	091b      	lsrs	r3, r3, #4
 8004fb4:	f003 0307 	and.w	r3, r3, #7
 8004fb8:	3301      	adds	r3, #1
 8004fba:	607b      	str	r3, [r7, #4]
    pllvco = (pllvco * (READ_BIT(RCC->PLLCFGR, RCC_PLLCFGR_PLLN) >> RCC_PLLCFGR_PLLN_Pos)) / pllm;
 8004fbc:	4b0f      	ldr	r3, [pc, #60]	; (8004ffc <HAL_RCC_GetSysClockFreq+0x104>)
 8004fbe:	68db      	ldr	r3, [r3, #12]
 8004fc0:	0a1b      	lsrs	r3, r3, #8
 8004fc2:	f003 037f 	and.w	r3, r3, #127	; 0x7f
 8004fc6:	697a      	ldr	r2, [r7, #20]
 8004fc8:	fb02 f203 	mul.w	r2, r2, r3
 8004fcc:	687b      	ldr	r3, [r7, #4]
 8004fce:	fbb2 f3f3 	udiv	r3, r2, r3
 8004fd2:	617b      	str	r3, [r7, #20]
    pllr = ((READ_BIT(RCC->PLLCFGR, RCC_PLLCFGR_PLLR) >> RCC_PLLCFGR_PLLR_Pos) + 1U ) * 2U;
 8004fd4:	4b09      	ldr	r3, [pc, #36]	; (8004ffc <HAL_RCC_GetSysClockFreq+0x104>)
 8004fd6:	68db      	ldr	r3, [r3, #12]
 8004fd8:	0e5b      	lsrs	r3, r3, #25
 8004fda:	f003 0303 	and.w	r3, r3, #3
 8004fde:	3301      	adds	r3, #1
 8004fe0:	005b      	lsls	r3, r3, #1
 8004fe2:	603b      	str	r3, [r7, #0]
    sysclockfreq = pllvco / pllr;
 8004fe4:	697a      	ldr	r2, [r7, #20]
 8004fe6:	683b      	ldr	r3, [r7, #0]
 8004fe8:	fbb2 f3f3 	udiv	r3, r2, r3
 8004fec:	61bb      	str	r3, [r7, #24]
  }

  return sysclockfreq;
 8004fee:	69bb      	ldr	r3, [r7, #24]
}
 8004ff0:	4618      	mov	r0, r3
 8004ff2:	3724      	adds	r7, #36	; 0x24
 8004ff4:	46bd      	mov	sp, r7
 8004ff6:	f85d 7b04 	ldr.w	r7, [sp], #4
 8004ffa:	4770      	bx	lr
 8004ffc:	40021000 	.word	0x40021000
 8005000:	0800958c 	.word	0x0800958c
 8005004:	00f42400 	.word	0x00f42400
 8005008:	007a1200 	.word	0x007a1200

0800500c <RCC_SetFlashLatencyFromMSIRange>:
            voltage range.
  * @param  msirange  MSI range value from RCC_MSIRANGE_0 to RCC_MSIRANGE_11
  * @retval HAL status
  */
static HAL_StatusTypeDef RCC_SetFlashLatencyFromMSIRange(uint32_t msirange)
{
 800500c:	b580      	push	{r7, lr}
 800500e:	b086      	sub	sp, #24
 8005010:	af00      	add	r7, sp, #0
 8005012:	6078      	str	r0, [r7, #4]
  uint32_t vos;
  uint32_t latency = FLASH_LATENCY_0;  /* default value 0WS */
 8005014:	2300      	movs	r3, #0
 8005016:	613b      	str	r3, [r7, #16]

  if(__HAL_RCC_PWR_IS_CLK_ENABLED())
 8005018:	4b2a      	ldr	r3, [pc, #168]	; (80050c4 <RCC_SetFlashLatencyFromMSIRange+0xb8>)
 800501a:	6d9b      	ldr	r3, [r3, #88]	; 0x58
 800501c:	f003 5380 	and.w	r3, r3, #268435456	; 0x10000000
 8005020:	2b00      	cmp	r3, #0
 8005022:	d003      	beq.n	800502c <RCC_SetFlashLatencyFromMSIRange+0x20>
  {
    vos = HAL_PWREx_GetVoltageRange();
 8005024:	f7ff fa3c 	bl	80044a0 <HAL_PWREx_GetVoltageRange>
 8005028:	6178      	str	r0, [r7, #20]
 800502a:	e014      	b.n	8005056 <RCC_SetFlashLatencyFromMSIRange+0x4a>
  }
  else
  {
    __HAL_RCC_PWR_CLK_ENABLE();
 800502c:	4b25      	ldr	r3, [pc, #148]	; (80050c4 <RCC_SetFlashLatencyFromMSIRange+0xb8>)
 800502e:	6d9b      	ldr	r3, [r3, #88]	; 0x58
 8005030:	4a24      	ldr	r2, [pc, #144]	; (80050c4 <RCC_SetFlashLatencyFromMSIRange+0xb8>)
 8005032:	f043 5380 	orr.w	r3, r3, #268435456	; 0x10000000
 8005036:	6593      	str	r3, [r2, #88]	; 0x58
 8005038:	4b22      	ldr	r3, [pc, #136]	; (80050c4 <RCC_SetFlashLatencyFromMSIRange+0xb8>)
 800503a:	6d9b      	ldr	r3, [r3, #88]	; 0x58
 800503c:	f003 5380 	and.w	r3, r3, #268435456	; 0x10000000
 8005040:	60fb      	str	r3, [r7, #12]
 8005042:	68fb      	ldr	r3, [r7, #12]
    vos = HAL_PWREx_GetVoltageRange();
 8005044:	f7ff fa2c 	bl	80044a0 <HAL_PWREx_GetVoltageRange>
 8005048:	6178      	str	r0, [r7, #20]
    __HAL_RCC_PWR_CLK_DISABLE();
 800504a:	4b1e      	ldr	r3, [pc, #120]	; (80050c4 <RCC_SetFlashLatencyFromMSIRange+0xb8>)
 800504c:	6d9b      	ldr	r3, [r3, #88]	; 0x58
 800504e:	4a1d      	ldr	r2, [pc, #116]	; (80050c4 <RCC_SetFlashLatencyFromMSIRange+0xb8>)
 8005050:	f023 5380 	bic.w	r3, r3, #268435456	; 0x10000000
 8005054:	6593      	str	r3, [r2, #88]	; 0x58
  }

  if(vos == PWR_REGULATOR_VOLTAGE_SCALE1)
 8005056:	697b      	ldr	r3, [r7, #20]
 8005058:	f5b3 7f00 	cmp.w	r3, #512	; 0x200
 800505c:	d10b      	bne.n	8005076 <RCC_SetFlashLatencyFromMSIRange+0x6a>
  {
    if(msirange > RCC_MSIRANGE_8)
 800505e:	687b      	ldr	r3, [r7, #4]
 8005060:	2b80      	cmp	r3, #128	; 0x80
 8005062:	d919      	bls.n	8005098 <RCC_SetFlashLatencyFromMSIRange+0x8c>
    {
      /* MSI > 16Mhz */
      if(msirange > RCC_MSIRANGE_10)
 8005064:	687b      	ldr	r3, [r7, #4]
 8005066:	2ba0      	cmp	r3, #160	; 0xa0
 8005068:	d902      	bls.n	8005070 <RCC_SetFlashLatencyFromMSIRange+0x64>
      {
        /* MSI 48Mhz */
        latency = FLASH_LATENCY_2; /* 2WS */
 800506a:	2302      	movs	r3, #2
 800506c:	613b      	str	r3, [r7, #16]
 800506e:	e013      	b.n	8005098 <RCC_SetFlashLatencyFromMSIRange+0x8c>
      }
      else
      {
        /* MSI 24Mhz or 32Mhz */
        latency = FLASH_LATENCY_1; /* 1WS */
 8005070:	2301      	movs	r3, #1
 8005072:	613b      	str	r3, [r7, #16]
 8005074:	e010      	b.n	8005098 <RCC_SetFlashLatencyFromMSIRange+0x8c>
        latency = FLASH_LATENCY_1; /* 1WS */
      }
      /* else MSI < 8Mhz default FLASH_LATENCY_0 0WS */
    }
#else
    if(msirange > RCC_MSIRANGE_8)
 8005076:	687b      	ldr	r3, [r7, #4]
 8005078:	2b80      	cmp	r3, #128	; 0x80
 800507a:	d902      	bls.n	8005082 <RCC_SetFlashLatencyFromMSIRange+0x76>
    {
      /* MSI > 16Mhz */
      latency = FLASH_LATENCY_3; /* 3WS */
 800507c:	2303      	movs	r3, #3
 800507e:	613b      	str	r3, [r7, #16]
 8005080:	e00a      	b.n	8005098 <RCC_SetFlashLatencyFromMSIRange+0x8c>
    }
    else
    {
      if(msirange == RCC_MSIRANGE_8)
 8005082:	687b      	ldr	r3, [r7, #4]
 8005084:	2b80      	cmp	r3, #128	; 0x80
 8005086:	d102      	bne.n	800508e <RCC_SetFlashLatencyFromMSIRange+0x82>
      {
        /* MSI 16Mhz */
        latency = FLASH_LATENCY_2; /* 2WS */
 8005088:	2302      	movs	r3, #2
 800508a:	613b      	str	r3, [r7, #16]
 800508c:	e004      	b.n	8005098 <RCC_SetFlashLatencyFromMSIRange+0x8c>
      }
      else if(msirange == RCC_MSIRANGE_7)
 800508e:	687b      	ldr	r3, [r7, #4]
 8005090:	2b70      	cmp	r3, #112	; 0x70
 8005092:	d101      	bne.n	8005098 <RCC_SetFlashLatencyFromMSIRange+0x8c>
      {
        /* MSI 8Mhz */
        latency = FLASH_LATENCY_1; /* 1WS */
 8005094:	2301      	movs	r3, #1
 8005096:	613b      	str	r3, [r7, #16]
      /* else MSI < 8Mhz default FLASH_LATENCY_0 0WS */
    }
#endif
  }

  __HAL_FLASH_SET_LATENCY(latency);
 8005098:	4b0b      	ldr	r3, [pc, #44]	; (80050c8 <RCC_SetFlashLatencyFromMSIRange+0xbc>)
 800509a:	681b      	ldr	r3, [r3, #0]
 800509c:	f023 0207 	bic.w	r2, r3, #7
 80050a0:	4909      	ldr	r1, [pc, #36]	; (80050c8 <RCC_SetFlashLatencyFromMSIRange+0xbc>)
 80050a2:	693b      	ldr	r3, [r7, #16]
 80050a4:	4313      	orrs	r3, r2
 80050a6:	600b      	str	r3, [r1, #0]

  /* Check that the new number of wait states is taken into account to access the Flash
     memory by reading the FLASH_ACR register */
  if(__HAL_FLASH_GET_LATENCY() != latency)
 80050a8:	4b07      	ldr	r3, [pc, #28]	; (80050c8 <RCC_SetFlashLatencyFromMSIRange+0xbc>)
 80050aa:	681b      	ldr	r3, [r3, #0]
 80050ac:	f003 0307 	and.w	r3, r3, #7
 80050b0:	693a      	ldr	r2, [r7, #16]
 80050b2:	429a      	cmp	r2, r3
 80050b4:	d001      	beq.n	80050ba <RCC_SetFlashLatencyFromMSIRange+0xae>
  {
    return HAL_ERROR;
 80050b6:	2301      	movs	r3, #1
 80050b8:	e000      	b.n	80050bc <RCC_SetFlashLatencyFromMSIRange+0xb0>
  }

  return HAL_OK;
 80050ba:	2300      	movs	r3, #0
}
 80050bc:	4618      	mov	r0, r3
 80050be:	3718      	adds	r7, #24
 80050c0:	46bd      	mov	sp, r7
 80050c2:	bd80      	pop	{r7, pc}
 80050c4:	40021000 	.word	0x40021000
 80050c8:	40022000 	.word	0x40022000

080050cc <HAL_RCCEx_PeriphCLKConfig>:
  *         the RTC clock source: in this case the access to Backup domain is enabled.
  *
  * @retval HAL status
  */
HAL_StatusTypeDef HAL_RCCEx_PeriphCLKConfig(RCC_PeriphCLKInitTypeDef  *PeriphClkInit)
{
 80050cc:	b580      	push	{r7, lr}
 80050ce:	b086      	sub	sp, #24
 80050d0:	af00      	add	r7, sp, #0
 80050d2:	6078      	str	r0, [r7, #4]
  uint32_t tmpregister, tickstart;     /* no init needed */
  HAL_StatusTypeDef ret = HAL_OK;      /* Intermediate status */
 80050d4:	2300      	movs	r3, #0
 80050d6:	74fb      	strb	r3, [r7, #19]
  HAL_StatusTypeDef status = HAL_OK;   /* Final status */
 80050d8:	2300      	movs	r3, #0
 80050da:	74bb      	strb	r3, [r7, #18]
  assert_param(IS_RCC_PERIPHCLOCK(PeriphClkInit->PeriphClockSelection));

#if defined(SAI1)

  /*-------------------------- SAI1 clock source configuration ---------------------*/
  if((((PeriphClkInit->PeriphClockSelection) & RCC_PERIPHCLK_SAI1) == RCC_PERIPHCLK_SAI1))
 80050dc:	687b      	ldr	r3, [r7, #4]
 80050de:	681b      	ldr	r3, [r3, #0]
 80050e0:	f403 6300 	and.w	r3, r3, #2048	; 0x800
 80050e4:	2b00      	cmp	r3, #0
 80050e6:	d03f      	beq.n	8005168 <HAL_RCCEx_PeriphCLKConfig+0x9c>
  {
    /* Check the parameters */
    assert_param(IS_RCC_SAI1CLK(PeriphClkInit->Sai1ClockSelection));

    switch(PeriphClkInit->Sai1ClockSelection)
 80050e8:	687b      	ldr	r3, [r7, #4]
 80050ea:	6e5b      	ldr	r3, [r3, #100]	; 0x64
 80050ec:	f5b3 0f80 	cmp.w	r3, #4194304	; 0x400000
 80050f0:	d01c      	beq.n	800512c <HAL_RCCEx_PeriphCLKConfig+0x60>
 80050f2:	f5b3 0f80 	cmp.w	r3, #4194304	; 0x400000
 80050f6:	d802      	bhi.n	80050fe <HAL_RCCEx_PeriphCLKConfig+0x32>
 80050f8:	2b00      	cmp	r3, #0
 80050fa:	d00e      	beq.n	800511a <HAL_RCCEx_PeriphCLKConfig+0x4e>
 80050fc:	e01f      	b.n	800513e <HAL_RCCEx_PeriphCLKConfig+0x72>
 80050fe:	f5b3 0f00 	cmp.w	r3, #8388608	; 0x800000
 8005102:	d003      	beq.n	800510c <HAL_RCCEx_PeriphCLKConfig+0x40>
 8005104:	f5b3 0f40 	cmp.w	r3, #12582912	; 0xc00000
 8005108:	d01c      	beq.n	8005144 <HAL_RCCEx_PeriphCLKConfig+0x78>
 800510a:	e018      	b.n	800513e <HAL_RCCEx_PeriphCLKConfig+0x72>
    {
    case RCC_SAI1CLKSOURCE_PLL:      /* PLL is used as clock source for SAI1*/
      /* Enable SAI Clock output generated from System PLL . */
#if defined(RCC_PLLSAI2_SUPPORT)
      __HAL_RCC_PLLCLKOUT_ENABLE(RCC_PLL_SAI3CLK);
 800510c:	4b85      	ldr	r3, [pc, #532]	; (8005324 <HAL_RCCEx_PeriphCLKConfig+0x258>)
 800510e:	68db      	ldr	r3, [r3, #12]
 8005110:	4a84      	ldr	r2, [pc, #528]	; (8005324 <HAL_RCCEx_PeriphCLKConfig+0x258>)
 8005112:	f443 3380 	orr.w	r3, r3, #65536	; 0x10000
 8005116:	60d3      	str	r3, [r2, #12]
#else
      __HAL_RCC_PLLCLKOUT_ENABLE(RCC_PLL_SAI2CLK);
#endif /* RCC_PLLSAI2_SUPPORT */
      /* SAI1 clock source config set later after clock selection check */
      break;
 8005118:	e015      	b.n	8005146 <HAL_RCCEx_PeriphCLKConfig+0x7a>

    case RCC_SAI1CLKSOURCE_PLLSAI1:  /* PLLSAI1 is used as clock source for SAI1*/
      /* PLLSAI1 input clock, parameters M, N & P configuration and clock output (PLLSAI1ClockOut) */
      ret = RCCEx_PLLSAI1_Config(&(PeriphClkInit->PLLSAI1), DIVIDER_P_UPDATE);
 800511a:	687b      	ldr	r3, [r7, #4]
 800511c:	3304      	adds	r3, #4
 800511e:	2100      	movs	r1, #0
 8005120:	4618      	mov	r0, r3
 8005122:	f000 fab9 	bl	8005698 <RCCEx_PLLSAI1_Config>
 8005126:	4603      	mov	r3, r0
 8005128:	74fb      	strb	r3, [r7, #19]
      /* SAI1 clock source config set later after clock selection check */
      break;
 800512a:	e00c      	b.n	8005146 <HAL_RCCEx_PeriphCLKConfig+0x7a>

#if defined(RCC_PLLSAI2_SUPPORT)

    case RCC_SAI1CLKSOURCE_PLLSAI2:  /* PLLSAI2 is used as clock source for SAI1*/
      /* PLLSAI2 input clock, parameters M, N & P configuration clock output (PLLSAI2ClockOut) */
      ret = RCCEx_PLLSAI2_Config(&(PeriphClkInit->PLLSAI2), DIVIDER_P_UPDATE);
 800512c:	687b      	ldr	r3, [r7, #4]
 800512e:	3320      	adds	r3, #32
 8005130:	2100      	movs	r1, #0
 8005132:	4618      	mov	r0, r3
 8005134:	f000 fba0 	bl	8005878 <RCCEx_PLLSAI2_Config>
 8005138:	4603      	mov	r3, r0
 800513a:	74fb      	strb	r3, [r7, #19]
      /* SAI1 clock source config set later after clock selection check */
      break;
 800513c:	e003      	b.n	8005146 <HAL_RCCEx_PeriphCLKConfig+0x7a>
#endif /* STM32L4P5xx || STM32L4Q5xx || STM32L4R5xx || STM32L4R7xx || STM32L4R9xx || STM32L4S5xx || STM32L4S7xx || STM32L4S9xx */
      /* SAI1 clock source config set later after clock selection check */
      break;

    default:
      ret = HAL_ERROR;
 800513e:	2301      	movs	r3, #1
 8005140:	74fb      	strb	r3, [r7, #19]
      break;
 8005142:	e000      	b.n	8005146 <HAL_RCCEx_PeriphCLKConfig+0x7a>
      break;
 8005144:	bf00      	nop
    }

    if(ret == HAL_OK)
 8005146:	7cfb      	ldrb	r3, [r7, #19]
 8005148:	2b00      	cmp	r3, #0
 800514a:	d10b      	bne.n	8005164 <HAL_RCCEx_PeriphCLKConfig+0x98>
    {
      /* Set the source of SAI1 clock*/
      __HAL_RCC_SAI1_CONFIG(PeriphClkInit->Sai1ClockSelection);
 800514c:	4b75      	ldr	r3, [pc, #468]	; (8005324 <HAL_RCCEx_PeriphCLKConfig+0x258>)
 800514e:	f8d3 3088 	ldr.w	r3, [r3, #136]	; 0x88
 8005152:	f423 0240 	bic.w	r2, r3, #12582912	; 0xc00000
 8005156:	687b      	ldr	r3, [r7, #4]
 8005158:	6e5b      	ldr	r3, [r3, #100]	; 0x64
 800515a:	4972      	ldr	r1, [pc, #456]	; (8005324 <HAL_RCCEx_PeriphCLKConfig+0x258>)
 800515c:	4313      	orrs	r3, r2
 800515e:	f8c1 3088 	str.w	r3, [r1, #136]	; 0x88
 8005162:	e001      	b.n	8005168 <HAL_RCCEx_PeriphCLKConfig+0x9c>
    }
    else
    {
      /* set overall return value */
      status = ret;
 8005164:	7cfb      	ldrb	r3, [r7, #19]
 8005166:	74bb      	strb	r3, [r7, #18]
#endif /* SAI1 */

#if defined(SAI2)

  /*-------------------------- SAI2 clock source configuration ---------------------*/
  if((((PeriphClkInit->PeriphClockSelection) & RCC_PERIPHCLK_SAI2) == RCC_PERIPHCLK_SAI2))
 8005168:	687b      	ldr	r3, [r7, #4]
 800516a:	681b      	ldr	r3, [r3, #0]
 800516c:	f403 5380 	and.w	r3, r3, #4096	; 0x1000
 8005170:	2b00      	cmp	r3, #0
 8005172:	d03f      	beq.n	80051f4 <HAL_RCCEx_PeriphCLKConfig+0x128>
  {
    /* Check the parameters */
    assert_param(IS_RCC_SAI2CLK(PeriphClkInit->Sai2ClockSelection));

    switch(PeriphClkInit->Sai2ClockSelection)
 8005174:	687b      	ldr	r3, [r7, #4]
 8005176:	6e9b      	ldr	r3, [r3, #104]	; 0x68
 8005178:	f1b3 7f80 	cmp.w	r3, #16777216	; 0x1000000
 800517c:	d01c      	beq.n	80051b8 <HAL_RCCEx_PeriphCLKConfig+0xec>
 800517e:	f1b3 7f80 	cmp.w	r3, #16777216	; 0x1000000
 8005182:	d802      	bhi.n	800518a <HAL_RCCEx_PeriphCLKConfig+0xbe>
 8005184:	2b00      	cmp	r3, #0
 8005186:	d00e      	beq.n	80051a6 <HAL_RCCEx_PeriphCLKConfig+0xda>
 8005188:	e01f      	b.n	80051ca <HAL_RCCEx_PeriphCLKConfig+0xfe>
 800518a:	f1b3 7f00 	cmp.w	r3, #33554432	; 0x2000000
 800518e:	d003      	beq.n	8005198 <HAL_RCCEx_PeriphCLKConfig+0xcc>
 8005190:	f1b3 7f40 	cmp.w	r3, #50331648	; 0x3000000
 8005194:	d01c      	beq.n	80051d0 <HAL_RCCEx_PeriphCLKConfig+0x104>
 8005196:	e018      	b.n	80051ca <HAL_RCCEx_PeriphCLKConfig+0xfe>
    {
    case RCC_SAI2CLKSOURCE_PLL:      /* PLL is used as clock source for SAI2*/
      /* Enable SAI Clock output generated from System PLL . */
      __HAL_RCC_PLLCLKOUT_ENABLE(RCC_PLL_SAI3CLK);
 8005198:	4b62      	ldr	r3, [pc, #392]	; (8005324 <HAL_RCCEx_PeriphCLKConfig+0x258>)
 800519a:	68db      	ldr	r3, [r3, #12]
 800519c:	4a61      	ldr	r2, [pc, #388]	; (8005324 <HAL_RCCEx_PeriphCLKConfig+0x258>)
 800519e:	f443 3380 	orr.w	r3, r3, #65536	; 0x10000
 80051a2:	60d3      	str	r3, [r2, #12]
      /* SAI2 clock source config set later after clock selection check */
      break;
 80051a4:	e015      	b.n	80051d2 <HAL_RCCEx_PeriphCLKConfig+0x106>

    case RCC_SAI2CLKSOURCE_PLLSAI1: /* PLLSAI1 is used as clock source for SAI2*/
      /* PLLSAI1 input clock, parameters M, N & P configuration and clock output (PLLSAI1ClockOut) */
      ret = RCCEx_PLLSAI1_Config(&(PeriphClkInit->PLLSAI1), DIVIDER_P_UPDATE);
 80051a6:	687b      	ldr	r3, [r7, #4]
 80051a8:	3304      	adds	r3, #4
 80051aa:	2100      	movs	r1, #0
 80051ac:	4618      	mov	r0, r3
 80051ae:	f000 fa73 	bl	8005698 <RCCEx_PLLSAI1_Config>
 80051b2:	4603      	mov	r3, r0
 80051b4:	74fb      	strb	r3, [r7, #19]
      /* SAI2 clock source config set later after clock selection check */
      break;
 80051b6:	e00c      	b.n	80051d2 <HAL_RCCEx_PeriphCLKConfig+0x106>

    case RCC_SAI2CLKSOURCE_PLLSAI2:  /* PLLSAI2 is used as clock source for SAI2*/
      /* PLLSAI2 input clock, parameters M, N & P configuration and clock output (PLLSAI2ClockOut) */
      ret = RCCEx_PLLSAI2_Config(&(PeriphClkInit->PLLSAI2), DIVIDER_P_UPDATE);
 80051b8:	687b      	ldr	r3, [r7, #4]
 80051ba:	3320      	adds	r3, #32
 80051bc:	2100      	movs	r1, #0
 80051be:	4618      	mov	r0, r3
 80051c0:	f000 fb5a 	bl	8005878 <RCCEx_PLLSAI2_Config>
 80051c4:	4603      	mov	r3, r0
 80051c6:	74fb      	strb	r3, [r7, #19]
      /* SAI2 clock source config set later after clock selection check */
      break;
 80051c8:	e003      	b.n	80051d2 <HAL_RCCEx_PeriphCLKConfig+0x106>
#endif /* STM32L4P5xx || STM32L4Q5xx || STM32L4R5xx || STM32L4R7xx || STM32L4R9xx || STM32L4S5xx || STM32L4S7xx || STM32L4S9xx */
      /* SAI2 clock source config set later after clock selection check */
      break;

    default:
      ret = HAL_ERROR;
 80051ca:	2301      	movs	r3, #1
 80051cc:	74fb      	strb	r3, [r7, #19]
      break;
 80051ce:	e000      	b.n	80051d2 <HAL_RCCEx_PeriphCLKConfig+0x106>
      break;
 80051d0:	bf00      	nop
    }

    if(ret == HAL_OK)
 80051d2:	7cfb      	ldrb	r3, [r7, #19]
 80051d4:	2b00      	cmp	r3, #0
 80051d6:	d10b      	bne.n	80051f0 <HAL_RCCEx_PeriphCLKConfig+0x124>
    {
      /* Set the source of SAI2 clock*/
      __HAL_RCC_SAI2_CONFIG(PeriphClkInit->Sai2ClockSelection);
 80051d8:	4b52      	ldr	r3, [pc, #328]	; (8005324 <HAL_RCCEx_PeriphCLKConfig+0x258>)
 80051da:	f8d3 3088 	ldr.w	r3, [r3, #136]	; 0x88
 80051de:	f023 7240 	bic.w	r2, r3, #50331648	; 0x3000000
 80051e2:	687b      	ldr	r3, [r7, #4]
 80051e4:	6e9b      	ldr	r3, [r3, #104]	; 0x68
 80051e6:	494f      	ldr	r1, [pc, #316]	; (8005324 <HAL_RCCEx_PeriphCLKConfig+0x258>)
 80051e8:	4313      	orrs	r3, r2
 80051ea:	f8c1 3088 	str.w	r3, [r1, #136]	; 0x88
 80051ee:	e001      	b.n	80051f4 <HAL_RCCEx_PeriphCLKConfig+0x128>
    }
    else
    {
      /* set overall return value */
      status = ret;
 80051f0:	7cfb      	ldrb	r3, [r7, #19]
 80051f2:	74bb      	strb	r3, [r7, #18]
    }
  }
#endif /* SAI2 */

  /*-------------------------- RTC clock source configuration ----------------------*/
  if((PeriphClkInit->PeriphClockSelection & RCC_PERIPHCLK_RTC) == RCC_PERIPHCLK_RTC)
 80051f4:	687b      	ldr	r3, [r7, #4]
 80051f6:	681b      	ldr	r3, [r3, #0]
 80051f8:	f403 3300 	and.w	r3, r3, #131072	; 0x20000
 80051fc:	2b00      	cmp	r3, #0
 80051fe:	f000 80a0 	beq.w	8005342 <HAL_RCCEx_PeriphCLKConfig+0x276>
  {
    FlagStatus       pwrclkchanged = RESET;
 8005202:	2300      	movs	r3, #0
 8005204:	747b      	strb	r3, [r7, #17]

    /* Check for RTC Parameters used to output RTCCLK */
    assert_param(IS_RCC_RTCCLKSOURCE(PeriphClkInit->RTCClockSelection));

    /* Enable Power Clock */
    if(__HAL_RCC_PWR_IS_CLK_DISABLED() != 0U)
 8005206:	4b47      	ldr	r3, [pc, #284]	; (8005324 <HAL_RCCEx_PeriphCLKConfig+0x258>)
 8005208:	6d9b      	ldr	r3, [r3, #88]	; 0x58
 800520a:	f003 5380 	and.w	r3, r3, #268435456	; 0x10000000
 800520e:	2b00      	cmp	r3, #0
 8005210:	d101      	bne.n	8005216 <HAL_RCCEx_PeriphCLKConfig+0x14a>
 8005212:	2301      	movs	r3, #1
 8005214:	e000      	b.n	8005218 <HAL_RCCEx_PeriphCLKConfig+0x14c>
 8005216:	2300      	movs	r3, #0
 8005218:	2b00      	cmp	r3, #0
 800521a:	d00d      	beq.n	8005238 <HAL_RCCEx_PeriphCLKConfig+0x16c>
    {
      __HAL_RCC_PWR_CLK_ENABLE();
 800521c:	4b41      	ldr	r3, [pc, #260]	; (8005324 <HAL_RCCEx_PeriphCLKConfig+0x258>)
 800521e:	6d9b      	ldr	r3, [r3, #88]	; 0x58
 8005220:	4a40      	ldr	r2, [pc, #256]	; (8005324 <HAL_RCCEx_PeriphCLKConfig+0x258>)
 8005222:	f043 5380 	orr.w	r3, r3, #268435456	; 0x10000000
 8005226:	6593      	str	r3, [r2, #88]	; 0x58
 8005228:	4b3e      	ldr	r3, [pc, #248]	; (8005324 <HAL_RCCEx_PeriphCLKConfig+0x258>)
 800522a:	6d9b      	ldr	r3, [r3, #88]	; 0x58
 800522c:	f003 5380 	and.w	r3, r3, #268435456	; 0x10000000
 8005230:	60bb      	str	r3, [r7, #8]
 8005232:	68bb      	ldr	r3, [r7, #8]
      pwrclkchanged = SET;
 8005234:	2301      	movs	r3, #1
 8005236:	747b      	strb	r3, [r7, #17]
    }

    /* Enable write access to Backup domain */
    SET_BIT(PWR->CR1, PWR_CR1_DBP);
 8005238:	4b3b      	ldr	r3, [pc, #236]	; (8005328 <HAL_RCCEx_PeriphCLKConfig+0x25c>)
 800523a:	681b      	ldr	r3, [r3, #0]
 800523c:	4a3a      	ldr	r2, [pc, #232]	; (8005328 <HAL_RCCEx_PeriphCLKConfig+0x25c>)
 800523e:	f443 7380 	orr.w	r3, r3, #256	; 0x100
 8005242:	6013      	str	r3, [r2, #0]

    /* Wait for Backup domain Write protection disable */
    tickstart = HAL_GetTick();
 8005244:	f7fd ff1e 	bl	8003084 <HAL_GetTick>
 8005248:	60f8      	str	r0, [r7, #12]

    while(READ_BIT(PWR->CR1, PWR_CR1_DBP) == 0U)
 800524a:	e009      	b.n	8005260 <HAL_RCCEx_PeriphCLKConfig+0x194>
    {
      if((HAL_GetTick() - tickstart) > RCC_DBP_TIMEOUT_VALUE)
 800524c:	f7fd ff1a 	bl	8003084 <HAL_GetTick>
 8005250:	4602      	mov	r2, r0
 8005252:	68fb      	ldr	r3, [r7, #12]
 8005254:	1ad3      	subs	r3, r2, r3
 8005256:	2b02      	cmp	r3, #2
 8005258:	d902      	bls.n	8005260 <HAL_RCCEx_PeriphCLKConfig+0x194>
      {
        ret = HAL_TIMEOUT;
 800525a:	2303      	movs	r3, #3
 800525c:	74fb      	strb	r3, [r7, #19]
        break;
 800525e:	e005      	b.n	800526c <HAL_RCCEx_PeriphCLKConfig+0x1a0>
    while(READ_BIT(PWR->CR1, PWR_CR1_DBP) == 0U)
 8005260:	4b31      	ldr	r3, [pc, #196]	; (8005328 <HAL_RCCEx_PeriphCLKConfig+0x25c>)
 8005262:	681b      	ldr	r3, [r3, #0]
 8005264:	f403 7380 	and.w	r3, r3, #256	; 0x100
 8005268:	2b00      	cmp	r3, #0
 800526a:	d0ef      	beq.n	800524c <HAL_RCCEx_PeriphCLKConfig+0x180>
      }
    }

    if(ret == HAL_OK)
 800526c:	7cfb      	ldrb	r3, [r7, #19]
 800526e:	2b00      	cmp	r3, #0
 8005270:	d15c      	bne.n	800532c <HAL_RCCEx_PeriphCLKConfig+0x260>
    {
      /* Reset the Backup domain only if the RTC Clock source selection is modified from default */
      tmpregister = READ_BIT(RCC->BDCR, RCC_BDCR_RTCSEL);
 8005272:	4b2c      	ldr	r3, [pc, #176]	; (8005324 <HAL_RCCEx_PeriphCLKConfig+0x258>)
 8005274:	f8d3 3090 	ldr.w	r3, [r3, #144]	; 0x90
 8005278:	f403 7340 	and.w	r3, r3, #768	; 0x300
 800527c:	617b      	str	r3, [r7, #20]

      if((tmpregister != RCC_RTCCLKSOURCE_NONE) && (tmpregister != PeriphClkInit->RTCClockSelection))
 800527e:	697b      	ldr	r3, [r7, #20]
 8005280:	2b00      	cmp	r3, #0
 8005282:	d01f      	beq.n	80052c4 <HAL_RCCEx_PeriphCLKConfig+0x1f8>
 8005284:	687b      	ldr	r3, [r7, #4]
 8005286:	f8d3 3084 	ldr.w	r3, [r3, #132]	; 0x84
 800528a:	697a      	ldr	r2, [r7, #20]
 800528c:	429a      	cmp	r2, r3
 800528e:	d019      	beq.n	80052c4 <HAL_RCCEx_PeriphCLKConfig+0x1f8>
      {
        /* Store the content of BDCR register before the reset of Backup Domain */
        tmpregister = READ_BIT(RCC->BDCR, ~(RCC_BDCR_RTCSEL));
 8005290:	4b24      	ldr	r3, [pc, #144]	; (8005324 <HAL_RCCEx_PeriphCLKConfig+0x258>)
 8005292:	f8d3 3090 	ldr.w	r3, [r3, #144]	; 0x90
 8005296:	f423 7340 	bic.w	r3, r3, #768	; 0x300
 800529a:	617b      	str	r3, [r7, #20]
        /* RTC Clock selection can be changed only if the Backup Domain is reset */
        __HAL_RCC_BACKUPRESET_FORCE();
 800529c:	4b21      	ldr	r3, [pc, #132]	; (8005324 <HAL_RCCEx_PeriphCLKConfig+0x258>)
 800529e:	f8d3 3090 	ldr.w	r3, [r3, #144]	; 0x90
 80052a2:	4a20      	ldr	r2, [pc, #128]	; (8005324 <HAL_RCCEx_PeriphCLKConfig+0x258>)
 80052a4:	f443 3380 	orr.w	r3, r3, #65536	; 0x10000
 80052a8:	f8c2 3090 	str.w	r3, [r2, #144]	; 0x90
        __HAL_RCC_BACKUPRESET_RELEASE();
 80052ac:	4b1d      	ldr	r3, [pc, #116]	; (8005324 <HAL_RCCEx_PeriphCLKConfig+0x258>)
 80052ae:	f8d3 3090 	ldr.w	r3, [r3, #144]	; 0x90
 80052b2:	4a1c      	ldr	r2, [pc, #112]	; (8005324 <HAL_RCCEx_PeriphCLKConfig+0x258>)
 80052b4:	f423 3380 	bic.w	r3, r3, #65536	; 0x10000
 80052b8:	f8c2 3090 	str.w	r3, [r2, #144]	; 0x90
        /* Restore the Content of BDCR register */
        RCC->BDCR = tmpregister;
 80052bc:	4a19      	ldr	r2, [pc, #100]	; (8005324 <HAL_RCCEx_PeriphCLKConfig+0x258>)
 80052be:	697b      	ldr	r3, [r7, #20]
 80052c0:	f8c2 3090 	str.w	r3, [r2, #144]	; 0x90
      }

      /* Wait for LSE reactivation if LSE was enable prior to Backup Domain reset */
      if (HAL_IS_BIT_SET(tmpregister, RCC_BDCR_LSEON))
 80052c4:	697b      	ldr	r3, [r7, #20]
 80052c6:	f003 0301 	and.w	r3, r3, #1
 80052ca:	2b00      	cmp	r3, #0
 80052cc:	d016      	beq.n	80052fc <HAL_RCCEx_PeriphCLKConfig+0x230>
      {
        /* Get Start Tick*/
        tickstart = HAL_GetTick();
 80052ce:	f7fd fed9 	bl	8003084 <HAL_GetTick>
 80052d2:	60f8      	str	r0, [r7, #12]

        /* Wait till LSE is ready */
        while(READ_BIT(RCC->BDCR, RCC_BDCR_LSERDY) == 0U)
 80052d4:	e00b      	b.n	80052ee <HAL_RCCEx_PeriphCLKConfig+0x222>
        {
          if((HAL_GetTick() - tickstart) > RCC_LSE_TIMEOUT_VALUE)
 80052d6:	f7fd fed5 	bl	8003084 <HAL_GetTick>
 80052da:	4602      	mov	r2, r0
 80052dc:	68fb      	ldr	r3, [r7, #12]
 80052de:	1ad3      	subs	r3, r2, r3
 80052e0:	f241 3288 	movw	r2, #5000	; 0x1388
 80052e4:	4293      	cmp	r3, r2
 80052e6:	d902      	bls.n	80052ee <HAL_RCCEx_PeriphCLKConfig+0x222>
          {
            ret = HAL_TIMEOUT;
 80052e8:	2303      	movs	r3, #3
 80052ea:	74fb      	strb	r3, [r7, #19]
            break;
 80052ec:	e006      	b.n	80052fc <HAL_RCCEx_PeriphCLKConfig+0x230>
        while(READ_BIT(RCC->BDCR, RCC_BDCR_LSERDY) == 0U)
 80052ee:	4b0d      	ldr	r3, [pc, #52]	; (8005324 <HAL_RCCEx_PeriphCLKConfig+0x258>)
 80052f0:	f8d3 3090 	ldr.w	r3, [r3, #144]	; 0x90
 80052f4:	f003 0302 	and.w	r3, r3, #2
 80052f8:	2b00      	cmp	r3, #0
 80052fa:	d0ec      	beq.n	80052d6 <HAL_RCCEx_PeriphCLKConfig+0x20a>
          }
        }
      }

      if(ret == HAL_OK)
 80052fc:	7cfb      	ldrb	r3, [r7, #19]
 80052fe:	2b00      	cmp	r3, #0
 8005300:	d10c      	bne.n	800531c <HAL_RCCEx_PeriphCLKConfig+0x250>
      {
        /* Apply new RTC clock source selection */
        __HAL_RCC_RTC_CONFIG(PeriphClkInit->RTCClockSelection);
 8005302:	4b08      	ldr	r3, [pc, #32]	; (8005324 <HAL_RCCEx_PeriphCLKConfig+0x258>)
 8005304:	f8d3 3090 	ldr.w	r3, [r3, #144]	; 0x90
 8005308:	f423 7240 	bic.w	r2, r3, #768	; 0x300
 800530c:	687b      	ldr	r3, [r7, #4]
 800530e:	f8d3 3084 	ldr.w	r3, [r3, #132]	; 0x84
 8005312:	4904      	ldr	r1, [pc, #16]	; (8005324 <HAL_RCCEx_PeriphCLKConfig+0x258>)
 8005314:	4313      	orrs	r3, r2
 8005316:	f8c1 3090 	str.w	r3, [r1, #144]	; 0x90
 800531a:	e009      	b.n	8005330 <HAL_RCCEx_PeriphCLKConfig+0x264>
      }
      else
      {
        /* set overall return value */
        status = ret;
 800531c:	7cfb      	ldrb	r3, [r7, #19]
 800531e:	74bb      	strb	r3, [r7, #18]
 8005320:	e006      	b.n	8005330 <HAL_RCCEx_PeriphCLKConfig+0x264>
 8005322:	bf00      	nop
 8005324:	40021000 	.word	0x40021000
 8005328:	40007000 	.word	0x40007000
      }
    }
    else
    {
      /* set overall return value */
      status = ret;
 800532c:	7cfb      	ldrb	r3, [r7, #19]
 800532e:	74bb      	strb	r3, [r7, #18]
    }

    /* Restore clock configuration if changed */
    if(pwrclkchanged == SET)
 8005330:	7c7b      	ldrb	r3, [r7, #17]
 8005332:	2b01      	cmp	r3, #1
 8005334:	d105      	bne.n	8005342 <HAL_RCCEx_PeriphCLKConfig+0x276>
    {
      __HAL_RCC_PWR_CLK_DISABLE();
 8005336:	4b9e      	ldr	r3, [pc, #632]	; (80055b0 <HAL_RCCEx_PeriphCLKConfig+0x4e4>)
 8005338:	6d9b      	ldr	r3, [r3, #88]	; 0x58
 800533a:	4a9d      	ldr	r2, [pc, #628]	; (80055b0 <HAL_RCCEx_PeriphCLKConfig+0x4e4>)
 800533c:	f023 5380 	bic.w	r3, r3, #268435456	; 0x10000000
 8005340:	6593      	str	r3, [r2, #88]	; 0x58
    }
  }

  /*-------------------------- USART1 clock source configuration -------------------*/
  if(((PeriphClkInit->PeriphClockSelection) & RCC_PERIPHCLK_USART1) == RCC_PERIPHCLK_USART1)
 8005342:	687b      	ldr	r3, [r7, #4]
 8005344:	681b      	ldr	r3, [r3, #0]
 8005346:	f003 0301 	and.w	r3, r3, #1
 800534a:	2b00      	cmp	r3, #0
 800534c:	d00a      	beq.n	8005364 <HAL_RCCEx_PeriphCLKConfig+0x298>
  {
    /* Check the parameters */
    assert_param(IS_RCC_USART1CLKSOURCE(PeriphClkInit->Usart1ClockSelection));

    /* Configure the USART1 clock source */
    __HAL_RCC_USART1_CONFIG(PeriphClkInit->Usart1ClockSelection);
 800534e:	4b98      	ldr	r3, [pc, #608]	; (80055b0 <HAL_RCCEx_PeriphCLKConfig+0x4e4>)
 8005350:	f8d3 3088 	ldr.w	r3, [r3, #136]	; 0x88
 8005354:	f023 0203 	bic.w	r2, r3, #3
 8005358:	687b      	ldr	r3, [r7, #4]
 800535a:	6b9b      	ldr	r3, [r3, #56]	; 0x38
 800535c:	4994      	ldr	r1, [pc, #592]	; (80055b0 <HAL_RCCEx_PeriphCLKConfig+0x4e4>)
 800535e:	4313      	orrs	r3, r2
 8005360:	f8c1 3088 	str.w	r3, [r1, #136]	; 0x88
  }

  /*-------------------------- USART2 clock source configuration -------------------*/
  if(((PeriphClkInit->PeriphClockSelection) & RCC_PERIPHCLK_USART2) == RCC_PERIPHCLK_USART2)
 8005364:	687b      	ldr	r3, [r7, #4]
 8005366:	681b      	ldr	r3, [r3, #0]
 8005368:	f003 0302 	and.w	r3, r3, #2
 800536c:	2b00      	cmp	r3, #0
 800536e:	d00a      	beq.n	8005386 <HAL_RCCEx_PeriphCLKConfig+0x2ba>
  {
    /* Check the parameters */
    assert_param(IS_RCC_USART2CLKSOURCE(PeriphClkInit->Usart2ClockSelection));

    /* Configure the USART2 clock source */
    __HAL_RCC_USART2_CONFIG(PeriphClkInit->Usart2ClockSelection);
 8005370:	4b8f      	ldr	r3, [pc, #572]	; (80055b0 <HAL_RCCEx_PeriphCLKConfig+0x4e4>)
 8005372:	f8d3 3088 	ldr.w	r3, [r3, #136]	; 0x88
 8005376:	f023 020c 	bic.w	r2, r3, #12
 800537a:	687b      	ldr	r3, [r7, #4]
 800537c:	6bdb      	ldr	r3, [r3, #60]	; 0x3c
 800537e:	498c      	ldr	r1, [pc, #560]	; (80055b0 <HAL_RCCEx_PeriphCLKConfig+0x4e4>)
 8005380:	4313      	orrs	r3, r2
 8005382:	f8c1 3088 	str.w	r3, [r1, #136]	; 0x88
  }

#if defined(USART3)

  /*-------------------------- USART3 clock source configuration -------------------*/
  if(((PeriphClkInit->PeriphClockSelection) & RCC_PERIPHCLK_USART3) == RCC_PERIPHCLK_USART3)
 8005386:	687b      	ldr	r3, [r7, #4]
 8005388:	681b      	ldr	r3, [r3, #0]
 800538a:	f003 0304 	and.w	r3, r3, #4
 800538e:	2b00      	cmp	r3, #0
 8005390:	d00a      	beq.n	80053a8 <HAL_RCCEx_PeriphCLKConfig+0x2dc>
  {
    /* Check the parameters */
    assert_param(IS_RCC_USART3CLKSOURCE(PeriphClkInit->Usart3ClockSelection));

    /* Configure the USART3 clock source */
    __HAL_RCC_USART3_CONFIG(PeriphClkInit->Usart3ClockSelection);
 8005392:	4b87      	ldr	r3, [pc, #540]	; (80055b0 <HAL_RCCEx_PeriphCLKConfig+0x4e4>)
 8005394:	f8d3 3088 	ldr.w	r3, [r3, #136]	; 0x88
 8005398:	f023 0230 	bic.w	r2, r3, #48	; 0x30
 800539c:	687b      	ldr	r3, [r7, #4]
 800539e:	6c1b      	ldr	r3, [r3, #64]	; 0x40
 80053a0:	4983      	ldr	r1, [pc, #524]	; (80055b0 <HAL_RCCEx_PeriphCLKConfig+0x4e4>)
 80053a2:	4313      	orrs	r3, r2
 80053a4:	f8c1 3088 	str.w	r3, [r1, #136]	; 0x88
#endif /* USART3 */

#if defined(UART4)

  /*-------------------------- UART4 clock source configuration --------------------*/
  if(((PeriphClkInit->PeriphClockSelection) & RCC_PERIPHCLK_UART4) == RCC_PERIPHCLK_UART4)
 80053a8:	687b      	ldr	r3, [r7, #4]
 80053aa:	681b      	ldr	r3, [r3, #0]
 80053ac:	f003 0308 	and.w	r3, r3, #8
 80053b0:	2b00      	cmp	r3, #0
 80053b2:	d00a      	beq.n	80053ca <HAL_RCCEx_PeriphCLKConfig+0x2fe>
  {
    /* Check the parameters */
    assert_param(IS_RCC_UART4CLKSOURCE(PeriphClkInit->Uart4ClockSelection));

    /* Configure the UART4 clock source */
    __HAL_RCC_UART4_CONFIG(PeriphClkInit->Uart4ClockSelection);
 80053b4:	4b7e      	ldr	r3, [pc, #504]	; (80055b0 <HAL_RCCEx_PeriphCLKConfig+0x4e4>)
 80053b6:	f8d3 3088 	ldr.w	r3, [r3, #136]	; 0x88
 80053ba:	f023 02c0 	bic.w	r2, r3, #192	; 0xc0
 80053be:	687b      	ldr	r3, [r7, #4]
 80053c0:	6c5b      	ldr	r3, [r3, #68]	; 0x44
 80053c2:	497b      	ldr	r1, [pc, #492]	; (80055b0 <HAL_RCCEx_PeriphCLKConfig+0x4e4>)
 80053c4:	4313      	orrs	r3, r2
 80053c6:	f8c1 3088 	str.w	r3, [r1, #136]	; 0x88
#endif /* UART4 */

#if defined(UART5)

  /*-------------------------- UART5 clock source configuration --------------------*/
  if(((PeriphClkInit->PeriphClockSelection) & RCC_PERIPHCLK_UART5) == RCC_PERIPHCLK_UART5)
 80053ca:	687b      	ldr	r3, [r7, #4]
 80053cc:	681b      	ldr	r3, [r3, #0]
 80053ce:	f003 0310 	and.w	r3, r3, #16
 80053d2:	2b00      	cmp	r3, #0
 80053d4:	d00a      	beq.n	80053ec <HAL_RCCEx_PeriphCLKConfig+0x320>
  {
    /* Check the parameters */
    assert_param(IS_RCC_UART5CLKSOURCE(PeriphClkInit->Uart5ClockSelection));

    /* Configure the UART5 clock source */
    __HAL_RCC_UART5_CONFIG(PeriphClkInit->Uart5ClockSelection);
 80053d6:	4b76      	ldr	r3, [pc, #472]	; (80055b0 <HAL_RCCEx_PeriphCLKConfig+0x4e4>)
 80053d8:	f8d3 3088 	ldr.w	r3, [r3, #136]	; 0x88
 80053dc:	f423 7240 	bic.w	r2, r3, #768	; 0x300
 80053e0:	687b      	ldr	r3, [r7, #4]
 80053e2:	6c9b      	ldr	r3, [r3, #72]	; 0x48
 80053e4:	4972      	ldr	r1, [pc, #456]	; (80055b0 <HAL_RCCEx_PeriphCLKConfig+0x4e4>)
 80053e6:	4313      	orrs	r3, r2
 80053e8:	f8c1 3088 	str.w	r3, [r1, #136]	; 0x88
  }

#endif /* UART5 */

  /*-------------------------- LPUART1 clock source configuration ------------------*/
  if(((PeriphClkInit->PeriphClockSelection) & RCC_PERIPHCLK_LPUART1) == RCC_PERIPHCLK_LPUART1)
 80053ec:	687b      	ldr	r3, [r7, #4]
 80053ee:	681b      	ldr	r3, [r3, #0]
 80053f0:	f003 0320 	and.w	r3, r3, #32
 80053f4:	2b00      	cmp	r3, #0
 80053f6:	d00a      	beq.n	800540e <HAL_RCCEx_PeriphCLKConfig+0x342>
  {
    /* Check the parameters */
    assert_param(IS_RCC_LPUART1CLKSOURCE(PeriphClkInit->Lpuart1ClockSelection));

    /* Configure the LPUART1 clock source */
    __HAL_RCC_LPUART1_CONFIG(PeriphClkInit->Lpuart1ClockSelection);
 80053f8:	4b6d      	ldr	r3, [pc, #436]	; (80055b0 <HAL_RCCEx_PeriphCLKConfig+0x4e4>)
 80053fa:	f8d3 3088 	ldr.w	r3, [r3, #136]	; 0x88
 80053fe:	f423 6240 	bic.w	r2, r3, #3072	; 0xc00
 8005402:	687b      	ldr	r3, [r7, #4]
 8005404:	6cdb      	ldr	r3, [r3, #76]	; 0x4c
 8005406:	496a      	ldr	r1, [pc, #424]	; (80055b0 <HAL_RCCEx_PeriphCLKConfig+0x4e4>)
 8005408:	4313      	orrs	r3, r2
 800540a:	f8c1 3088 	str.w	r3, [r1, #136]	; 0x88
  }

  /*-------------------------- LPTIM1 clock source configuration -------------------*/
  if(((PeriphClkInit->PeriphClockSelection) & RCC_PERIPHCLK_LPTIM1) == (RCC_PERIPHCLK_LPTIM1))
 800540e:	687b      	ldr	r3, [r7, #4]
 8005410:	681b      	ldr	r3, [r3, #0]
 8005412:	f403 7300 	and.w	r3, r3, #512	; 0x200
 8005416:	2b00      	cmp	r3, #0
 8005418:	d00a      	beq.n	8005430 <HAL_RCCEx_PeriphCLKConfig+0x364>
  {
    assert_param(IS_RCC_LPTIM1CLK(PeriphClkInit->Lptim1ClockSelection));
    __HAL_RCC_LPTIM1_CONFIG(PeriphClkInit->Lptim1ClockSelection);
 800541a:	4b65      	ldr	r3, [pc, #404]	; (80055b0 <HAL_RCCEx_PeriphCLKConfig+0x4e4>)
 800541c:	f8d3 3088 	ldr.w	r3, [r3, #136]	; 0x88
 8005420:	f423 2240 	bic.w	r2, r3, #786432	; 0xc0000
 8005424:	687b      	ldr	r3, [r7, #4]
 8005426:	6ddb      	ldr	r3, [r3, #92]	; 0x5c
 8005428:	4961      	ldr	r1, [pc, #388]	; (80055b0 <HAL_RCCEx_PeriphCLKConfig+0x4e4>)
 800542a:	4313      	orrs	r3, r2
 800542c:	f8c1 3088 	str.w	r3, [r1, #136]	; 0x88
  }

  /*-------------------------- LPTIM2 clock source configuration -------------------*/
  if(((PeriphClkInit->PeriphClockSelection) & RCC_PERIPHCLK_LPTIM2) == (RCC_PERIPHCLK_LPTIM2))
 8005430:	687b      	ldr	r3, [r7, #4]
 8005432:	681b      	ldr	r3, [r3, #0]
 8005434:	f403 6380 	and.w	r3, r3, #1024	; 0x400
 8005438:	2b00      	cmp	r3, #0
 800543a:	d00a      	beq.n	8005452 <HAL_RCCEx_PeriphCLKConfig+0x386>
  {
    assert_param(IS_RCC_LPTIM2CLK(PeriphClkInit->Lptim2ClockSelection));
    __HAL_RCC_LPTIM2_CONFIG(PeriphClkInit->Lptim2ClockSelection);
 800543c:	4b5c      	ldr	r3, [pc, #368]	; (80055b0 <HAL_RCCEx_PeriphCLKConfig+0x4e4>)
 800543e:	f8d3 3088 	ldr.w	r3, [r3, #136]	; 0x88
 8005442:	f423 1240 	bic.w	r2, r3, #3145728	; 0x300000
 8005446:	687b      	ldr	r3, [r7, #4]
 8005448:	6e1b      	ldr	r3, [r3, #96]	; 0x60
 800544a:	4959      	ldr	r1, [pc, #356]	; (80055b0 <HAL_RCCEx_PeriphCLKConfig+0x4e4>)
 800544c:	4313      	orrs	r3, r2
 800544e:	f8c1 3088 	str.w	r3, [r1, #136]	; 0x88
  }

  /*-------------------------- I2C1 clock source configuration ---------------------*/
  if(((PeriphClkInit->PeriphClockSelection) & RCC_PERIPHCLK_I2C1) == RCC_PERIPHCLK_I2C1)
 8005452:	687b      	ldr	r3, [r7, #4]
 8005454:	681b      	ldr	r3, [r3, #0]
 8005456:	f003 0340 	and.w	r3, r3, #64	; 0x40
 800545a:	2b00      	cmp	r3, #0
 800545c:	d00a      	beq.n	8005474 <HAL_RCCEx_PeriphCLKConfig+0x3a8>
  {
    /* Check the parameters */
    assert_param(IS_RCC_I2C1CLKSOURCE(PeriphClkInit->I2c1ClockSelection));

    /* Configure the I2C1 clock source */
    __HAL_RCC_I2C1_CONFIG(PeriphClkInit->I2c1ClockSelection);
 800545e:	4b54      	ldr	r3, [pc, #336]	; (80055b0 <HAL_RCCEx_PeriphCLKConfig+0x4e4>)
 8005460:	f8d3 3088 	ldr.w	r3, [r3, #136]	; 0x88
 8005464:	f423 5240 	bic.w	r2, r3, #12288	; 0x3000
 8005468:	687b      	ldr	r3, [r7, #4]
 800546a:	6d1b      	ldr	r3, [r3, #80]	; 0x50
 800546c:	4950      	ldr	r1, [pc, #320]	; (80055b0 <HAL_RCCEx_PeriphCLKConfig+0x4e4>)
 800546e:	4313      	orrs	r3, r2
 8005470:	f8c1 3088 	str.w	r3, [r1, #136]	; 0x88
  }

#if defined(I2C2)

  /*-------------------------- I2C2 clock source configuration ---------------------*/
  if(((PeriphClkInit->PeriphClockSelection) & RCC_PERIPHCLK_I2C2) == RCC_PERIPHCLK_I2C2)
 8005474:	687b      	ldr	r3, [r7, #4]
 8005476:	681b      	ldr	r3, [r3, #0]
 8005478:	f003 0380 	and.w	r3, r3, #128	; 0x80
 800547c:	2b00      	cmp	r3, #0
 800547e:	d00a      	beq.n	8005496 <HAL_RCCEx_PeriphCLKConfig+0x3ca>
  {
    /* Check the parameters */
    assert_param(IS_RCC_I2C2CLKSOURCE(PeriphClkInit->I2c2ClockSelection));

    /* Configure the I2C2 clock source */
    __HAL_RCC_I2C2_CONFIG(PeriphClkInit->I2c2ClockSelection);
 8005480:	4b4b      	ldr	r3, [pc, #300]	; (80055b0 <HAL_RCCEx_PeriphCLKConfig+0x4e4>)
 8005482:	f8d3 3088 	ldr.w	r3, [r3, #136]	; 0x88
 8005486:	f423 4240 	bic.w	r2, r3, #49152	; 0xc000
 800548a:	687b      	ldr	r3, [r7, #4]
 800548c:	6d5b      	ldr	r3, [r3, #84]	; 0x54
 800548e:	4948      	ldr	r1, [pc, #288]	; (80055b0 <HAL_RCCEx_PeriphCLKConfig+0x4e4>)
 8005490:	4313      	orrs	r3, r2
 8005492:	f8c1 3088 	str.w	r3, [r1, #136]	; 0x88
  }

#endif /* I2C2 */

  /*-------------------------- I2C3 clock source configuration ---------------------*/
  if(((PeriphClkInit->PeriphClockSelection) & RCC_PERIPHCLK_I2C3) == RCC_PERIPHCLK_I2C3)
 8005496:	687b      	ldr	r3, [r7, #4]
 8005498:	681b      	ldr	r3, [r3, #0]
 800549a:	f403 7380 	and.w	r3, r3, #256	; 0x100
 800549e:	2b00      	cmp	r3, #0
 80054a0:	d00a      	beq.n	80054b8 <HAL_RCCEx_PeriphCLKConfig+0x3ec>
  {
    /* Check the parameters */
    assert_param(IS_RCC_I2C3CLKSOURCE(PeriphClkInit->I2c3ClockSelection));

    /* Configure the I2C3 clock source */
    __HAL_RCC_I2C3_CONFIG(PeriphClkInit->I2c3ClockSelection);
 80054a2:	4b43      	ldr	r3, [pc, #268]	; (80055b0 <HAL_RCCEx_PeriphCLKConfig+0x4e4>)
 80054a4:	f8d3 3088 	ldr.w	r3, [r3, #136]	; 0x88
 80054a8:	f423 3240 	bic.w	r2, r3, #196608	; 0x30000
 80054ac:	687b      	ldr	r3, [r7, #4]
 80054ae:	6d9b      	ldr	r3, [r3, #88]	; 0x58
 80054b0:	493f      	ldr	r1, [pc, #252]	; (80055b0 <HAL_RCCEx_PeriphCLKConfig+0x4e4>)
 80054b2:	4313      	orrs	r3, r2
 80054b4:	f8c1 3088 	str.w	r3, [r1, #136]	; 0x88
#endif /* I2C4 */

#if defined(USB_OTG_FS) || defined(USB)

  /*-------------------------- USB clock source configuration ----------------------*/
  if(((PeriphClkInit->PeriphClockSelection) & RCC_PERIPHCLK_USB) == (RCC_PERIPHCLK_USB))
 80054b8:	687b      	ldr	r3, [r7, #4]
 80054ba:	681b      	ldr	r3, [r3, #0]
 80054bc:	f403 5300 	and.w	r3, r3, #8192	; 0x2000
 80054c0:	2b00      	cmp	r3, #0
 80054c2:	d028      	beq.n	8005516 <HAL_RCCEx_PeriphCLKConfig+0x44a>
  {
    assert_param(IS_RCC_USBCLKSOURCE(PeriphClkInit->UsbClockSelection));
    __HAL_RCC_USB_CONFIG(PeriphClkInit->UsbClockSelection);
 80054c4:	4b3a      	ldr	r3, [pc, #232]	; (80055b0 <HAL_RCCEx_PeriphCLKConfig+0x4e4>)
 80054c6:	f8d3 3088 	ldr.w	r3, [r3, #136]	; 0x88
 80054ca:	f023 6240 	bic.w	r2, r3, #201326592	; 0xc000000
 80054ce:	687b      	ldr	r3, [r7, #4]
 80054d0:	6edb      	ldr	r3, [r3, #108]	; 0x6c
 80054d2:	4937      	ldr	r1, [pc, #220]	; (80055b0 <HAL_RCCEx_PeriphCLKConfig+0x4e4>)
 80054d4:	4313      	orrs	r3, r2
 80054d6:	f8c1 3088 	str.w	r3, [r1, #136]	; 0x88

    if(PeriphClkInit->UsbClockSelection == RCC_USBCLKSOURCE_PLL)
 80054da:	687b      	ldr	r3, [r7, #4]
 80054dc:	6edb      	ldr	r3, [r3, #108]	; 0x6c
 80054de:	f1b3 6f00 	cmp.w	r3, #134217728	; 0x8000000
 80054e2:	d106      	bne.n	80054f2 <HAL_RCCEx_PeriphCLKConfig+0x426>
    {
      /* Enable PLL48M1CLK output clock */
      __HAL_RCC_PLLCLKOUT_ENABLE(RCC_PLL_48M1CLK);
 80054e4:	4b32      	ldr	r3, [pc, #200]	; (80055b0 <HAL_RCCEx_PeriphCLKConfig+0x4e4>)
 80054e6:	68db      	ldr	r3, [r3, #12]
 80054e8:	4a31      	ldr	r2, [pc, #196]	; (80055b0 <HAL_RCCEx_PeriphCLKConfig+0x4e4>)
 80054ea:	f443 1380 	orr.w	r3, r3, #1048576	; 0x100000
 80054ee:	60d3      	str	r3, [r2, #12]
 80054f0:	e011      	b.n	8005516 <HAL_RCCEx_PeriphCLKConfig+0x44a>
    }
    else
    {
#if defined(RCC_PLLSAI1_SUPPORT)
      if(PeriphClkInit->UsbClockSelection == RCC_USBCLKSOURCE_PLLSAI1)
 80054f2:	687b      	ldr	r3, [r7, #4]
 80054f4:	6edb      	ldr	r3, [r3, #108]	; 0x6c
 80054f6:	f1b3 6f80 	cmp.w	r3, #67108864	; 0x4000000
 80054fa:	d10c      	bne.n	8005516 <HAL_RCCEx_PeriphCLKConfig+0x44a>
      {
        /* PLLSAI1 input clock, parameters M, N & Q configuration and clock output (PLLSAI1ClockOut) */
        ret = RCCEx_PLLSAI1_Config(&(PeriphClkInit->PLLSAI1), DIVIDER_Q_UPDATE);
 80054fc:	687b      	ldr	r3, [r7, #4]
 80054fe:	3304      	adds	r3, #4
 8005500:	2101      	movs	r1, #1
 8005502:	4618      	mov	r0, r3
 8005504:	f000 f8c8 	bl	8005698 <RCCEx_PLLSAI1_Config>
 8005508:	4603      	mov	r3, r0
 800550a:	74fb      	strb	r3, [r7, #19]

        if(ret != HAL_OK)
 800550c:	7cfb      	ldrb	r3, [r7, #19]
 800550e:	2b00      	cmp	r3, #0
 8005510:	d001      	beq.n	8005516 <HAL_RCCEx_PeriphCLKConfig+0x44a>
        {
          /* set overall return value */
          status = ret;
 8005512:	7cfb      	ldrb	r3, [r7, #19]
 8005514:	74bb      	strb	r3, [r7, #18]
#endif /* USB_OTG_FS || USB */

#if defined(SDMMC1)

  /*-------------------------- SDMMC1 clock source configuration -------------------*/
  if(((PeriphClkInit->PeriphClockSelection) & RCC_PERIPHCLK_SDMMC1) == (RCC_PERIPHCLK_SDMMC1))
 8005516:	687b      	ldr	r3, [r7, #4]
 8005518:	681b      	ldr	r3, [r3, #0]
 800551a:	f403 2300 	and.w	r3, r3, #524288	; 0x80000
 800551e:	2b00      	cmp	r3, #0
 8005520:	d028      	beq.n	8005574 <HAL_RCCEx_PeriphCLKConfig+0x4a8>
  {
    assert_param(IS_RCC_SDMMC1CLKSOURCE(PeriphClkInit->Sdmmc1ClockSelection));
    __HAL_RCC_SDMMC1_CONFIG(PeriphClkInit->Sdmmc1ClockSelection);
 8005522:	4b23      	ldr	r3, [pc, #140]	; (80055b0 <HAL_RCCEx_PeriphCLKConfig+0x4e4>)
 8005524:	f8d3 3088 	ldr.w	r3, [r3, #136]	; 0x88
 8005528:	f023 6240 	bic.w	r2, r3, #201326592	; 0xc000000
 800552c:	687b      	ldr	r3, [r7, #4]
 800552e:	6f1b      	ldr	r3, [r3, #112]	; 0x70
 8005530:	491f      	ldr	r1, [pc, #124]	; (80055b0 <HAL_RCCEx_PeriphCLKConfig+0x4e4>)
 8005532:	4313      	orrs	r3, r2
 8005534:	f8c1 3088 	str.w	r3, [r1, #136]	; 0x88

    if(PeriphClkInit->Sdmmc1ClockSelection == RCC_SDMMC1CLKSOURCE_PLL)   /* PLL "Q" ? */
 8005538:	687b      	ldr	r3, [r7, #4]
 800553a:	6f1b      	ldr	r3, [r3, #112]	; 0x70
 800553c:	f1b3 6f00 	cmp.w	r3, #134217728	; 0x8000000
 8005540:	d106      	bne.n	8005550 <HAL_RCCEx_PeriphCLKConfig+0x484>
    {
      /* Enable PLL48M1CLK output clock */
      __HAL_RCC_PLLCLKOUT_ENABLE(RCC_PLL_48M1CLK);
 8005542:	4b1b      	ldr	r3, [pc, #108]	; (80055b0 <HAL_RCCEx_PeriphCLKConfig+0x4e4>)
 8005544:	68db      	ldr	r3, [r3, #12]
 8005546:	4a1a      	ldr	r2, [pc, #104]	; (80055b0 <HAL_RCCEx_PeriphCLKConfig+0x4e4>)
 8005548:	f443 1380 	orr.w	r3, r3, #1048576	; 0x100000
 800554c:	60d3      	str	r3, [r2, #12]
 800554e:	e011      	b.n	8005574 <HAL_RCCEx_PeriphCLKConfig+0x4a8>
    {
      /* Enable PLLSAI3CLK output */
      __HAL_RCC_PLLCLKOUT_ENABLE(RCC_PLL_SAI3CLK);
    }
#endif
    else if(PeriphClkInit->Sdmmc1ClockSelection == RCC_SDMMC1CLKSOURCE_PLLSAI1)
 8005550:	687b      	ldr	r3, [r7, #4]
 8005552:	6f1b      	ldr	r3, [r3, #112]	; 0x70
 8005554:	f1b3 6f80 	cmp.w	r3, #67108864	; 0x4000000
 8005558:	d10c      	bne.n	8005574 <HAL_RCCEx_PeriphCLKConfig+0x4a8>
    {
      /* PLLSAI1 input clock, parameters M, N & Q configuration and clock output (PLLSAI1ClockOut) */
      ret = RCCEx_PLLSAI1_Config(&(PeriphClkInit->PLLSAI1), DIVIDER_Q_UPDATE);
 800555a:	687b      	ldr	r3, [r7, #4]
 800555c:	3304      	adds	r3, #4
 800555e:	2101      	movs	r1, #1
 8005560:	4618      	mov	r0, r3
 8005562:	f000 f899 	bl	8005698 <RCCEx_PLLSAI1_Config>
 8005566:	4603      	mov	r3, r0
 8005568:	74fb      	strb	r3, [r7, #19]

      if(ret != HAL_OK)
 800556a:	7cfb      	ldrb	r3, [r7, #19]
 800556c:	2b00      	cmp	r3, #0
 800556e:	d001      	beq.n	8005574 <HAL_RCCEx_PeriphCLKConfig+0x4a8>
      {
        /* set overall return value */
        status = ret;
 8005570:	7cfb      	ldrb	r3, [r7, #19]
 8005572:	74bb      	strb	r3, [r7, #18]
  }

#endif /* SDMMC1 */

  /*-------------------------- RNG clock source configuration ----------------------*/
  if(((PeriphClkInit->PeriphClockSelection) & RCC_PERIPHCLK_RNG) == (RCC_PERIPHCLK_RNG))
 8005574:	687b      	ldr	r3, [r7, #4]
 8005576:	681b      	ldr	r3, [r3, #0]
 8005578:	f403 2380 	and.w	r3, r3, #262144	; 0x40000
 800557c:	2b00      	cmp	r3, #0
 800557e:	d02b      	beq.n	80055d8 <HAL_RCCEx_PeriphCLKConfig+0x50c>
  {
    assert_param(IS_RCC_RNGCLKSOURCE(PeriphClkInit->RngClockSelection));
    __HAL_RCC_RNG_CONFIG(PeriphClkInit->RngClockSelection);
 8005580:	4b0b      	ldr	r3, [pc, #44]	; (80055b0 <HAL_RCCEx_PeriphCLKConfig+0x4e4>)
 8005582:	f8d3 3088 	ldr.w	r3, [r3, #136]	; 0x88
 8005586:	f023 6240 	bic.w	r2, r3, #201326592	; 0xc000000
 800558a:	687b      	ldr	r3, [r7, #4]
 800558c:	6f5b      	ldr	r3, [r3, #116]	; 0x74
 800558e:	4908      	ldr	r1, [pc, #32]	; (80055b0 <HAL_RCCEx_PeriphCLKConfig+0x4e4>)
 8005590:	4313      	orrs	r3, r2
 8005592:	f8c1 3088 	str.w	r3, [r1, #136]	; 0x88

    if(PeriphClkInit->RngClockSelection == RCC_RNGCLKSOURCE_PLL)
 8005596:	687b      	ldr	r3, [r7, #4]
 8005598:	6f5b      	ldr	r3, [r3, #116]	; 0x74
 800559a:	f1b3 6f00 	cmp.w	r3, #134217728	; 0x8000000
 800559e:	d109      	bne.n	80055b4 <HAL_RCCEx_PeriphCLKConfig+0x4e8>
    {
      /* Enable PLL48M1CLK output clock */
      __HAL_RCC_PLLCLKOUT_ENABLE(RCC_PLL_48M1CLK);
 80055a0:	4b03      	ldr	r3, [pc, #12]	; (80055b0 <HAL_RCCEx_PeriphCLKConfig+0x4e4>)
 80055a2:	68db      	ldr	r3, [r3, #12]
 80055a4:	4a02      	ldr	r2, [pc, #8]	; (80055b0 <HAL_RCCEx_PeriphCLKConfig+0x4e4>)
 80055a6:	f443 1380 	orr.w	r3, r3, #1048576	; 0x100000
 80055aa:	60d3      	str	r3, [r2, #12]
 80055ac:	e014      	b.n	80055d8 <HAL_RCCEx_PeriphCLKConfig+0x50c>
 80055ae:	bf00      	nop
 80055b0:	40021000 	.word	0x40021000
    }
#if defined(RCC_PLLSAI1_SUPPORT)
    else if(PeriphClkInit->RngClockSelection == RCC_RNGCLKSOURCE_PLLSAI1)
 80055b4:	687b      	ldr	r3, [r7, #4]
 80055b6:	6f5b      	ldr	r3, [r3, #116]	; 0x74
 80055b8:	f1b3 6f80 	cmp.w	r3, #67108864	; 0x4000000
 80055bc:	d10c      	bne.n	80055d8 <HAL_RCCEx_PeriphCLKConfig+0x50c>
    {
      /* PLLSAI1 input clock, parameters M, N & Q configuration and clock output (PLLSAI1ClockOut) */
      ret = RCCEx_PLLSAI1_Config(&(PeriphClkInit->PLLSAI1), DIVIDER_Q_UPDATE);
 80055be:	687b      	ldr	r3, [r7, #4]
 80055c0:	3304      	adds	r3, #4
 80055c2:	2101      	movs	r1, #1
 80055c4:	4618      	mov	r0, r3
 80055c6:	f000 f867 	bl	8005698 <RCCEx_PLLSAI1_Config>
 80055ca:	4603      	mov	r3, r0
 80055cc:	74fb      	strb	r3, [r7, #19]

      if(ret != HAL_OK)
 80055ce:	7cfb      	ldrb	r3, [r7, #19]
 80055d0:	2b00      	cmp	r3, #0
 80055d2:	d001      	beq.n	80055d8 <HAL_RCCEx_PeriphCLKConfig+0x50c>
      {
        /* set overall return value */
        status = ret;
 80055d4:	7cfb      	ldrb	r3, [r7, #19]
 80055d6:	74bb      	strb	r3, [r7, #18]
    }
  }

  /*-------------------------- ADC clock source configuration ----------------------*/
#if !defined(STM32L412xx) && !defined(STM32L422xx)
  if(((PeriphClkInit->PeriphClockSelection) & RCC_PERIPHCLK_ADC) == RCC_PERIPHCLK_ADC)
 80055d8:	687b      	ldr	r3, [r7, #4]
 80055da:	681b      	ldr	r3, [r3, #0]
 80055dc:	f403 4380 	and.w	r3, r3, #16384	; 0x4000
 80055e0:	2b00      	cmp	r3, #0
 80055e2:	d02f      	beq.n	8005644 <HAL_RCCEx_PeriphCLKConfig+0x578>
  {
    /* Check the parameters */
    assert_param(IS_RCC_ADCCLKSOURCE(PeriphClkInit->AdcClockSelection));

    /* Configure the ADC interface clock source */
    __HAL_RCC_ADC_CONFIG(PeriphClkInit->AdcClockSelection);
 80055e4:	4b2b      	ldr	r3, [pc, #172]	; (8005694 <HAL_RCCEx_PeriphCLKConfig+0x5c8>)
 80055e6:	f8d3 3088 	ldr.w	r3, [r3, #136]	; 0x88
 80055ea:	f023 5240 	bic.w	r2, r3, #805306368	; 0x30000000
 80055ee:	687b      	ldr	r3, [r7, #4]
 80055f0:	6f9b      	ldr	r3, [r3, #120]	; 0x78
 80055f2:	4928      	ldr	r1, [pc, #160]	; (8005694 <HAL_RCCEx_PeriphCLKConfig+0x5c8>)
 80055f4:	4313      	orrs	r3, r2
 80055f6:	f8c1 3088 	str.w	r3, [r1, #136]	; 0x88

#if defined(RCC_PLLSAI1_SUPPORT)
    if(PeriphClkInit->AdcClockSelection == RCC_ADCCLKSOURCE_PLLSAI1)
 80055fa:	687b      	ldr	r3, [r7, #4]
 80055fc:	6f9b      	ldr	r3, [r3, #120]	; 0x78
 80055fe:	f1b3 5f80 	cmp.w	r3, #268435456	; 0x10000000
 8005602:	d10d      	bne.n	8005620 <HAL_RCCEx_PeriphCLKConfig+0x554>
    {
      /* PLLSAI1 input clock, parameters M, N & R configuration and clock output (PLLSAI1ClockOut) */
      ret = RCCEx_PLLSAI1_Config(&(PeriphClkInit->PLLSAI1), DIVIDER_R_UPDATE);
 8005604:	687b      	ldr	r3, [r7, #4]
 8005606:	3304      	adds	r3, #4
 8005608:	2102      	movs	r1, #2
 800560a:	4618      	mov	r0, r3
 800560c:	f000 f844 	bl	8005698 <RCCEx_PLLSAI1_Config>
 8005610:	4603      	mov	r3, r0
 8005612:	74fb      	strb	r3, [r7, #19]

      if(ret != HAL_OK)
 8005614:	7cfb      	ldrb	r3, [r7, #19]
 8005616:	2b00      	cmp	r3, #0
 8005618:	d014      	beq.n	8005644 <HAL_RCCEx_PeriphCLKConfig+0x578>
      {
        /* set overall return value */
        status = ret;
 800561a:	7cfb      	ldrb	r3, [r7, #19]
 800561c:	74bb      	strb	r3, [r7, #18]
 800561e:	e011      	b.n	8005644 <HAL_RCCEx_PeriphCLKConfig+0x578>
    }
#endif /* RCC_PLLSAI1_SUPPORT */

#if defined(STM32L471xx) || defined(STM32L475xx) || defined(STM32L476xx) || defined(STM32L485xx) || defined(STM32L486xx) || defined(STM32L496xx) || defined(STM32L4A6xx)

    else if(PeriphClkInit->AdcClockSelection == RCC_ADCCLKSOURCE_PLLSAI2)
 8005620:	687b      	ldr	r3, [r7, #4]
 8005622:	6f9b      	ldr	r3, [r3, #120]	; 0x78
 8005624:	f1b3 5f00 	cmp.w	r3, #536870912	; 0x20000000
 8005628:	d10c      	bne.n	8005644 <HAL_RCCEx_PeriphCLKConfig+0x578>
    {
      /* PLLSAI2 input clock, parameters M, N & R configuration and clock output (PLLSAI2ClockOut) */
      ret = RCCEx_PLLSAI2_Config(&(PeriphClkInit->PLLSAI2), DIVIDER_R_UPDATE);
 800562a:	687b      	ldr	r3, [r7, #4]
 800562c:	3320      	adds	r3, #32
 800562e:	2102      	movs	r1, #2
 8005630:	4618      	mov	r0, r3
 8005632:	f000 f921 	bl	8005878 <RCCEx_PLLSAI2_Config>
 8005636:	4603      	mov	r3, r0
 8005638:	74fb      	strb	r3, [r7, #19]

      if(ret != HAL_OK)
 800563a:	7cfb      	ldrb	r3, [r7, #19]
 800563c:	2b00      	cmp	r3, #0
 800563e:	d001      	beq.n	8005644 <HAL_RCCEx_PeriphCLKConfig+0x578>
      {
        /* set overall return value */
        status = ret;
 8005640:	7cfb      	ldrb	r3, [r7, #19]
 8005642:	74bb      	strb	r3, [r7, #18]
#endif /* !STM32L412xx && !STM32L422xx */

#if defined(SWPMI1)

  /*-------------------------- SWPMI1 clock source configuration -------------------*/
  if(((PeriphClkInit->PeriphClockSelection) & RCC_PERIPHCLK_SWPMI1) == RCC_PERIPHCLK_SWPMI1)
 8005644:	687b      	ldr	r3, [r7, #4]
 8005646:	681b      	ldr	r3, [r3, #0]
 8005648:	f403 4300 	and.w	r3, r3, #32768	; 0x8000
 800564c:	2b00      	cmp	r3, #0
 800564e:	d00a      	beq.n	8005666 <HAL_RCCEx_PeriphCLKConfig+0x59a>
  {
    /* Check the parameters */
    assert_param(IS_RCC_SWPMI1CLKSOURCE(PeriphClkInit->Swpmi1ClockSelection));

    /* Configure the SWPMI1 clock source */
    __HAL_RCC_SWPMI1_CONFIG(PeriphClkInit->Swpmi1ClockSelection);
 8005650:	4b10      	ldr	r3, [pc, #64]	; (8005694 <HAL_RCCEx_PeriphCLKConfig+0x5c8>)
 8005652:	f8d3 3088 	ldr.w	r3, [r3, #136]	; 0x88
 8005656:	f023 4280 	bic.w	r2, r3, #1073741824	; 0x40000000
 800565a:	687b      	ldr	r3, [r7, #4]
 800565c:	6fdb      	ldr	r3, [r3, #124]	; 0x7c
 800565e:	490d      	ldr	r1, [pc, #52]	; (8005694 <HAL_RCCEx_PeriphCLKConfig+0x5c8>)
 8005660:	4313      	orrs	r3, r2
 8005662:	f8c1 3088 	str.w	r3, [r1, #136]	; 0x88
#endif /* SWPMI1 */

#if defined(DFSDM1_Filter0)

  /*-------------------------- DFSDM1 clock source configuration -------------------*/
  if(((PeriphClkInit->PeriphClockSelection) & RCC_PERIPHCLK_DFSDM1) == RCC_PERIPHCLK_DFSDM1)
 8005666:	687b      	ldr	r3, [r7, #4]
 8005668:	681b      	ldr	r3, [r3, #0]
 800566a:	f403 3380 	and.w	r3, r3, #65536	; 0x10000
 800566e:	2b00      	cmp	r3, #0
 8005670:	d00b      	beq.n	800568a <HAL_RCCEx_PeriphCLKConfig+0x5be>
  {
    /* Check the parameters */
    assert_param(IS_RCC_DFSDM1CLKSOURCE(PeriphClkInit->Dfsdm1ClockSelection));

    /* Configure the DFSDM1 interface clock source */
    __HAL_RCC_DFSDM1_CONFIG(PeriphClkInit->Dfsdm1ClockSelection);
 8005672:	4b08      	ldr	r3, [pc, #32]	; (8005694 <HAL_RCCEx_PeriphCLKConfig+0x5c8>)
 8005674:	f8d3 3088 	ldr.w	r3, [r3, #136]	; 0x88
 8005678:	f023 4200 	bic.w	r2, r3, #2147483648	; 0x80000000
 800567c:	687b      	ldr	r3, [r7, #4]
 800567e:	f8d3 3080 	ldr.w	r3, [r3, #128]	; 0x80
 8005682:	4904      	ldr	r1, [pc, #16]	; (8005694 <HAL_RCCEx_PeriphCLKConfig+0x5c8>)
 8005684:	4313      	orrs	r3, r2
 8005686:	f8c1 3088 	str.w	r3, [r1, #136]	; 0x88
    }
  }

#endif /* OCTOSPI1 || OCTOSPI2 */

  return status;
 800568a:	7cbb      	ldrb	r3, [r7, #18]
}
 800568c:	4618      	mov	r0, r3
 800568e:	3718      	adds	r7, #24
 8005690:	46bd      	mov	sp, r7
 8005692:	bd80      	pop	{r7, pc}
 8005694:	40021000 	.word	0x40021000

08005698 <RCCEx_PLLSAI1_Config>:
  * @note   PLLSAI1 is temporary disable to apply new parameters
  *
  * @retval HAL status
  */
static HAL_StatusTypeDef RCCEx_PLLSAI1_Config(RCC_PLLSAI1InitTypeDef *PllSai1, uint32_t Divider)
{
 8005698:	b580      	push	{r7, lr}
 800569a:	b084      	sub	sp, #16
 800569c:	af00      	add	r7, sp, #0
 800569e:	6078      	str	r0, [r7, #4]
 80056a0:	6039      	str	r1, [r7, #0]
  uint32_t tickstart;
  HAL_StatusTypeDef status = HAL_OK;
 80056a2:	2300      	movs	r3, #0
 80056a4:	73fb      	strb	r3, [r7, #15]
  assert_param(IS_RCC_PLLSAI1M_VALUE(PllSai1->PLLSAI1M));
  assert_param(IS_RCC_PLLSAI1N_VALUE(PllSai1->PLLSAI1N));
  assert_param(IS_RCC_PLLSAI1CLOCKOUT_VALUE(PllSai1->PLLSAI1ClockOut));

  /* Check that PLLSAI1 clock source and divider M can be applied */
  if(__HAL_RCC_GET_PLL_OSCSOURCE() != RCC_PLLSOURCE_NONE)
 80056a6:	4b73      	ldr	r3, [pc, #460]	; (8005874 <RCCEx_PLLSAI1_Config+0x1dc>)
 80056a8:	68db      	ldr	r3, [r3, #12]
 80056aa:	f003 0303 	and.w	r3, r3, #3
 80056ae:	2b00      	cmp	r3, #0
 80056b0:	d018      	beq.n	80056e4 <RCCEx_PLLSAI1_Config+0x4c>
  {
    /* PLL clock source and divider M already set, check that no request for change  */
    if((__HAL_RCC_GET_PLL_OSCSOURCE() != PllSai1->PLLSAI1Source)
 80056b2:	4b70      	ldr	r3, [pc, #448]	; (8005874 <RCCEx_PLLSAI1_Config+0x1dc>)
 80056b4:	68db      	ldr	r3, [r3, #12]
 80056b6:	f003 0203 	and.w	r2, r3, #3
 80056ba:	687b      	ldr	r3, [r7, #4]
 80056bc:	681b      	ldr	r3, [r3, #0]
 80056be:	429a      	cmp	r2, r3
 80056c0:	d10d      	bne.n	80056de <RCCEx_PLLSAI1_Config+0x46>
       ||
       (PllSai1->PLLSAI1Source == RCC_PLLSOURCE_NONE)
 80056c2:	687b      	ldr	r3, [r7, #4]
 80056c4:	681b      	ldr	r3, [r3, #0]
       ||
 80056c6:	2b00      	cmp	r3, #0
 80056c8:	d009      	beq.n	80056de <RCCEx_PLLSAI1_Config+0x46>
#if !defined(RCC_PLLSAI1M_DIV_1_16_SUPPORT)
       ||
       (((READ_BIT(RCC->PLLCFGR, RCC_PLLCFGR_PLLM) >> RCC_PLLCFGR_PLLM_Pos) + 1U) != PllSai1->PLLSAI1M)
 80056ca:	4b6a      	ldr	r3, [pc, #424]	; (8005874 <RCCEx_PLLSAI1_Config+0x1dc>)
 80056cc:	68db      	ldr	r3, [r3, #12]
 80056ce:	091b      	lsrs	r3, r3, #4
 80056d0:	f003 0307 	and.w	r3, r3, #7
 80056d4:	1c5a      	adds	r2, r3, #1
 80056d6:	687b      	ldr	r3, [r7, #4]
 80056d8:	685b      	ldr	r3, [r3, #4]
       ||
 80056da:	429a      	cmp	r2, r3
 80056dc:	d044      	beq.n	8005768 <RCCEx_PLLSAI1_Config+0xd0>
#endif
      )
    {
      status = HAL_ERROR;
 80056de:	2301      	movs	r3, #1
 80056e0:	73fb      	strb	r3, [r7, #15]
 80056e2:	e041      	b.n	8005768 <RCCEx_PLLSAI1_Config+0xd0>
    }
  }
  else
  {
    /* Check PLLSAI1 clock source availability */
    switch(PllSai1->PLLSAI1Source)
 80056e4:	687b      	ldr	r3, [r7, #4]
 80056e6:	681b      	ldr	r3, [r3, #0]
 80056e8:	2b02      	cmp	r3, #2
 80056ea:	d00c      	beq.n	8005706 <RCCEx_PLLSAI1_Config+0x6e>
 80056ec:	2b03      	cmp	r3, #3
 80056ee:	d013      	beq.n	8005718 <RCCEx_PLLSAI1_Config+0x80>
 80056f0:	2b01      	cmp	r3, #1
 80056f2:	d120      	bne.n	8005736 <RCCEx_PLLSAI1_Config+0x9e>
    {
    case RCC_PLLSOURCE_MSI:
      if(HAL_IS_BIT_CLR(RCC->CR, RCC_CR_MSIRDY))
 80056f4:	4b5f      	ldr	r3, [pc, #380]	; (8005874 <RCCEx_PLLSAI1_Config+0x1dc>)
 80056f6:	681b      	ldr	r3, [r3, #0]
 80056f8:	f003 0302 	and.w	r3, r3, #2
 80056fc:	2b00      	cmp	r3, #0
 80056fe:	d11d      	bne.n	800573c <RCCEx_PLLSAI1_Config+0xa4>
      {
        status = HAL_ERROR;
 8005700:	2301      	movs	r3, #1
 8005702:	73fb      	strb	r3, [r7, #15]
      }
      break;
 8005704:	e01a      	b.n	800573c <RCCEx_PLLSAI1_Config+0xa4>
    case RCC_PLLSOURCE_HSI:
      if(HAL_IS_BIT_CLR(RCC->CR, RCC_CR_HSIRDY))
 8005706:	4b5b      	ldr	r3, [pc, #364]	; (8005874 <RCCEx_PLLSAI1_Config+0x1dc>)
 8005708:	681b      	ldr	r3, [r3, #0]
 800570a:	f403 6380 	and.w	r3, r3, #1024	; 0x400
 800570e:	2b00      	cmp	r3, #0
 8005710:	d116      	bne.n	8005740 <RCCEx_PLLSAI1_Config+0xa8>
      {
        status = HAL_ERROR;
 8005712:	2301      	movs	r3, #1
 8005714:	73fb      	strb	r3, [r7, #15]
      }
      break;
 8005716:	e013      	b.n	8005740 <RCCEx_PLLSAI1_Config+0xa8>
    case RCC_PLLSOURCE_HSE:
      if(HAL_IS_BIT_CLR(RCC->CR, RCC_CR_HSERDY))
 8005718:	4b56      	ldr	r3, [pc, #344]	; (8005874 <RCCEx_PLLSAI1_Config+0x1dc>)
 800571a:	681b      	ldr	r3, [r3, #0]
 800571c:	f403 3300 	and.w	r3, r3, #131072	; 0x20000
 8005720:	2b00      	cmp	r3, #0
 8005722:	d10f      	bne.n	8005744 <RCCEx_PLLSAI1_Config+0xac>
      {
        if(HAL_IS_BIT_CLR(RCC->CR, RCC_CR_HSEBYP))
 8005724:	4b53      	ldr	r3, [pc, #332]	; (8005874 <RCCEx_PLLSAI1_Config+0x1dc>)
 8005726:	681b      	ldr	r3, [r3, #0]
 8005728:	f403 2380 	and.w	r3, r3, #262144	; 0x40000
 800572c:	2b00      	cmp	r3, #0
 800572e:	d109      	bne.n	8005744 <RCCEx_PLLSAI1_Config+0xac>
        {
          status = HAL_ERROR;
 8005730:	2301      	movs	r3, #1
 8005732:	73fb      	strb	r3, [r7, #15]
        }
      }
      break;
 8005734:	e006      	b.n	8005744 <RCCEx_PLLSAI1_Config+0xac>
    default:
      status = HAL_ERROR;
 8005736:	2301      	movs	r3, #1
 8005738:	73fb      	strb	r3, [r7, #15]
      break;
 800573a:	e004      	b.n	8005746 <RCCEx_PLLSAI1_Config+0xae>
      break;
 800573c:	bf00      	nop
 800573e:	e002      	b.n	8005746 <RCCEx_PLLSAI1_Config+0xae>
      break;
 8005740:	bf00      	nop
 8005742:	e000      	b.n	8005746 <RCCEx_PLLSAI1_Config+0xae>
      break;
 8005744:	bf00      	nop
    }

    if(status == HAL_OK)
 8005746:	7bfb      	ldrb	r3, [r7, #15]
 8005748:	2b00      	cmp	r3, #0
 800574a:	d10d      	bne.n	8005768 <RCCEx_PLLSAI1_Config+0xd0>
#if defined(RCC_PLLSAI1M_DIV_1_16_SUPPORT)
      /* Set PLLSAI1 clock source */
      MODIFY_REG(RCC->PLLCFGR, RCC_PLLCFGR_PLLSRC, PllSai1->PLLSAI1Source);
#else
      /* Set PLLSAI1 clock source and divider M */
      MODIFY_REG(RCC->PLLCFGR, RCC_PLLCFGR_PLLSRC | RCC_PLLCFGR_PLLM, PllSai1->PLLSAI1Source | (PllSai1->PLLSAI1M - 1U) << RCC_PLLCFGR_PLLM_Pos);
 800574c:	4b49      	ldr	r3, [pc, #292]	; (8005874 <RCCEx_PLLSAI1_Config+0x1dc>)
 800574e:	68db      	ldr	r3, [r3, #12]
 8005750:	f023 0273 	bic.w	r2, r3, #115	; 0x73
 8005754:	687b      	ldr	r3, [r7, #4]
 8005756:	6819      	ldr	r1, [r3, #0]
 8005758:	687b      	ldr	r3, [r7, #4]
 800575a:	685b      	ldr	r3, [r3, #4]
 800575c:	3b01      	subs	r3, #1
 800575e:	011b      	lsls	r3, r3, #4
 8005760:	430b      	orrs	r3, r1
 8005762:	4944      	ldr	r1, [pc, #272]	; (8005874 <RCCEx_PLLSAI1_Config+0x1dc>)
 8005764:	4313      	orrs	r3, r2
 8005766:	60cb      	str	r3, [r1, #12]
#endif
    }
  }

  if(status == HAL_OK)
 8005768:	7bfb      	ldrb	r3, [r7, #15]
 800576a:	2b00      	cmp	r3, #0
 800576c:	d17d      	bne.n	800586a <RCCEx_PLLSAI1_Config+0x1d2>
  {
    /* Disable the PLLSAI1 */
    __HAL_RCC_PLLSAI1_DISABLE();
 800576e:	4b41      	ldr	r3, [pc, #260]	; (8005874 <RCCEx_PLLSAI1_Config+0x1dc>)
 8005770:	681b      	ldr	r3, [r3, #0]
 8005772:	4a40      	ldr	r2, [pc, #256]	; (8005874 <RCCEx_PLLSAI1_Config+0x1dc>)
 8005774:	f023 6380 	bic.w	r3, r3, #67108864	; 0x4000000
 8005778:	6013      	str	r3, [r2, #0]

    /* Get Start Tick*/
    tickstart = HAL_GetTick();
 800577a:	f7fd fc83 	bl	8003084 <HAL_GetTick>
 800577e:	60b8      	str	r0, [r7, #8]

    /* Wait till PLLSAI1 is ready to be updated */
    while(READ_BIT(RCC->CR, RCC_CR_PLLSAI1RDY) != 0U)
 8005780:	e009      	b.n	8005796 <RCCEx_PLLSAI1_Config+0xfe>
    {
      if((HAL_GetTick() - tickstart) > PLLSAI1_TIMEOUT_VALUE)
 8005782:	f7fd fc7f 	bl	8003084 <HAL_GetTick>
 8005786:	4602      	mov	r2, r0
 8005788:	68bb      	ldr	r3, [r7, #8]
 800578a:	1ad3      	subs	r3, r2, r3
 800578c:	2b02      	cmp	r3, #2
 800578e:	d902      	bls.n	8005796 <RCCEx_PLLSAI1_Config+0xfe>
      {
        status = HAL_TIMEOUT;
 8005790:	2303      	movs	r3, #3
 8005792:	73fb      	strb	r3, [r7, #15]
        break;
 8005794:	e005      	b.n	80057a2 <RCCEx_PLLSAI1_Config+0x10a>
    while(READ_BIT(RCC->CR, RCC_CR_PLLSAI1RDY) != 0U)
 8005796:	4b37      	ldr	r3, [pc, #220]	; (8005874 <RCCEx_PLLSAI1_Config+0x1dc>)
 8005798:	681b      	ldr	r3, [r3, #0]
 800579a:	f003 6300 	and.w	r3, r3, #134217728	; 0x8000000
 800579e:	2b00      	cmp	r3, #0
 80057a0:	d1ef      	bne.n	8005782 <RCCEx_PLLSAI1_Config+0xea>
      }
    }

    if(status == HAL_OK)
 80057a2:	7bfb      	ldrb	r3, [r7, #15]
 80057a4:	2b00      	cmp	r3, #0
 80057a6:	d160      	bne.n	800586a <RCCEx_PLLSAI1_Config+0x1d2>
    {
      if(Divider == DIVIDER_P_UPDATE)
 80057a8:	683b      	ldr	r3, [r7, #0]
 80057aa:	2b00      	cmp	r3, #0
 80057ac:	d111      	bne.n	80057d2 <RCCEx_PLLSAI1_Config+0x13a>
        MODIFY_REG(RCC->PLLSAI1CFGR,
                   RCC_PLLSAI1CFGR_PLLSAI1N | RCC_PLLSAI1CFGR_PLLSAI1PDIV,
                   (PllSai1->PLLSAI1N << RCC_PLLSAI1CFGR_PLLSAI1N_Pos) |
                   (PllSai1->PLLSAI1P << RCC_PLLSAI1CFGR_PLLSAI1PDIV_Pos));
#else
        MODIFY_REG(RCC->PLLSAI1CFGR,
 80057ae:	4b31      	ldr	r3, [pc, #196]	; (8005874 <RCCEx_PLLSAI1_Config+0x1dc>)
 80057b0:	691b      	ldr	r3, [r3, #16]
 80057b2:	f423 331f 	bic.w	r3, r3, #162816	; 0x27c00
 80057b6:	f423 7340 	bic.w	r3, r3, #768	; 0x300
 80057ba:	687a      	ldr	r2, [r7, #4]
 80057bc:	6892      	ldr	r2, [r2, #8]
 80057be:	0211      	lsls	r1, r2, #8
 80057c0:	687a      	ldr	r2, [r7, #4]
 80057c2:	68d2      	ldr	r2, [r2, #12]
 80057c4:	0912      	lsrs	r2, r2, #4
 80057c6:	0452      	lsls	r2, r2, #17
 80057c8:	430a      	orrs	r2, r1
 80057ca:	492a      	ldr	r1, [pc, #168]	; (8005874 <RCCEx_PLLSAI1_Config+0x1dc>)
 80057cc:	4313      	orrs	r3, r2
 80057ce:	610b      	str	r3, [r1, #16]
 80057d0:	e027      	b.n	8005822 <RCCEx_PLLSAI1_Config+0x18a>
                   ((PllSai1->PLLSAI1P >> 4U) << RCC_PLLSAI1CFGR_PLLSAI1P_Pos));
#endif /* RCC_PLLSAI1P_DIV_2_31_SUPPORT */

#endif /* RCC_PLLSAI1M_DIV_1_16_SUPPORT */
      }
      else if(Divider == DIVIDER_Q_UPDATE)
 80057d2:	683b      	ldr	r3, [r7, #0]
 80057d4:	2b01      	cmp	r3, #1
 80057d6:	d112      	bne.n	80057fe <RCCEx_PLLSAI1_Config+0x166>
                   (PllSai1->PLLSAI1N << RCC_PLLSAI1CFGR_PLLSAI1N_Pos) |
                   (((PllSai1->PLLSAI1Q >> 1U) - 1U) << RCC_PLLSAI1CFGR_PLLSAI1Q_Pos) |
                   ((PllSai1->PLLSAI1M - 1U) << RCC_PLLSAI1CFGR_PLLSAI1M_Pos));
#else
        /* Configure the PLLSAI1 Division factor Q and Multiplication factor N*/
        MODIFY_REG(RCC->PLLSAI1CFGR,
 80057d8:	4b26      	ldr	r3, [pc, #152]	; (8005874 <RCCEx_PLLSAI1_Config+0x1dc>)
 80057da:	691b      	ldr	r3, [r3, #16]
 80057dc:	f423 03c0 	bic.w	r3, r3, #6291456	; 0x600000
 80057e0:	f423 43fe 	bic.w	r3, r3, #32512	; 0x7f00
 80057e4:	687a      	ldr	r2, [r7, #4]
 80057e6:	6892      	ldr	r2, [r2, #8]
 80057e8:	0211      	lsls	r1, r2, #8
 80057ea:	687a      	ldr	r2, [r7, #4]
 80057ec:	6912      	ldr	r2, [r2, #16]
 80057ee:	0852      	lsrs	r2, r2, #1
 80057f0:	3a01      	subs	r2, #1
 80057f2:	0552      	lsls	r2, r2, #21
 80057f4:	430a      	orrs	r2, r1
 80057f6:	491f      	ldr	r1, [pc, #124]	; (8005874 <RCCEx_PLLSAI1_Config+0x1dc>)
 80057f8:	4313      	orrs	r3, r2
 80057fa:	610b      	str	r3, [r1, #16]
 80057fc:	e011      	b.n	8005822 <RCCEx_PLLSAI1_Config+0x18a>
                   (PllSai1->PLLSAI1N << RCC_PLLSAI1CFGR_PLLSAI1N_Pos) |
                   (((PllSai1->PLLSAI1R >> 1U) - 1U) << RCC_PLLSAI1CFGR_PLLSAI1R_Pos) |
                   ((PllSai1->PLLSAI1M - 1U) << RCC_PLLSAI1CFGR_PLLSAI1M_Pos));
#else
        /* Configure the PLLSAI1 Division factor R and Multiplication factor N*/
        MODIFY_REG(RCC->PLLSAI1CFGR,
 80057fe:	4b1d      	ldr	r3, [pc, #116]	; (8005874 <RCCEx_PLLSAI1_Config+0x1dc>)
 8005800:	691b      	ldr	r3, [r3, #16]
 8005802:	f023 63c0 	bic.w	r3, r3, #100663296	; 0x6000000
 8005806:	f423 43fe 	bic.w	r3, r3, #32512	; 0x7f00
 800580a:	687a      	ldr	r2, [r7, #4]
 800580c:	6892      	ldr	r2, [r2, #8]
 800580e:	0211      	lsls	r1, r2, #8
 8005810:	687a      	ldr	r2, [r7, #4]
 8005812:	6952      	ldr	r2, [r2, #20]
 8005814:	0852      	lsrs	r2, r2, #1
 8005816:	3a01      	subs	r2, #1
 8005818:	0652      	lsls	r2, r2, #25
 800581a:	430a      	orrs	r2, r1
 800581c:	4915      	ldr	r1, [pc, #84]	; (8005874 <RCCEx_PLLSAI1_Config+0x1dc>)
 800581e:	4313      	orrs	r3, r2
 8005820:	610b      	str	r3, [r1, #16]
                   (((PllSai1->PLLSAI1R >> 1U) - 1U) << RCC_PLLSAI1CFGR_PLLSAI1R_Pos));
#endif /* RCC_PLLSAI1M_DIV_1_16_SUPPORT */
      }

      /* Enable the PLLSAI1 again by setting PLLSAI1ON to 1*/
      __HAL_RCC_PLLSAI1_ENABLE();
 8005822:	4b14      	ldr	r3, [pc, #80]	; (8005874 <RCCEx_PLLSAI1_Config+0x1dc>)
 8005824:	681b      	ldr	r3, [r3, #0]
 8005826:	4a13      	ldr	r2, [pc, #76]	; (8005874 <RCCEx_PLLSAI1_Config+0x1dc>)
 8005828:	f043 6380 	orr.w	r3, r3, #67108864	; 0x4000000
 800582c:	6013      	str	r3, [r2, #0]

      /* Get Start Tick*/
      tickstart = HAL_GetTick();
 800582e:	f7fd fc29 	bl	8003084 <HAL_GetTick>
 8005832:	60b8      	str	r0, [r7, #8]

      /* Wait till PLLSAI1 is ready */
      while(READ_BIT(RCC->CR, RCC_CR_PLLSAI1RDY) == 0U)
 8005834:	e009      	b.n	800584a <RCCEx_PLLSAI1_Config+0x1b2>
      {
        if((HAL_GetTick() - tickstart) > PLLSAI1_TIMEOUT_VALUE)
 8005836:	f7fd fc25 	bl	8003084 <HAL_GetTick>
 800583a:	4602      	mov	r2, r0
 800583c:	68bb      	ldr	r3, [r7, #8]
 800583e:	1ad3      	subs	r3, r2, r3
 8005840:	2b02      	cmp	r3, #2
 8005842:	d902      	bls.n	800584a <RCCEx_PLLSAI1_Config+0x1b2>
        {
          status = HAL_TIMEOUT;
 8005844:	2303      	movs	r3, #3
 8005846:	73fb      	strb	r3, [r7, #15]
          break;
 8005848:	e005      	b.n	8005856 <RCCEx_PLLSAI1_Config+0x1be>
      while(READ_BIT(RCC->CR, RCC_CR_PLLSAI1RDY) == 0U)
 800584a:	4b0a      	ldr	r3, [pc, #40]	; (8005874 <RCCEx_PLLSAI1_Config+0x1dc>)
 800584c:	681b      	ldr	r3, [r3, #0]
 800584e:	f003 6300 	and.w	r3, r3, #134217728	; 0x8000000
 8005852:	2b00      	cmp	r3, #0
 8005854:	d0ef      	beq.n	8005836 <RCCEx_PLLSAI1_Config+0x19e>
        }
      }

      if(status == HAL_OK)
 8005856:	7bfb      	ldrb	r3, [r7, #15]
 8005858:	2b00      	cmp	r3, #0
 800585a:	d106      	bne.n	800586a <RCCEx_PLLSAI1_Config+0x1d2>
      {
        /* Configure the PLLSAI1 Clock output(s) */
        __HAL_RCC_PLLSAI1CLKOUT_ENABLE(PllSai1->PLLSAI1ClockOut);
 800585c:	4b05      	ldr	r3, [pc, #20]	; (8005874 <RCCEx_PLLSAI1_Config+0x1dc>)
 800585e:	691a      	ldr	r2, [r3, #16]
 8005860:	687b      	ldr	r3, [r7, #4]
 8005862:	699b      	ldr	r3, [r3, #24]
 8005864:	4903      	ldr	r1, [pc, #12]	; (8005874 <RCCEx_PLLSAI1_Config+0x1dc>)
 8005866:	4313      	orrs	r3, r2
 8005868:	610b      	str	r3, [r1, #16]
      }
    }
  }

  return status;
 800586a:	7bfb      	ldrb	r3, [r7, #15]
}
 800586c:	4618      	mov	r0, r3
 800586e:	3710      	adds	r7, #16
 8005870:	46bd      	mov	sp, r7
 8005872:	bd80      	pop	{r7, pc}
 8005874:	40021000 	.word	0x40021000

08005878 <RCCEx_PLLSAI2_Config>:
  * @note   PLLSAI2 is temporary disable to apply new parameters
  *
  * @retval HAL status
  */
static HAL_StatusTypeDef RCCEx_PLLSAI2_Config(RCC_PLLSAI2InitTypeDef *PllSai2, uint32_t Divider)
{
 8005878:	b580      	push	{r7, lr}
 800587a:	b084      	sub	sp, #16
 800587c:	af00      	add	r7, sp, #0
 800587e:	6078      	str	r0, [r7, #4]
 8005880:	6039      	str	r1, [r7, #0]
  uint32_t tickstart;
  HAL_StatusTypeDef status = HAL_OK;
 8005882:	2300      	movs	r3, #0
 8005884:	73fb      	strb	r3, [r7, #15]
  assert_param(IS_RCC_PLLSAI2M_VALUE(PllSai2->PLLSAI2M));
  assert_param(IS_RCC_PLLSAI2N_VALUE(PllSai2->PLLSAI2N));
  assert_param(IS_RCC_PLLSAI2CLOCKOUT_VALUE(PllSai2->PLLSAI2ClockOut));

  /* Check that PLLSAI2 clock source and divider M can be applied */
  if(__HAL_RCC_GET_PLL_OSCSOURCE() != RCC_PLLSOURCE_NONE)
 8005886:	4b68      	ldr	r3, [pc, #416]	; (8005a28 <RCCEx_PLLSAI2_Config+0x1b0>)
 8005888:	68db      	ldr	r3, [r3, #12]
 800588a:	f003 0303 	and.w	r3, r3, #3
 800588e:	2b00      	cmp	r3, #0
 8005890:	d018      	beq.n	80058c4 <RCCEx_PLLSAI2_Config+0x4c>
  {
    /* PLL clock source and divider M already set, check that no request for change  */
    if((__HAL_RCC_GET_PLL_OSCSOURCE() != PllSai2->PLLSAI2Source)
 8005892:	4b65      	ldr	r3, [pc, #404]	; (8005a28 <RCCEx_PLLSAI2_Config+0x1b0>)
 8005894:	68db      	ldr	r3, [r3, #12]
 8005896:	f003 0203 	and.w	r2, r3, #3
 800589a:	687b      	ldr	r3, [r7, #4]
 800589c:	681b      	ldr	r3, [r3, #0]
 800589e:	429a      	cmp	r2, r3
 80058a0:	d10d      	bne.n	80058be <RCCEx_PLLSAI2_Config+0x46>
       ||
       (PllSai2->PLLSAI2Source == RCC_PLLSOURCE_NONE)
 80058a2:	687b      	ldr	r3, [r7, #4]
 80058a4:	681b      	ldr	r3, [r3, #0]
       ||
 80058a6:	2b00      	cmp	r3, #0
 80058a8:	d009      	beq.n	80058be <RCCEx_PLLSAI2_Config+0x46>
#if !defined(RCC_PLLSAI2M_DIV_1_16_SUPPORT)
       ||
       (((READ_BIT(RCC->PLLCFGR, RCC_PLLCFGR_PLLM) >> RCC_PLLCFGR_PLLM_Pos) + 1U) != PllSai2->PLLSAI2M)
 80058aa:	4b5f      	ldr	r3, [pc, #380]	; (8005a28 <RCCEx_PLLSAI2_Config+0x1b0>)
 80058ac:	68db      	ldr	r3, [r3, #12]
 80058ae:	091b      	lsrs	r3, r3, #4
 80058b0:	f003 0307 	and.w	r3, r3, #7
 80058b4:	1c5a      	adds	r2, r3, #1
 80058b6:	687b      	ldr	r3, [r7, #4]
 80058b8:	685b      	ldr	r3, [r3, #4]
       ||
 80058ba:	429a      	cmp	r2, r3
 80058bc:	d044      	beq.n	8005948 <RCCEx_PLLSAI2_Config+0xd0>
#endif
      )
    {
      status = HAL_ERROR;
 80058be:	2301      	movs	r3, #1
 80058c0:	73fb      	strb	r3, [r7, #15]
 80058c2:	e041      	b.n	8005948 <RCCEx_PLLSAI2_Config+0xd0>
    }
  }
  else
  {
    /* Check PLLSAI2 clock source availability */
    switch(PllSai2->PLLSAI2Source)
 80058c4:	687b      	ldr	r3, [r7, #4]
 80058c6:	681b      	ldr	r3, [r3, #0]
 80058c8:	2b02      	cmp	r3, #2
 80058ca:	d00c      	beq.n	80058e6 <RCCEx_PLLSAI2_Config+0x6e>
 80058cc:	2b03      	cmp	r3, #3
 80058ce:	d013      	beq.n	80058f8 <RCCEx_PLLSAI2_Config+0x80>
 80058d0:	2b01      	cmp	r3, #1
 80058d2:	d120      	bne.n	8005916 <RCCEx_PLLSAI2_Config+0x9e>
    {
    case RCC_PLLSOURCE_MSI:
      if(HAL_IS_BIT_CLR(RCC->CR, RCC_CR_MSIRDY))
 80058d4:	4b54      	ldr	r3, [pc, #336]	; (8005a28 <RCCEx_PLLSAI2_Config+0x1b0>)
 80058d6:	681b      	ldr	r3, [r3, #0]
 80058d8:	f003 0302 	and.w	r3, r3, #2
 80058dc:	2b00      	cmp	r3, #0
 80058de:	d11d      	bne.n	800591c <RCCEx_PLLSAI2_Config+0xa4>
      {
        status = HAL_ERROR;
 80058e0:	2301      	movs	r3, #1
 80058e2:	73fb      	strb	r3, [r7, #15]
      }
      break;
 80058e4:	e01a      	b.n	800591c <RCCEx_PLLSAI2_Config+0xa4>
    case RCC_PLLSOURCE_HSI:
      if(HAL_IS_BIT_CLR(RCC->CR, RCC_CR_HSIRDY))
 80058e6:	4b50      	ldr	r3, [pc, #320]	; (8005a28 <RCCEx_PLLSAI2_Config+0x1b0>)
 80058e8:	681b      	ldr	r3, [r3, #0]
 80058ea:	f403 6380 	and.w	r3, r3, #1024	; 0x400
 80058ee:	2b00      	cmp	r3, #0
 80058f0:	d116      	bne.n	8005920 <RCCEx_PLLSAI2_Config+0xa8>
      {
        status = HAL_ERROR;
 80058f2:	2301      	movs	r3, #1
 80058f4:	73fb      	strb	r3, [r7, #15]
      }
      break;
 80058f6:	e013      	b.n	8005920 <RCCEx_PLLSAI2_Config+0xa8>
    case RCC_PLLSOURCE_HSE:
      if(HAL_IS_BIT_CLR(RCC->CR, RCC_CR_HSERDY))
 80058f8:	4b4b      	ldr	r3, [pc, #300]	; (8005a28 <RCCEx_PLLSAI2_Config+0x1b0>)
 80058fa:	681b      	ldr	r3, [r3, #0]
 80058fc:	f403 3300 	and.w	r3, r3, #131072	; 0x20000
 8005900:	2b00      	cmp	r3, #0
 8005902:	d10f      	bne.n	8005924 <RCCEx_PLLSAI2_Config+0xac>
      {
        if(HAL_IS_BIT_CLR(RCC->CR, RCC_CR_HSEBYP))
 8005904:	4b48      	ldr	r3, [pc, #288]	; (8005a28 <RCCEx_PLLSAI2_Config+0x1b0>)
 8005906:	681b      	ldr	r3, [r3, #0]
 8005908:	f403 2380 	and.w	r3, r3, #262144	; 0x40000
 800590c:	2b00      	cmp	r3, #0
 800590e:	d109      	bne.n	8005924 <RCCEx_PLLSAI2_Config+0xac>
        {
          status = HAL_ERROR;
 8005910:	2301      	movs	r3, #1
 8005912:	73fb      	strb	r3, [r7, #15]
        }
      }
      break;
 8005914:	e006      	b.n	8005924 <RCCEx_PLLSAI2_Config+0xac>
    default:
      status = HAL_ERROR;
 8005916:	2301      	movs	r3, #1
 8005918:	73fb      	strb	r3, [r7, #15]
      break;
 800591a:	e004      	b.n	8005926 <RCCEx_PLLSAI2_Config+0xae>
      break;
 800591c:	bf00      	nop
 800591e:	e002      	b.n	8005926 <RCCEx_PLLSAI2_Config+0xae>
      break;
 8005920:	bf00      	nop
 8005922:	e000      	b.n	8005926 <RCCEx_PLLSAI2_Config+0xae>
      break;
 8005924:	bf00      	nop
    }

    if(status == HAL_OK)
 8005926:	7bfb      	ldrb	r3, [r7, #15]
 8005928:	2b00      	cmp	r3, #0
 800592a:	d10d      	bne.n	8005948 <RCCEx_PLLSAI2_Config+0xd0>
#if defined(RCC_PLLSAI2M_DIV_1_16_SUPPORT)
      /* Set PLLSAI2 clock source */
      MODIFY_REG(RCC->PLLCFGR, RCC_PLLCFGR_PLLSRC, PllSai2->PLLSAI2Source);
#else
      /* Set PLLSAI2 clock source and divider M */
      MODIFY_REG(RCC->PLLCFGR, RCC_PLLCFGR_PLLSRC | RCC_PLLCFGR_PLLM, PllSai2->PLLSAI2Source | (PllSai2->PLLSAI2M - 1U) << RCC_PLLCFGR_PLLM_Pos);
 800592c:	4b3e      	ldr	r3, [pc, #248]	; (8005a28 <RCCEx_PLLSAI2_Config+0x1b0>)
 800592e:	68db      	ldr	r3, [r3, #12]
 8005930:	f023 0273 	bic.w	r2, r3, #115	; 0x73
 8005934:	687b      	ldr	r3, [r7, #4]
 8005936:	6819      	ldr	r1, [r3, #0]
 8005938:	687b      	ldr	r3, [r7, #4]
 800593a:	685b      	ldr	r3, [r3, #4]
 800593c:	3b01      	subs	r3, #1
 800593e:	011b      	lsls	r3, r3, #4
 8005940:	430b      	orrs	r3, r1
 8005942:	4939      	ldr	r1, [pc, #228]	; (8005a28 <RCCEx_PLLSAI2_Config+0x1b0>)
 8005944:	4313      	orrs	r3, r2
 8005946:	60cb      	str	r3, [r1, #12]
#endif
    }
  }

  if(status == HAL_OK)
 8005948:	7bfb      	ldrb	r3, [r7, #15]
 800594a:	2b00      	cmp	r3, #0
 800594c:	d167      	bne.n	8005a1e <RCCEx_PLLSAI2_Config+0x1a6>
  {
    /* Disable the PLLSAI2 */
    __HAL_RCC_PLLSAI2_DISABLE();
 800594e:	4b36      	ldr	r3, [pc, #216]	; (8005a28 <RCCEx_PLLSAI2_Config+0x1b0>)
 8005950:	681b      	ldr	r3, [r3, #0]
 8005952:	4a35      	ldr	r2, [pc, #212]	; (8005a28 <RCCEx_PLLSAI2_Config+0x1b0>)
 8005954:	f023 5380 	bic.w	r3, r3, #268435456	; 0x10000000
 8005958:	6013      	str	r3, [r2, #0]

    /* Get Start Tick*/
    tickstart = HAL_GetTick();
 800595a:	f7fd fb93 	bl	8003084 <HAL_GetTick>
 800595e:	60b8      	str	r0, [r7, #8]

    /* Wait till PLLSAI2 is ready to be updated */
    while(READ_BIT(RCC->CR, RCC_CR_PLLSAI2RDY) != 0U)
 8005960:	e009      	b.n	8005976 <RCCEx_PLLSAI2_Config+0xfe>
    {
      if((HAL_GetTick() - tickstart) > PLLSAI2_TIMEOUT_VALUE)
 8005962:	f7fd fb8f 	bl	8003084 <HAL_GetTick>
 8005966:	4602      	mov	r2, r0
 8005968:	68bb      	ldr	r3, [r7, #8]
 800596a:	1ad3      	subs	r3, r2, r3
 800596c:	2b02      	cmp	r3, #2
 800596e:	d902      	bls.n	8005976 <RCCEx_PLLSAI2_Config+0xfe>
      {
        status = HAL_TIMEOUT;
 8005970:	2303      	movs	r3, #3
 8005972:	73fb      	strb	r3, [r7, #15]
        break;
 8005974:	e005      	b.n	8005982 <RCCEx_PLLSAI2_Config+0x10a>
    while(READ_BIT(RCC->CR, RCC_CR_PLLSAI2RDY) != 0U)
 8005976:	4b2c      	ldr	r3, [pc, #176]	; (8005a28 <RCCEx_PLLSAI2_Config+0x1b0>)
 8005978:	681b      	ldr	r3, [r3, #0]
 800597a:	f003 5300 	and.w	r3, r3, #536870912	; 0x20000000
 800597e:	2b00      	cmp	r3, #0
 8005980:	d1ef      	bne.n	8005962 <RCCEx_PLLSAI2_Config+0xea>
      }
    }

    if(status == HAL_OK)
 8005982:	7bfb      	ldrb	r3, [r7, #15]
 8005984:	2b00      	cmp	r3, #0
 8005986:	d14a      	bne.n	8005a1e <RCCEx_PLLSAI2_Config+0x1a6>
    {
      if(Divider == DIVIDER_P_UPDATE)
 8005988:	683b      	ldr	r3, [r7, #0]
 800598a:	2b00      	cmp	r3, #0
 800598c:	d111      	bne.n	80059b2 <RCCEx_PLLSAI2_Config+0x13a>
        MODIFY_REG(RCC->PLLSAI2CFGR,
                   RCC_PLLSAI2CFGR_PLLSAI2N | RCC_PLLSAI2CFGR_PLLSAI2PDIV,
                   (PllSai2->PLLSAI2N << RCC_PLLSAI2CFGR_PLLSAI2N_Pos) |
                   (PllSai2->PLLSAI2P << RCC_PLLSAI2CFGR_PLLSAI2PDIV_Pos));
#else
        MODIFY_REG(RCC->PLLSAI2CFGR,
 800598e:	4b26      	ldr	r3, [pc, #152]	; (8005a28 <RCCEx_PLLSAI2_Config+0x1b0>)
 8005990:	695b      	ldr	r3, [r3, #20]
 8005992:	f423 331f 	bic.w	r3, r3, #162816	; 0x27c00
 8005996:	f423 7340 	bic.w	r3, r3, #768	; 0x300
 800599a:	687a      	ldr	r2, [r7, #4]
 800599c:	6892      	ldr	r2, [r2, #8]
 800599e:	0211      	lsls	r1, r2, #8
 80059a0:	687a      	ldr	r2, [r7, #4]
 80059a2:	68d2      	ldr	r2, [r2, #12]
 80059a4:	0912      	lsrs	r2, r2, #4
 80059a6:	0452      	lsls	r2, r2, #17
 80059a8:	430a      	orrs	r2, r1
 80059aa:	491f      	ldr	r1, [pc, #124]	; (8005a28 <RCCEx_PLLSAI2_Config+0x1b0>)
 80059ac:	4313      	orrs	r3, r2
 80059ae:	614b      	str	r3, [r1, #20]
 80059b0:	e011      	b.n	80059d6 <RCCEx_PLLSAI2_Config+0x15e>
                   (PllSai2->PLLSAI2N << RCC_PLLSAI2CFGR_PLLSAI2N_Pos) |
                   (((PllSai2->PLLSAI2R >> 1U) - 1U) << RCC_PLLSAI2CFGR_PLLSAI2R_Pos) |
                   ((PllSai2->PLLSAI2M - 1U) << RCC_PLLSAI2CFGR_PLLSAI2M_Pos));
#else
        /* Configure the PLLSAI2 Division factor R and Multiplication factor N*/
        MODIFY_REG(RCC->PLLSAI2CFGR,
 80059b2:	4b1d      	ldr	r3, [pc, #116]	; (8005a28 <RCCEx_PLLSAI2_Config+0x1b0>)
 80059b4:	695b      	ldr	r3, [r3, #20]
 80059b6:	f023 63c0 	bic.w	r3, r3, #100663296	; 0x6000000
 80059ba:	f423 43fe 	bic.w	r3, r3, #32512	; 0x7f00
 80059be:	687a      	ldr	r2, [r7, #4]
 80059c0:	6892      	ldr	r2, [r2, #8]
 80059c2:	0211      	lsls	r1, r2, #8
 80059c4:	687a      	ldr	r2, [r7, #4]
 80059c6:	6912      	ldr	r2, [r2, #16]
 80059c8:	0852      	lsrs	r2, r2, #1
 80059ca:	3a01      	subs	r2, #1
 80059cc:	0652      	lsls	r2, r2, #25
 80059ce:	430a      	orrs	r2, r1
 80059d0:	4915      	ldr	r1, [pc, #84]	; (8005a28 <RCCEx_PLLSAI2_Config+0x1b0>)
 80059d2:	4313      	orrs	r3, r2
 80059d4:	614b      	str	r3, [r1, #20]
                   (((PllSai2->PLLSAI2R >> 1U) - 1U) << RCC_PLLSAI2CFGR_PLLSAI2R_Pos));
#endif /* RCC_PLLSAI2M_DIV_1_16_SUPPORT */
      }

      /* Enable the PLLSAI2 again by setting PLLSAI2ON to 1*/
      __HAL_RCC_PLLSAI2_ENABLE();
 80059d6:	4b14      	ldr	r3, [pc, #80]	; (8005a28 <RCCEx_PLLSAI2_Config+0x1b0>)
 80059d8:	681b      	ldr	r3, [r3, #0]
 80059da:	4a13      	ldr	r2, [pc, #76]	; (8005a28 <RCCEx_PLLSAI2_Config+0x1b0>)
 80059dc:	f043 5380 	orr.w	r3, r3, #268435456	; 0x10000000
 80059e0:	6013      	str	r3, [r2, #0]

      /* Get Start Tick*/
      tickstart = HAL_GetTick();
 80059e2:	f7fd fb4f 	bl	8003084 <HAL_GetTick>
 80059e6:	60b8      	str	r0, [r7, #8]

      /* Wait till PLLSAI2 is ready */
      while(READ_BIT(RCC->CR, RCC_CR_PLLSAI2RDY) == 0U)
 80059e8:	e009      	b.n	80059fe <RCCEx_PLLSAI2_Config+0x186>
      {
        if((HAL_GetTick() - tickstart) > PLLSAI2_TIMEOUT_VALUE)
 80059ea:	f7fd fb4b 	bl	8003084 <HAL_GetTick>
 80059ee:	4602      	mov	r2, r0
 80059f0:	68bb      	ldr	r3, [r7, #8]
 80059f2:	1ad3      	subs	r3, r2, r3
 80059f4:	2b02      	cmp	r3, #2
 80059f6:	d902      	bls.n	80059fe <RCCEx_PLLSAI2_Config+0x186>
        {
          status = HAL_TIMEOUT;
 80059f8:	2303      	movs	r3, #3
 80059fa:	73fb      	strb	r3, [r7, #15]
          break;
 80059fc:	e005      	b.n	8005a0a <RCCEx_PLLSAI2_Config+0x192>
      while(READ_BIT(RCC->CR, RCC_CR_PLLSAI2RDY) == 0U)
 80059fe:	4b0a      	ldr	r3, [pc, #40]	; (8005a28 <RCCEx_PLLSAI2_Config+0x1b0>)
 8005a00:	681b      	ldr	r3, [r3, #0]
 8005a02:	f003 5300 	and.w	r3, r3, #536870912	; 0x20000000
 8005a06:	2b00      	cmp	r3, #0
 8005a08:	d0ef      	beq.n	80059ea <RCCEx_PLLSAI2_Config+0x172>
        }
      }

      if(status == HAL_OK)
 8005a0a:	7bfb      	ldrb	r3, [r7, #15]
 8005a0c:	2b00      	cmp	r3, #0
 8005a0e:	d106      	bne.n	8005a1e <RCCEx_PLLSAI2_Config+0x1a6>
      {
        /* Configure the PLLSAI2 Clock output(s) */
        __HAL_RCC_PLLSAI2CLKOUT_ENABLE(PllSai2->PLLSAI2ClockOut);
 8005a10:	4b05      	ldr	r3, [pc, #20]	; (8005a28 <RCCEx_PLLSAI2_Config+0x1b0>)
 8005a12:	695a      	ldr	r2, [r3, #20]
 8005a14:	687b      	ldr	r3, [r7, #4]
 8005a16:	695b      	ldr	r3, [r3, #20]
 8005a18:	4903      	ldr	r1, [pc, #12]	; (8005a28 <RCCEx_PLLSAI2_Config+0x1b0>)
 8005a1a:	4313      	orrs	r3, r2
 8005a1c:	614b      	str	r3, [r1, #20]
      }
    }
  }

  return status;
 8005a1e:	7bfb      	ldrb	r3, [r7, #15]
}
 8005a20:	4618      	mov	r0, r3
 8005a22:	3710      	adds	r7, #16
 8005a24:	46bd      	mov	sp, r7
 8005a26:	bd80      	pop	{r7, pc}
 8005a28:	40021000 	.word	0x40021000

08005a2c <HAL_TIM_Base_Init>:
  *         Ex: call @ref HAL_TIM_Base_DeInit() before HAL_TIM_Base_Init()
  * @param  htim TIM Base handle
  * @retval HAL status
  */
HAL_StatusTypeDef HAL_TIM_Base_Init(TIM_HandleTypeDef *htim)
{
 8005a2c:	b580      	push	{r7, lr}
 8005a2e:	b082      	sub	sp, #8
 8005a30:	af00      	add	r7, sp, #0
 8005a32:	6078      	str	r0, [r7, #4]
  /* Check the TIM handle allocation */
  if (htim == NULL)
 8005a34:	687b      	ldr	r3, [r7, #4]
 8005a36:	2b00      	cmp	r3, #0
 8005a38:	d101      	bne.n	8005a3e <HAL_TIM_Base_Init+0x12>
  {
    return HAL_ERROR;
 8005a3a:	2301      	movs	r3, #1
 8005a3c:	e049      	b.n	8005ad2 <HAL_TIM_Base_Init+0xa6>
  assert_param(IS_TIM_INSTANCE(htim->Instance));
  assert_param(IS_TIM_COUNTER_MODE(htim->Init.CounterMode));
  assert_param(IS_TIM_CLOCKDIVISION_DIV(htim->Init.ClockDivision));
  assert_param(IS_TIM_AUTORELOAD_PRELOAD(htim->Init.AutoReloadPreload));

  if (htim->State == HAL_TIM_STATE_RESET)
 8005a3e:	687b      	ldr	r3, [r7, #4]
 8005a40:	f893 303d 	ldrb.w	r3, [r3, #61]	; 0x3d
 8005a44:	b2db      	uxtb	r3, r3
 8005a46:	2b00      	cmp	r3, #0
 8005a48:	d106      	bne.n	8005a58 <HAL_TIM_Base_Init+0x2c>
  {
    /* Allocate lock resource and initialize it */
    htim->Lock = HAL_UNLOCKED;
 8005a4a:	687b      	ldr	r3, [r7, #4]
 8005a4c:	2200      	movs	r2, #0
 8005a4e:	f883 203c 	strb.w	r2, [r3, #60]	; 0x3c
    }
    /* Init the low level hardware : GPIO, CLOCK, NVIC */
    htim->Base_MspInitCallback(htim);
#else
    /* Init the low level hardware : GPIO, CLOCK, NVIC */
    HAL_TIM_Base_MspInit(htim);
 8005a52:	6878      	ldr	r0, [r7, #4]
 8005a54:	f7fd f9f2 	bl	8002e3c <HAL_TIM_Base_MspInit>
#endif /* USE_HAL_TIM_REGISTER_CALLBACKS */
  }

  /* Set the TIM state */
  htim->State = HAL_TIM_STATE_BUSY;
 8005a58:	687b      	ldr	r3, [r7, #4]
 8005a5a:	2202      	movs	r2, #2
 8005a5c:	f883 203d 	strb.w	r2, [r3, #61]	; 0x3d

  /* Set the Time Base configuration */
  TIM_Base_SetConfig(htim->Instance, &htim->Init);
 8005a60:	687b      	ldr	r3, [r7, #4]
 8005a62:	681a      	ldr	r2, [r3, #0]
 8005a64:	687b      	ldr	r3, [r7, #4]
 8005a66:	3304      	adds	r3, #4
 8005a68:	4619      	mov	r1, r3
 8005a6a:	4610      	mov	r0, r2
 8005a6c:	f000 fc06 	bl	800627c <TIM_Base_SetConfig>

  /* Initialize the DMA burst operation state */
  htim->DMABurstState = HAL_DMA_BURST_STATE_READY;
 8005a70:	687b      	ldr	r3, [r7, #4]
 8005a72:	2201      	movs	r2, #1
 8005a74:	f883 2048 	strb.w	r2, [r3, #72]	; 0x48

  /* Initialize the TIM channels state */
  TIM_CHANNEL_STATE_SET_ALL(htim, HAL_TIM_CHANNEL_STATE_READY);
 8005a78:	687b      	ldr	r3, [r7, #4]
 8005a7a:	2201      	movs	r2, #1
 8005a7c:	f883 203e 	strb.w	r2, [r3, #62]	; 0x3e
 8005a80:	687b      	ldr	r3, [r7, #4]
 8005a82:	2201      	movs	r2, #1
 8005a84:	f883 203f 	strb.w	r2, [r3, #63]	; 0x3f
 8005a88:	687b      	ldr	r3, [r7, #4]
 8005a8a:	2201      	movs	r2, #1
 8005a8c:	f883 2040 	strb.w	r2, [r3, #64]	; 0x40
 8005a90:	687b      	ldr	r3, [r7, #4]
 8005a92:	2201      	movs	r2, #1
 8005a94:	f883 2041 	strb.w	r2, [r3, #65]	; 0x41
 8005a98:	687b      	ldr	r3, [r7, #4]
 8005a9a:	2201      	movs	r2, #1
 8005a9c:	f883 2042 	strb.w	r2, [r3, #66]	; 0x42
 8005aa0:	687b      	ldr	r3, [r7, #4]
 8005aa2:	2201      	movs	r2, #1
 8005aa4:	f883 2043 	strb.w	r2, [r3, #67]	; 0x43
  TIM_CHANNEL_N_STATE_SET_ALL(htim, HAL_TIM_CHANNEL_STATE_READY);
 8005aa8:	687b      	ldr	r3, [r7, #4]
 8005aaa:	2201      	movs	r2, #1
 8005aac:	f883 2044 	strb.w	r2, [r3, #68]	; 0x44
 8005ab0:	687b      	ldr	r3, [r7, #4]
 8005ab2:	2201      	movs	r2, #1
 8005ab4:	f883 2045 	strb.w	r2, [r3, #69]	; 0x45
 8005ab8:	687b      	ldr	r3, [r7, #4]
 8005aba:	2201      	movs	r2, #1
 8005abc:	f883 2046 	strb.w	r2, [r3, #70]	; 0x46
 8005ac0:	687b      	ldr	r3, [r7, #4]
 8005ac2:	2201      	movs	r2, #1
 8005ac4:	f883 2047 	strb.w	r2, [r3, #71]	; 0x47

  /* Initialize the TIM state*/
  htim->State = HAL_TIM_STATE_READY;
 8005ac8:	687b      	ldr	r3, [r7, #4]
 8005aca:	2201      	movs	r2, #1
 8005acc:	f883 203d 	strb.w	r2, [r3, #61]	; 0x3d

  return HAL_OK;
 8005ad0:	2300      	movs	r3, #0
}
 8005ad2:	4618      	mov	r0, r3
 8005ad4:	3708      	adds	r7, #8
 8005ad6:	46bd      	mov	sp, r7
 8005ad8:	bd80      	pop	{r7, pc}
	...

08005adc <HAL_TIM_Base_Start_IT>:
  * @brief  Starts the TIM Base generation in interrupt mode.
  * @param  htim TIM Base handle
  * @retval HAL status
  */
HAL_StatusTypeDef HAL_TIM_Base_Start_IT(TIM_HandleTypeDef *htim)
{
 8005adc:	b480      	push	{r7}
 8005ade:	b085      	sub	sp, #20
 8005ae0:	af00      	add	r7, sp, #0
 8005ae2:	6078      	str	r0, [r7, #4]

  /* Check the parameters */
  assert_param(IS_TIM_INSTANCE(htim->Instance));

  /* Check the TIM state */
  if (htim->State != HAL_TIM_STATE_READY)
 8005ae4:	687b      	ldr	r3, [r7, #4]
 8005ae6:	f893 303d 	ldrb.w	r3, [r3, #61]	; 0x3d
 8005aea:	b2db      	uxtb	r3, r3
 8005aec:	2b01      	cmp	r3, #1
 8005aee:	d001      	beq.n	8005af4 <HAL_TIM_Base_Start_IT+0x18>
  {
    return HAL_ERROR;
 8005af0:	2301      	movs	r3, #1
 8005af2:	e04f      	b.n	8005b94 <HAL_TIM_Base_Start_IT+0xb8>
  }

  /* Set the TIM state */
  htim->State = HAL_TIM_STATE_BUSY;
 8005af4:	687b      	ldr	r3, [r7, #4]
 8005af6:	2202      	movs	r2, #2
 8005af8:	f883 203d 	strb.w	r2, [r3, #61]	; 0x3d

  /* Enable the TIM Update interrupt */
  __HAL_TIM_ENABLE_IT(htim, TIM_IT_UPDATE);
 8005afc:	687b      	ldr	r3, [r7, #4]
 8005afe:	681b      	ldr	r3, [r3, #0]
 8005b00:	68da      	ldr	r2, [r3, #12]
 8005b02:	687b      	ldr	r3, [r7, #4]
 8005b04:	681b      	ldr	r3, [r3, #0]
 8005b06:	f042 0201 	orr.w	r2, r2, #1
 8005b0a:	60da      	str	r2, [r3, #12]

  /* Enable the Peripheral, except in trigger mode where enable is automatically done with trigger */
  if (IS_TIM_SLAVE_INSTANCE(htim->Instance))
 8005b0c:	687b      	ldr	r3, [r7, #4]
 8005b0e:	681b      	ldr	r3, [r3, #0]
 8005b10:	4a23      	ldr	r2, [pc, #140]	; (8005ba0 <HAL_TIM_Base_Start_IT+0xc4>)
 8005b12:	4293      	cmp	r3, r2
 8005b14:	d01d      	beq.n	8005b52 <HAL_TIM_Base_Start_IT+0x76>
 8005b16:	687b      	ldr	r3, [r7, #4]
 8005b18:	681b      	ldr	r3, [r3, #0]
 8005b1a:	f1b3 4f80 	cmp.w	r3, #1073741824	; 0x40000000
 8005b1e:	d018      	beq.n	8005b52 <HAL_TIM_Base_Start_IT+0x76>
 8005b20:	687b      	ldr	r3, [r7, #4]
 8005b22:	681b      	ldr	r3, [r3, #0]
 8005b24:	4a1f      	ldr	r2, [pc, #124]	; (8005ba4 <HAL_TIM_Base_Start_IT+0xc8>)
 8005b26:	4293      	cmp	r3, r2
 8005b28:	d013      	beq.n	8005b52 <HAL_TIM_Base_Start_IT+0x76>
 8005b2a:	687b      	ldr	r3, [r7, #4]
 8005b2c:	681b      	ldr	r3, [r3, #0]
 8005b2e:	4a1e      	ldr	r2, [pc, #120]	; (8005ba8 <HAL_TIM_Base_Start_IT+0xcc>)
 8005b30:	4293      	cmp	r3, r2
 8005b32:	d00e      	beq.n	8005b52 <HAL_TIM_Base_Start_IT+0x76>
 8005b34:	687b      	ldr	r3, [r7, #4]
 8005b36:	681b      	ldr	r3, [r3, #0]
 8005b38:	4a1c      	ldr	r2, [pc, #112]	; (8005bac <HAL_TIM_Base_Start_IT+0xd0>)
 8005b3a:	4293      	cmp	r3, r2
 8005b3c:	d009      	beq.n	8005b52 <HAL_TIM_Base_Start_IT+0x76>
 8005b3e:	687b      	ldr	r3, [r7, #4]
 8005b40:	681b      	ldr	r3, [r3, #0]
 8005b42:	4a1b      	ldr	r2, [pc, #108]	; (8005bb0 <HAL_TIM_Base_Start_IT+0xd4>)
 8005b44:	4293      	cmp	r3, r2
 8005b46:	d004      	beq.n	8005b52 <HAL_TIM_Base_Start_IT+0x76>
 8005b48:	687b      	ldr	r3, [r7, #4]
 8005b4a:	681b      	ldr	r3, [r3, #0]
 8005b4c:	4a19      	ldr	r2, [pc, #100]	; (8005bb4 <HAL_TIM_Base_Start_IT+0xd8>)
 8005b4e:	4293      	cmp	r3, r2
 8005b50:	d115      	bne.n	8005b7e <HAL_TIM_Base_Start_IT+0xa2>
  {
    tmpsmcr = htim->Instance->SMCR & TIM_SMCR_SMS;
 8005b52:	687b      	ldr	r3, [r7, #4]
 8005b54:	681b      	ldr	r3, [r3, #0]
 8005b56:	689a      	ldr	r2, [r3, #8]
 8005b58:	4b17      	ldr	r3, [pc, #92]	; (8005bb8 <HAL_TIM_Base_Start_IT+0xdc>)
 8005b5a:	4013      	ands	r3, r2
 8005b5c:	60fb      	str	r3, [r7, #12]
    if (!IS_TIM_SLAVEMODE_TRIGGER_ENABLED(tmpsmcr))
 8005b5e:	68fb      	ldr	r3, [r7, #12]
 8005b60:	2b06      	cmp	r3, #6
 8005b62:	d015      	beq.n	8005b90 <HAL_TIM_Base_Start_IT+0xb4>
 8005b64:	68fb      	ldr	r3, [r7, #12]
 8005b66:	f5b3 3f80 	cmp.w	r3, #65536	; 0x10000
 8005b6a:	d011      	beq.n	8005b90 <HAL_TIM_Base_Start_IT+0xb4>
    {
      __HAL_TIM_ENABLE(htim);
 8005b6c:	687b      	ldr	r3, [r7, #4]
 8005b6e:	681b      	ldr	r3, [r3, #0]
 8005b70:	681a      	ldr	r2, [r3, #0]
 8005b72:	687b      	ldr	r3, [r7, #4]
 8005b74:	681b      	ldr	r3, [r3, #0]
 8005b76:	f042 0201 	orr.w	r2, r2, #1
 8005b7a:	601a      	str	r2, [r3, #0]
    if (!IS_TIM_SLAVEMODE_TRIGGER_ENABLED(tmpsmcr))
 8005b7c:	e008      	b.n	8005b90 <HAL_TIM_Base_Start_IT+0xb4>
    }
  }
  else
  {
    __HAL_TIM_ENABLE(htim);
 8005b7e:	687b      	ldr	r3, [r7, #4]
 8005b80:	681b      	ldr	r3, [r3, #0]
 8005b82:	681a      	ldr	r2, [r3, #0]
 8005b84:	687b      	ldr	r3, [r7, #4]
 8005b86:	681b      	ldr	r3, [r3, #0]
 8005b88:	f042 0201 	orr.w	r2, r2, #1
 8005b8c:	601a      	str	r2, [r3, #0]
 8005b8e:	e000      	b.n	8005b92 <HAL_TIM_Base_Start_IT+0xb6>
    if (!IS_TIM_SLAVEMODE_TRIGGER_ENABLED(tmpsmcr))
 8005b90:	bf00      	nop
  }

  /* Return function status */
  return HAL_OK;
 8005b92:	2300      	movs	r3, #0
}
 8005b94:	4618      	mov	r0, r3
 8005b96:	3714      	adds	r7, #20
 8005b98:	46bd      	mov	sp, r7
 8005b9a:	f85d 7b04 	ldr.w	r7, [sp], #4
 8005b9e:	4770      	bx	lr
 8005ba0:	40012c00 	.word	0x40012c00
 8005ba4:	40000400 	.word	0x40000400
 8005ba8:	40000800 	.word	0x40000800
 8005bac:	40000c00 	.word	0x40000c00
 8005bb0:	40013400 	.word	0x40013400
 8005bb4:	40014000 	.word	0x40014000
 8005bb8:	00010007 	.word	0x00010007

08005bbc <HAL_TIM_Base_Stop_IT>:
  * @brief  Stops the TIM Base generation in interrupt mode.
  * @param  htim TIM Base handle
  * @retval HAL status
  */
HAL_StatusTypeDef HAL_TIM_Base_Stop_IT(TIM_HandleTypeDef *htim)
{
 8005bbc:	b480      	push	{r7}
 8005bbe:	b083      	sub	sp, #12
 8005bc0:	af00      	add	r7, sp, #0
 8005bc2:	6078      	str	r0, [r7, #4]
  /* Check the parameters */
  assert_param(IS_TIM_INSTANCE(htim->Instance));
  
  /* Disable the TIM Update interrupt */
  __HAL_TIM_DISABLE_IT(htim, TIM_IT_UPDATE);
 8005bc4:	687b      	ldr	r3, [r7, #4]
 8005bc6:	681b      	ldr	r3, [r3, #0]
 8005bc8:	68da      	ldr	r2, [r3, #12]
 8005bca:	687b      	ldr	r3, [r7, #4]
 8005bcc:	681b      	ldr	r3, [r3, #0]
 8005bce:	f022 0201 	bic.w	r2, r2, #1
 8005bd2:	60da      	str	r2, [r3, #12]

  /* Disable the Peripheral */
  __HAL_TIM_DISABLE(htim);
 8005bd4:	687b      	ldr	r3, [r7, #4]
 8005bd6:	681b      	ldr	r3, [r3, #0]
 8005bd8:	6a1a      	ldr	r2, [r3, #32]
 8005bda:	f241 1311 	movw	r3, #4369	; 0x1111
 8005bde:	4013      	ands	r3, r2
 8005be0:	2b00      	cmp	r3, #0
 8005be2:	d10f      	bne.n	8005c04 <HAL_TIM_Base_Stop_IT+0x48>
 8005be4:	687b      	ldr	r3, [r7, #4]
 8005be6:	681b      	ldr	r3, [r3, #0]
 8005be8:	6a1a      	ldr	r2, [r3, #32]
 8005bea:	f240 4344 	movw	r3, #1092	; 0x444
 8005bee:	4013      	ands	r3, r2
 8005bf0:	2b00      	cmp	r3, #0
 8005bf2:	d107      	bne.n	8005c04 <HAL_TIM_Base_Stop_IT+0x48>
 8005bf4:	687b      	ldr	r3, [r7, #4]
 8005bf6:	681b      	ldr	r3, [r3, #0]
 8005bf8:	681a      	ldr	r2, [r3, #0]
 8005bfa:	687b      	ldr	r3, [r7, #4]
 8005bfc:	681b      	ldr	r3, [r3, #0]
 8005bfe:	f022 0201 	bic.w	r2, r2, #1
 8005c02:	601a      	str	r2, [r3, #0]

  /* Set the TIM state */
  htim->State = HAL_TIM_STATE_READY;
 8005c04:	687b      	ldr	r3, [r7, #4]
 8005c06:	2201      	movs	r2, #1
 8005c08:	f883 203d 	strb.w	r2, [r3, #61]	; 0x3d

  /* Return function status */
  return HAL_OK;
 8005c0c:	2300      	movs	r3, #0
}
 8005c0e:	4618      	mov	r0, r3
 8005c10:	370c      	adds	r7, #12
 8005c12:	46bd      	mov	sp, r7
 8005c14:	f85d 7b04 	ldr.w	r7, [sp], #4
 8005c18:	4770      	bx	lr

08005c1a <HAL_TIM_PWM_Init>:
  *         Ex: call @ref HAL_TIM_PWM_DeInit() before HAL_TIM_PWM_Init()
  * @param  htim TIM PWM handle
  * @retval HAL status
  */
HAL_StatusTypeDef HAL_TIM_PWM_Init(TIM_HandleTypeDef *htim)
{
 8005c1a:	b580      	push	{r7, lr}
 8005c1c:	b082      	sub	sp, #8
 8005c1e:	af00      	add	r7, sp, #0
 8005c20:	6078      	str	r0, [r7, #4]
  /* Check the TIM handle allocation */
  if (htim == NULL)
 8005c22:	687b      	ldr	r3, [r7, #4]
 8005c24:	2b00      	cmp	r3, #0
 8005c26:	d101      	bne.n	8005c2c <HAL_TIM_PWM_Init+0x12>
  {
    return HAL_ERROR;
 8005c28:	2301      	movs	r3, #1
 8005c2a:	e049      	b.n	8005cc0 <HAL_TIM_PWM_Init+0xa6>
  assert_param(IS_TIM_INSTANCE(htim->Instance));
  assert_param(IS_TIM_COUNTER_MODE(htim->Init.CounterMode));
  assert_param(IS_TIM_CLOCKDIVISION_DIV(htim->Init.ClockDivision));
  assert_param(IS_TIM_AUTORELOAD_PRELOAD(htim->Init.AutoReloadPreload));

  if (htim->State == HAL_TIM_STATE_RESET)
 8005c2c:	687b      	ldr	r3, [r7, #4]
 8005c2e:	f893 303d 	ldrb.w	r3, [r3, #61]	; 0x3d
 8005c32:	b2db      	uxtb	r3, r3
 8005c34:	2b00      	cmp	r3, #0
 8005c36:	d106      	bne.n	8005c46 <HAL_TIM_PWM_Init+0x2c>
  {
    /* Allocate lock resource and initialize it */
    htim->Lock = HAL_UNLOCKED;
 8005c38:	687b      	ldr	r3, [r7, #4]
 8005c3a:	2200      	movs	r2, #0
 8005c3c:	f883 203c 	strb.w	r2, [r3, #60]	; 0x3c
    }
    /* Init the low level hardware : GPIO, CLOCK, NVIC */
    htim->PWM_MspInitCallback(htim);
#else
    /* Init the low level hardware : GPIO, CLOCK, NVIC and DMA */
    HAL_TIM_PWM_MspInit(htim);
 8005c40:	6878      	ldr	r0, [r7, #4]
 8005c42:	f000 f841 	bl	8005cc8 <HAL_TIM_PWM_MspInit>
#endif /* USE_HAL_TIM_REGISTER_CALLBACKS */
  }

  /* Set the TIM state */
  htim->State = HAL_TIM_STATE_BUSY;
 8005c46:	687b      	ldr	r3, [r7, #4]
 8005c48:	2202      	movs	r2, #2
 8005c4a:	f883 203d 	strb.w	r2, [r3, #61]	; 0x3d

  /* Init the base time for the PWM */
  TIM_Base_SetConfig(htim->Instance, &htim->Init);
 8005c4e:	687b      	ldr	r3, [r7, #4]
 8005c50:	681a      	ldr	r2, [r3, #0]
 8005c52:	687b      	ldr	r3, [r7, #4]
 8005c54:	3304      	adds	r3, #4
 8005c56:	4619      	mov	r1, r3
 8005c58:	4610      	mov	r0, r2
 8005c5a:	f000 fb0f 	bl	800627c <TIM_Base_SetConfig>

  /* Initialize the DMA burst operation state */
  htim->DMABurstState = HAL_DMA_BURST_STATE_READY;
 8005c5e:	687b      	ldr	r3, [r7, #4]
 8005c60:	2201      	movs	r2, #1
 8005c62:	f883 2048 	strb.w	r2, [r3, #72]	; 0x48

  /* Initialize the TIM channels state */
  TIM_CHANNEL_STATE_SET_ALL(htim, HAL_TIM_CHANNEL_STATE_READY);
 8005c66:	687b      	ldr	r3, [r7, #4]
 8005c68:	2201      	movs	r2, #1
 8005c6a:	f883 203e 	strb.w	r2, [r3, #62]	; 0x3e
 8005c6e:	687b      	ldr	r3, [r7, #4]
 8005c70:	2201      	movs	r2, #1
 8005c72:	f883 203f 	strb.w	r2, [r3, #63]	; 0x3f
 8005c76:	687b      	ldr	r3, [r7, #4]
 8005c78:	2201      	movs	r2, #1
 8005c7a:	f883 2040 	strb.w	r2, [r3, #64]	; 0x40
 8005c7e:	687b      	ldr	r3, [r7, #4]
 8005c80:	2201      	movs	r2, #1
 8005c82:	f883 2041 	strb.w	r2, [r3, #65]	; 0x41
 8005c86:	687b      	ldr	r3, [r7, #4]
 8005c88:	2201      	movs	r2, #1
 8005c8a:	f883 2042 	strb.w	r2, [r3, #66]	; 0x42
 8005c8e:	687b      	ldr	r3, [r7, #4]
 8005c90:	2201      	movs	r2, #1
 8005c92:	f883 2043 	strb.w	r2, [r3, #67]	; 0x43
  TIM_CHANNEL_N_STATE_SET_ALL(htim, HAL_TIM_CHANNEL_STATE_READY);
 8005c96:	687b      	ldr	r3, [r7, #4]
 8005c98:	2201      	movs	r2, #1
 8005c9a:	f883 2044 	strb.w	r2, [r3, #68]	; 0x44
 8005c9e:	687b      	ldr	r3, [r7, #4]
 8005ca0:	2201      	movs	r2, #1
 8005ca2:	f883 2045 	strb.w	r2, [r3, #69]	; 0x45
 8005ca6:	687b      	ldr	r3, [r7, #4]
 8005ca8:	2201      	movs	r2, #1
 8005caa:	f883 2046 	strb.w	r2, [r3, #70]	; 0x46
 8005cae:	687b      	ldr	r3, [r7, #4]
 8005cb0:	2201      	movs	r2, #1
 8005cb2:	f883 2047 	strb.w	r2, [r3, #71]	; 0x47

  /* Initialize the TIM state*/
  htim->State = HAL_TIM_STATE_READY;
 8005cb6:	687b      	ldr	r3, [r7, #4]
 8005cb8:	2201      	movs	r2, #1
 8005cba:	f883 203d 	strb.w	r2, [r3, #61]	; 0x3d

  return HAL_OK;
 8005cbe:	2300      	movs	r3, #0
}
 8005cc0:	4618      	mov	r0, r3
 8005cc2:	3708      	adds	r7, #8
 8005cc4:	46bd      	mov	sp, r7
 8005cc6:	bd80      	pop	{r7, pc}

08005cc8 <HAL_TIM_PWM_MspInit>:
  * @brief  Initializes the TIM PWM MSP.
  * @param  htim TIM PWM handle
  * @retval None
  */
__weak void HAL_TIM_PWM_MspInit(TIM_HandleTypeDef *htim)
{
 8005cc8:	b480      	push	{r7}
 8005cca:	b083      	sub	sp, #12
 8005ccc:	af00      	add	r7, sp, #0
 8005cce:	6078      	str	r0, [r7, #4]
  UNUSED(htim);

  /* NOTE : This function should not be modified, when the callback is needed,
            the HAL_TIM_PWM_MspInit could be implemented in the user file
   */
}
 8005cd0:	bf00      	nop
 8005cd2:	370c      	adds	r7, #12
 8005cd4:	46bd      	mov	sp, r7
 8005cd6:	f85d 7b04 	ldr.w	r7, [sp], #4
 8005cda:	4770      	bx	lr

08005cdc <HAL_TIM_PWM_Start>:
  *            @arg TIM_CHANNEL_5: TIM Channel 5 selected
  *            @arg TIM_CHANNEL_6: TIM Channel 6 selected
  * @retval HAL status
  */
HAL_StatusTypeDef HAL_TIM_PWM_Start(TIM_HandleTypeDef *htim, uint32_t Channel)
{
 8005cdc:	b580      	push	{r7, lr}
 8005cde:	b084      	sub	sp, #16
 8005ce0:	af00      	add	r7, sp, #0
 8005ce2:	6078      	str	r0, [r7, #4]
 8005ce4:	6039      	str	r1, [r7, #0]

  /* Check the parameters */
  assert_param(IS_TIM_CCX_INSTANCE(htim->Instance, Channel));

  /* Check the TIM channel state */
  if (TIM_CHANNEL_STATE_GET(htim, Channel) != HAL_TIM_CHANNEL_STATE_READY)
 8005ce6:	683b      	ldr	r3, [r7, #0]
 8005ce8:	2b00      	cmp	r3, #0
 8005cea:	d109      	bne.n	8005d00 <HAL_TIM_PWM_Start+0x24>
 8005cec:	687b      	ldr	r3, [r7, #4]
 8005cee:	f893 303e 	ldrb.w	r3, [r3, #62]	; 0x3e
 8005cf2:	b2db      	uxtb	r3, r3
 8005cf4:	2b01      	cmp	r3, #1
 8005cf6:	bf14      	ite	ne
 8005cf8:	2301      	movne	r3, #1
 8005cfa:	2300      	moveq	r3, #0
 8005cfc:	b2db      	uxtb	r3, r3
 8005cfe:	e03c      	b.n	8005d7a <HAL_TIM_PWM_Start+0x9e>
 8005d00:	683b      	ldr	r3, [r7, #0]
 8005d02:	2b04      	cmp	r3, #4
 8005d04:	d109      	bne.n	8005d1a <HAL_TIM_PWM_Start+0x3e>
 8005d06:	687b      	ldr	r3, [r7, #4]
 8005d08:	f893 303f 	ldrb.w	r3, [r3, #63]	; 0x3f
 8005d0c:	b2db      	uxtb	r3, r3
 8005d0e:	2b01      	cmp	r3, #1
 8005d10:	bf14      	ite	ne
 8005d12:	2301      	movne	r3, #1
 8005d14:	2300      	moveq	r3, #0
 8005d16:	b2db      	uxtb	r3, r3
 8005d18:	e02f      	b.n	8005d7a <HAL_TIM_PWM_Start+0x9e>
 8005d1a:	683b      	ldr	r3, [r7, #0]
 8005d1c:	2b08      	cmp	r3, #8
 8005d1e:	d109      	bne.n	8005d34 <HAL_TIM_PWM_Start+0x58>
 8005d20:	687b      	ldr	r3, [r7, #4]
 8005d22:	f893 3040 	ldrb.w	r3, [r3, #64]	; 0x40
 8005d26:	b2db      	uxtb	r3, r3
 8005d28:	2b01      	cmp	r3, #1
 8005d2a:	bf14      	ite	ne
 8005d2c:	2301      	movne	r3, #1
 8005d2e:	2300      	moveq	r3, #0
 8005d30:	b2db      	uxtb	r3, r3
 8005d32:	e022      	b.n	8005d7a <HAL_TIM_PWM_Start+0x9e>
 8005d34:	683b      	ldr	r3, [r7, #0]
 8005d36:	2b0c      	cmp	r3, #12
 8005d38:	d109      	bne.n	8005d4e <HAL_TIM_PWM_Start+0x72>
 8005d3a:	687b      	ldr	r3, [r7, #4]
 8005d3c:	f893 3041 	ldrb.w	r3, [r3, #65]	; 0x41
 8005d40:	b2db      	uxtb	r3, r3
 8005d42:	2b01      	cmp	r3, #1
 8005d44:	bf14      	ite	ne
 8005d46:	2301      	movne	r3, #1
 8005d48:	2300      	moveq	r3, #0
 8005d4a:	b2db      	uxtb	r3, r3
 8005d4c:	e015      	b.n	8005d7a <HAL_TIM_PWM_Start+0x9e>
 8005d4e:	683b      	ldr	r3, [r7, #0]
 8005d50:	2b10      	cmp	r3, #16
 8005d52:	d109      	bne.n	8005d68 <HAL_TIM_PWM_Start+0x8c>
 8005d54:	687b      	ldr	r3, [r7, #4]
 8005d56:	f893 3042 	ldrb.w	r3, [r3, #66]	; 0x42
 8005d5a:	b2db      	uxtb	r3, r3
 8005d5c:	2b01      	cmp	r3, #1
 8005d5e:	bf14      	ite	ne
 8005d60:	2301      	movne	r3, #1
 8005d62:	2300      	moveq	r3, #0
 8005d64:	b2db      	uxtb	r3, r3
 8005d66:	e008      	b.n	8005d7a <HAL_TIM_PWM_Start+0x9e>
 8005d68:	687b      	ldr	r3, [r7, #4]
 8005d6a:	f893 3043 	ldrb.w	r3, [r3, #67]	; 0x43
 8005d6e:	b2db      	uxtb	r3, r3
 8005d70:	2b01      	cmp	r3, #1
 8005d72:	bf14      	ite	ne
 8005d74:	2301      	movne	r3, #1
 8005d76:	2300      	moveq	r3, #0
 8005d78:	b2db      	uxtb	r3, r3
 8005d7a:	2b00      	cmp	r3, #0
 8005d7c:	d001      	beq.n	8005d82 <HAL_TIM_PWM_Start+0xa6>
  {
    return HAL_ERROR;
 8005d7e:	2301      	movs	r3, #1
 8005d80:	e09c      	b.n	8005ebc <HAL_TIM_PWM_Start+0x1e0>
  }

  /* Set the TIM channel state */
  TIM_CHANNEL_STATE_SET(htim, Channel, HAL_TIM_CHANNEL_STATE_BUSY);
 8005d82:	683b      	ldr	r3, [r7, #0]
 8005d84:	2b00      	cmp	r3, #0
 8005d86:	d104      	bne.n	8005d92 <HAL_TIM_PWM_Start+0xb6>
 8005d88:	687b      	ldr	r3, [r7, #4]
 8005d8a:	2202      	movs	r2, #2
 8005d8c:	f883 203e 	strb.w	r2, [r3, #62]	; 0x3e
 8005d90:	e023      	b.n	8005dda <HAL_TIM_PWM_Start+0xfe>
 8005d92:	683b      	ldr	r3, [r7, #0]
 8005d94:	2b04      	cmp	r3, #4
 8005d96:	d104      	bne.n	8005da2 <HAL_TIM_PWM_Start+0xc6>
 8005d98:	687b      	ldr	r3, [r7, #4]
 8005d9a:	2202      	movs	r2, #2
 8005d9c:	f883 203f 	strb.w	r2, [r3, #63]	; 0x3f
 8005da0:	e01b      	b.n	8005dda <HAL_TIM_PWM_Start+0xfe>
 8005da2:	683b      	ldr	r3, [r7, #0]
 8005da4:	2b08      	cmp	r3, #8
 8005da6:	d104      	bne.n	8005db2 <HAL_TIM_PWM_Start+0xd6>
 8005da8:	687b      	ldr	r3, [r7, #4]
 8005daa:	2202      	movs	r2, #2
 8005dac:	f883 2040 	strb.w	r2, [r3, #64]	; 0x40
 8005db0:	e013      	b.n	8005dda <HAL_TIM_PWM_Start+0xfe>
 8005db2:	683b      	ldr	r3, [r7, #0]
 8005db4:	2b0c      	cmp	r3, #12
 8005db6:	d104      	bne.n	8005dc2 <HAL_TIM_PWM_Start+0xe6>
 8005db8:	687b      	ldr	r3, [r7, #4]
 8005dba:	2202      	movs	r2, #2
 8005dbc:	f883 2041 	strb.w	r2, [r3, #65]	; 0x41
 8005dc0:	e00b      	b.n	8005dda <HAL_TIM_PWM_Start+0xfe>
 8005dc2:	683b      	ldr	r3, [r7, #0]
 8005dc4:	2b10      	cmp	r3, #16
 8005dc6:	d104      	bne.n	8005dd2 <HAL_TIM_PWM_Start+0xf6>
 8005dc8:	687b      	ldr	r3, [r7, #4]
 8005dca:	2202      	movs	r2, #2
 8005dcc:	f883 2042 	strb.w	r2, [r3, #66]	; 0x42
 8005dd0:	e003      	b.n	8005dda <HAL_TIM_PWM_Start+0xfe>
 8005dd2:	687b      	ldr	r3, [r7, #4]
 8005dd4:	2202      	movs	r2, #2
 8005dd6:	f883 2043 	strb.w	r2, [r3, #67]	; 0x43

  /* Enable the Capture compare channel */
  TIM_CCxChannelCmd(htim->Instance, Channel, TIM_CCx_ENABLE);
 8005dda:	687b      	ldr	r3, [r7, #4]
 8005ddc:	681b      	ldr	r3, [r3, #0]
 8005dde:	2201      	movs	r2, #1
 8005de0:	6839      	ldr	r1, [r7, #0]
 8005de2:	4618      	mov	r0, r3
 8005de4:	f000 fe54 	bl	8006a90 <TIM_CCxChannelCmd>

  if (IS_TIM_BREAK_INSTANCE(htim->Instance) != RESET)
 8005de8:	687b      	ldr	r3, [r7, #4]
 8005dea:	681b      	ldr	r3, [r3, #0]
 8005dec:	4a35      	ldr	r2, [pc, #212]	; (8005ec4 <HAL_TIM_PWM_Start+0x1e8>)
 8005dee:	4293      	cmp	r3, r2
 8005df0:	d013      	beq.n	8005e1a <HAL_TIM_PWM_Start+0x13e>
 8005df2:	687b      	ldr	r3, [r7, #4]
 8005df4:	681b      	ldr	r3, [r3, #0]
 8005df6:	4a34      	ldr	r2, [pc, #208]	; (8005ec8 <HAL_TIM_PWM_Start+0x1ec>)
 8005df8:	4293      	cmp	r3, r2
 8005dfa:	d00e      	beq.n	8005e1a <HAL_TIM_PWM_Start+0x13e>
 8005dfc:	687b      	ldr	r3, [r7, #4]
 8005dfe:	681b      	ldr	r3, [r3, #0]
 8005e00:	4a32      	ldr	r2, [pc, #200]	; (8005ecc <HAL_TIM_PWM_Start+0x1f0>)
 8005e02:	4293      	cmp	r3, r2
 8005e04:	d009      	beq.n	8005e1a <HAL_TIM_PWM_Start+0x13e>
 8005e06:	687b      	ldr	r3, [r7, #4]
 8005e08:	681b      	ldr	r3, [r3, #0]
 8005e0a:	4a31      	ldr	r2, [pc, #196]	; (8005ed0 <HAL_TIM_PWM_Start+0x1f4>)
 8005e0c:	4293      	cmp	r3, r2
 8005e0e:	d004      	beq.n	8005e1a <HAL_TIM_PWM_Start+0x13e>
 8005e10:	687b      	ldr	r3, [r7, #4]
 8005e12:	681b      	ldr	r3, [r3, #0]
 8005e14:	4a2f      	ldr	r2, [pc, #188]	; (8005ed4 <HAL_TIM_PWM_Start+0x1f8>)
 8005e16:	4293      	cmp	r3, r2
 8005e18:	d101      	bne.n	8005e1e <HAL_TIM_PWM_Start+0x142>
 8005e1a:	2301      	movs	r3, #1
 8005e1c:	e000      	b.n	8005e20 <HAL_TIM_PWM_Start+0x144>
 8005e1e:	2300      	movs	r3, #0
 8005e20:	2b00      	cmp	r3, #0
 8005e22:	d007      	beq.n	8005e34 <HAL_TIM_PWM_Start+0x158>
  {
    /* Enable the main output */
    __HAL_TIM_MOE_ENABLE(htim);
 8005e24:	687b      	ldr	r3, [r7, #4]
 8005e26:	681b      	ldr	r3, [r3, #0]
 8005e28:	6c5a      	ldr	r2, [r3, #68]	; 0x44
 8005e2a:	687b      	ldr	r3, [r7, #4]
 8005e2c:	681b      	ldr	r3, [r3, #0]
 8005e2e:	f442 4200 	orr.w	r2, r2, #32768	; 0x8000
 8005e32:	645a      	str	r2, [r3, #68]	; 0x44
  }

  /* Enable the Peripheral, except in trigger mode where enable is automatically done with trigger */
  if (IS_TIM_SLAVE_INSTANCE(htim->Instance))
 8005e34:	687b      	ldr	r3, [r7, #4]
 8005e36:	681b      	ldr	r3, [r3, #0]
 8005e38:	4a22      	ldr	r2, [pc, #136]	; (8005ec4 <HAL_TIM_PWM_Start+0x1e8>)
 8005e3a:	4293      	cmp	r3, r2
 8005e3c:	d01d      	beq.n	8005e7a <HAL_TIM_PWM_Start+0x19e>
 8005e3e:	687b      	ldr	r3, [r7, #4]
 8005e40:	681b      	ldr	r3, [r3, #0]
 8005e42:	f1b3 4f80 	cmp.w	r3, #1073741824	; 0x40000000
 8005e46:	d018      	beq.n	8005e7a <HAL_TIM_PWM_Start+0x19e>
 8005e48:	687b      	ldr	r3, [r7, #4]
 8005e4a:	681b      	ldr	r3, [r3, #0]
 8005e4c:	4a22      	ldr	r2, [pc, #136]	; (8005ed8 <HAL_TIM_PWM_Start+0x1fc>)
 8005e4e:	4293      	cmp	r3, r2
 8005e50:	d013      	beq.n	8005e7a <HAL_TIM_PWM_Start+0x19e>
 8005e52:	687b      	ldr	r3, [r7, #4]
 8005e54:	681b      	ldr	r3, [r3, #0]
 8005e56:	4a21      	ldr	r2, [pc, #132]	; (8005edc <HAL_TIM_PWM_Start+0x200>)
 8005e58:	4293      	cmp	r3, r2
 8005e5a:	d00e      	beq.n	8005e7a <HAL_TIM_PWM_Start+0x19e>
 8005e5c:	687b      	ldr	r3, [r7, #4]
 8005e5e:	681b      	ldr	r3, [r3, #0]
 8005e60:	4a1f      	ldr	r2, [pc, #124]	; (8005ee0 <HAL_TIM_PWM_Start+0x204>)
 8005e62:	4293      	cmp	r3, r2
 8005e64:	d009      	beq.n	8005e7a <HAL_TIM_PWM_Start+0x19e>
 8005e66:	687b      	ldr	r3, [r7, #4]
 8005e68:	681b      	ldr	r3, [r3, #0]
 8005e6a:	4a17      	ldr	r2, [pc, #92]	; (8005ec8 <HAL_TIM_PWM_Start+0x1ec>)
 8005e6c:	4293      	cmp	r3, r2
 8005e6e:	d004      	beq.n	8005e7a <HAL_TIM_PWM_Start+0x19e>
 8005e70:	687b      	ldr	r3, [r7, #4]
 8005e72:	681b      	ldr	r3, [r3, #0]
 8005e74:	4a15      	ldr	r2, [pc, #84]	; (8005ecc <HAL_TIM_PWM_Start+0x1f0>)
 8005e76:	4293      	cmp	r3, r2
 8005e78:	d115      	bne.n	8005ea6 <HAL_TIM_PWM_Start+0x1ca>
  {
    tmpsmcr = htim->Instance->SMCR & TIM_SMCR_SMS;
 8005e7a:	687b      	ldr	r3, [r7, #4]
 8005e7c:	681b      	ldr	r3, [r3, #0]
 8005e7e:	689a      	ldr	r2, [r3, #8]
 8005e80:	4b18      	ldr	r3, [pc, #96]	; (8005ee4 <HAL_TIM_PWM_Start+0x208>)
 8005e82:	4013      	ands	r3, r2
 8005e84:	60fb      	str	r3, [r7, #12]
    if (!IS_TIM_SLAVEMODE_TRIGGER_ENABLED(tmpsmcr))
 8005e86:	68fb      	ldr	r3, [r7, #12]
 8005e88:	2b06      	cmp	r3, #6
 8005e8a:	d015      	beq.n	8005eb8 <HAL_TIM_PWM_Start+0x1dc>
 8005e8c:	68fb      	ldr	r3, [r7, #12]
 8005e8e:	f5b3 3f80 	cmp.w	r3, #65536	; 0x10000
 8005e92:	d011      	beq.n	8005eb8 <HAL_TIM_PWM_Start+0x1dc>
    {
      __HAL_TIM_ENABLE(htim);
 8005e94:	687b      	ldr	r3, [r7, #4]
 8005e96:	681b      	ldr	r3, [r3, #0]
 8005e98:	681a      	ldr	r2, [r3, #0]
 8005e9a:	687b      	ldr	r3, [r7, #4]
 8005e9c:	681b      	ldr	r3, [r3, #0]
 8005e9e:	f042 0201 	orr.w	r2, r2, #1
 8005ea2:	601a      	str	r2, [r3, #0]
    if (!IS_TIM_SLAVEMODE_TRIGGER_ENABLED(tmpsmcr))
 8005ea4:	e008      	b.n	8005eb8 <HAL_TIM_PWM_Start+0x1dc>
    }
  }
  else
  {
    __HAL_TIM_ENABLE(htim);
 8005ea6:	687b      	ldr	r3, [r7, #4]
 8005ea8:	681b      	ldr	r3, [r3, #0]
 8005eaa:	681a      	ldr	r2, [r3, #0]
 8005eac:	687b      	ldr	r3, [r7, #4]
 8005eae:	681b      	ldr	r3, [r3, #0]
 8005eb0:	f042 0201 	orr.w	r2, r2, #1
 8005eb4:	601a      	str	r2, [r3, #0]
 8005eb6:	e000      	b.n	8005eba <HAL_TIM_PWM_Start+0x1de>
    if (!IS_TIM_SLAVEMODE_TRIGGER_ENABLED(tmpsmcr))
 8005eb8:	bf00      	nop
  }

  /* Return function status */
  return HAL_OK;
 8005eba:	2300      	movs	r3, #0
}
 8005ebc:	4618      	mov	r0, r3
 8005ebe:	3710      	adds	r7, #16
 8005ec0:	46bd      	mov	sp, r7
 8005ec2:	bd80      	pop	{r7, pc}
 8005ec4:	40012c00 	.word	0x40012c00
 8005ec8:	40013400 	.word	0x40013400
 8005ecc:	40014000 	.word	0x40014000
 8005ed0:	40014400 	.word	0x40014400
 8005ed4:	40014800 	.word	0x40014800
 8005ed8:	40000400 	.word	0x40000400
 8005edc:	40000800 	.word	0x40000800
 8005ee0:	40000c00 	.word	0x40000c00
 8005ee4:	00010007 	.word	0x00010007

08005ee8 <HAL_TIM_PWM_ConfigChannel>:
  * @retval HAL status
  */
HAL_StatusTypeDef HAL_TIM_PWM_ConfigChannel(TIM_HandleTypeDef *htim,
                                            TIM_OC_InitTypeDef *sConfig,
                                            uint32_t Channel)
{
 8005ee8:	b580      	push	{r7, lr}
 8005eea:	b084      	sub	sp, #16
 8005eec:	af00      	add	r7, sp, #0
 8005eee:	60f8      	str	r0, [r7, #12]
 8005ef0:	60b9      	str	r1, [r7, #8]
 8005ef2:	607a      	str	r2, [r7, #4]
  assert_param(IS_TIM_PWM_MODE(sConfig->OCMode));
  assert_param(IS_TIM_OC_POLARITY(sConfig->OCPolarity));
  assert_param(IS_TIM_FAST_STATE(sConfig->OCFastMode));

  /* Process Locked */
  __HAL_LOCK(htim);
 8005ef4:	68fb      	ldr	r3, [r7, #12]
 8005ef6:	f893 303c 	ldrb.w	r3, [r3, #60]	; 0x3c
 8005efa:	2b01      	cmp	r3, #1
 8005efc:	d101      	bne.n	8005f02 <HAL_TIM_PWM_ConfigChannel+0x1a>
 8005efe:	2302      	movs	r3, #2
 8005f00:	e0fd      	b.n	80060fe <HAL_TIM_PWM_ConfigChannel+0x216>
 8005f02:	68fb      	ldr	r3, [r7, #12]
 8005f04:	2201      	movs	r2, #1
 8005f06:	f883 203c 	strb.w	r2, [r3, #60]	; 0x3c

  switch (Channel)
 8005f0a:	687b      	ldr	r3, [r7, #4]
 8005f0c:	2b14      	cmp	r3, #20
 8005f0e:	f200 80f0 	bhi.w	80060f2 <HAL_TIM_PWM_ConfigChannel+0x20a>
 8005f12:	a201      	add	r2, pc, #4	; (adr r2, 8005f18 <HAL_TIM_PWM_ConfigChannel+0x30>)
 8005f14:	f852 f023 	ldr.w	pc, [r2, r3, lsl #2]
 8005f18:	08005f6d 	.word	0x08005f6d
 8005f1c:	080060f3 	.word	0x080060f3
 8005f20:	080060f3 	.word	0x080060f3
 8005f24:	080060f3 	.word	0x080060f3
 8005f28:	08005fad 	.word	0x08005fad
 8005f2c:	080060f3 	.word	0x080060f3
 8005f30:	080060f3 	.word	0x080060f3
 8005f34:	080060f3 	.word	0x080060f3
 8005f38:	08005fef 	.word	0x08005fef
 8005f3c:	080060f3 	.word	0x080060f3
 8005f40:	080060f3 	.word	0x080060f3
 8005f44:	080060f3 	.word	0x080060f3
 8005f48:	0800602f 	.word	0x0800602f
 8005f4c:	080060f3 	.word	0x080060f3
 8005f50:	080060f3 	.word	0x080060f3
 8005f54:	080060f3 	.word	0x080060f3
 8005f58:	08006071 	.word	0x08006071
 8005f5c:	080060f3 	.word	0x080060f3
 8005f60:	080060f3 	.word	0x080060f3
 8005f64:	080060f3 	.word	0x080060f3
 8005f68:	080060b1 	.word	0x080060b1
    {
      /* Check the parameters */
      assert_param(IS_TIM_CC1_INSTANCE(htim->Instance));

      /* Configure the Channel 1 in PWM mode */
      TIM_OC1_SetConfig(htim->Instance, sConfig);
 8005f6c:	68fb      	ldr	r3, [r7, #12]
 8005f6e:	681b      	ldr	r3, [r3, #0]
 8005f70:	68b9      	ldr	r1, [r7, #8]
 8005f72:	4618      	mov	r0, r3
 8005f74:	f000 fa1c 	bl	80063b0 <TIM_OC1_SetConfig>

      /* Set the Preload enable bit for channel1 */
      htim->Instance->CCMR1 |= TIM_CCMR1_OC1PE;
 8005f78:	68fb      	ldr	r3, [r7, #12]
 8005f7a:	681b      	ldr	r3, [r3, #0]
 8005f7c:	699a      	ldr	r2, [r3, #24]
 8005f7e:	68fb      	ldr	r3, [r7, #12]
 8005f80:	681b      	ldr	r3, [r3, #0]
 8005f82:	f042 0208 	orr.w	r2, r2, #8
 8005f86:	619a      	str	r2, [r3, #24]

      /* Configure the Output Fast mode */
      htim->Instance->CCMR1 &= ~TIM_CCMR1_OC1FE;
 8005f88:	68fb      	ldr	r3, [r7, #12]
 8005f8a:	681b      	ldr	r3, [r3, #0]
 8005f8c:	699a      	ldr	r2, [r3, #24]
 8005f8e:	68fb      	ldr	r3, [r7, #12]
 8005f90:	681b      	ldr	r3, [r3, #0]
 8005f92:	f022 0204 	bic.w	r2, r2, #4
 8005f96:	619a      	str	r2, [r3, #24]
      htim->Instance->CCMR1 |= sConfig->OCFastMode;
 8005f98:	68fb      	ldr	r3, [r7, #12]
 8005f9a:	681b      	ldr	r3, [r3, #0]
 8005f9c:	6999      	ldr	r1, [r3, #24]
 8005f9e:	68bb      	ldr	r3, [r7, #8]
 8005fa0:	691a      	ldr	r2, [r3, #16]
 8005fa2:	68fb      	ldr	r3, [r7, #12]
 8005fa4:	681b      	ldr	r3, [r3, #0]
 8005fa6:	430a      	orrs	r2, r1
 8005fa8:	619a      	str	r2, [r3, #24]
      break;
 8005faa:	e0a3      	b.n	80060f4 <HAL_TIM_PWM_ConfigChannel+0x20c>
    {
      /* Check the parameters */
      assert_param(IS_TIM_CC2_INSTANCE(htim->Instance));

      /* Configure the Channel 2 in PWM mode */
      TIM_OC2_SetConfig(htim->Instance, sConfig);
 8005fac:	68fb      	ldr	r3, [r7, #12]
 8005fae:	681b      	ldr	r3, [r3, #0]
 8005fb0:	68b9      	ldr	r1, [r7, #8]
 8005fb2:	4618      	mov	r0, r3
 8005fb4:	f000 fa8c 	bl	80064d0 <TIM_OC2_SetConfig>

      /* Set the Preload enable bit for channel2 */
      htim->Instance->CCMR1 |= TIM_CCMR1_OC2PE;
 8005fb8:	68fb      	ldr	r3, [r7, #12]
 8005fba:	681b      	ldr	r3, [r3, #0]
 8005fbc:	699a      	ldr	r2, [r3, #24]
 8005fbe:	68fb      	ldr	r3, [r7, #12]
 8005fc0:	681b      	ldr	r3, [r3, #0]
 8005fc2:	f442 6200 	orr.w	r2, r2, #2048	; 0x800
 8005fc6:	619a      	str	r2, [r3, #24]

      /* Configure the Output Fast mode */
      htim->Instance->CCMR1 &= ~TIM_CCMR1_OC2FE;
 8005fc8:	68fb      	ldr	r3, [r7, #12]
 8005fca:	681b      	ldr	r3, [r3, #0]
 8005fcc:	699a      	ldr	r2, [r3, #24]
 8005fce:	68fb      	ldr	r3, [r7, #12]
 8005fd0:	681b      	ldr	r3, [r3, #0]
 8005fd2:	f422 6280 	bic.w	r2, r2, #1024	; 0x400
 8005fd6:	619a      	str	r2, [r3, #24]
      htim->Instance->CCMR1 |= sConfig->OCFastMode << 8U;
 8005fd8:	68fb      	ldr	r3, [r7, #12]
 8005fda:	681b      	ldr	r3, [r3, #0]
 8005fdc:	6999      	ldr	r1, [r3, #24]
 8005fde:	68bb      	ldr	r3, [r7, #8]
 8005fe0:	691b      	ldr	r3, [r3, #16]
 8005fe2:	021a      	lsls	r2, r3, #8
 8005fe4:	68fb      	ldr	r3, [r7, #12]
 8005fe6:	681b      	ldr	r3, [r3, #0]
 8005fe8:	430a      	orrs	r2, r1
 8005fea:	619a      	str	r2, [r3, #24]
      break;
 8005fec:	e082      	b.n	80060f4 <HAL_TIM_PWM_ConfigChannel+0x20c>
    {
      /* Check the parameters */
      assert_param(IS_TIM_CC3_INSTANCE(htim->Instance));

      /* Configure the Channel 3 in PWM mode */
      TIM_OC3_SetConfig(htim->Instance, sConfig);
 8005fee:	68fb      	ldr	r3, [r7, #12]
 8005ff0:	681b      	ldr	r3, [r3, #0]
 8005ff2:	68b9      	ldr	r1, [r7, #8]
 8005ff4:	4618      	mov	r0, r3
 8005ff6:	f000 faf5 	bl	80065e4 <TIM_OC3_SetConfig>

      /* Set the Preload enable bit for channel3 */
      htim->Instance->CCMR2 |= TIM_CCMR2_OC3PE;
 8005ffa:	68fb      	ldr	r3, [r7, #12]
 8005ffc:	681b      	ldr	r3, [r3, #0]
 8005ffe:	69da      	ldr	r2, [r3, #28]
 8006000:	68fb      	ldr	r3, [r7, #12]
 8006002:	681b      	ldr	r3, [r3, #0]
 8006004:	f042 0208 	orr.w	r2, r2, #8
 8006008:	61da      	str	r2, [r3, #28]

      /* Configure the Output Fast mode */
      htim->Instance->CCMR2 &= ~TIM_CCMR2_OC3FE;
 800600a:	68fb      	ldr	r3, [r7, #12]
 800600c:	681b      	ldr	r3, [r3, #0]
 800600e:	69da      	ldr	r2, [r3, #28]
 8006010:	68fb      	ldr	r3, [r7, #12]
 8006012:	681b      	ldr	r3, [r3, #0]
 8006014:	f022 0204 	bic.w	r2, r2, #4
 8006018:	61da      	str	r2, [r3, #28]
      htim->Instance->CCMR2 |= sConfig->OCFastMode;
 800601a:	68fb      	ldr	r3, [r7, #12]
 800601c:	681b      	ldr	r3, [r3, #0]
 800601e:	69d9      	ldr	r1, [r3, #28]
 8006020:	68bb      	ldr	r3, [r7, #8]
 8006022:	691a      	ldr	r2, [r3, #16]
 8006024:	68fb      	ldr	r3, [r7, #12]
 8006026:	681b      	ldr	r3, [r3, #0]
 8006028:	430a      	orrs	r2, r1
 800602a:	61da      	str	r2, [r3, #28]
      break;
 800602c:	e062      	b.n	80060f4 <HAL_TIM_PWM_ConfigChannel+0x20c>
    {
      /* Check the parameters */
      assert_param(IS_TIM_CC4_INSTANCE(htim->Instance));

      /* Configure the Channel 4 in PWM mode */
      TIM_OC4_SetConfig(htim->Instance, sConfig);
 800602e:	68fb      	ldr	r3, [r7, #12]
 8006030:	681b      	ldr	r3, [r3, #0]
 8006032:	68b9      	ldr	r1, [r7, #8]
 8006034:	4618      	mov	r0, r3
 8006036:	f000 fb5d 	bl	80066f4 <TIM_OC4_SetConfig>

      /* Set the Preload enable bit for channel4 */
      htim->Instance->CCMR2 |= TIM_CCMR2_OC4PE;
 800603a:	68fb      	ldr	r3, [r7, #12]
 800603c:	681b      	ldr	r3, [r3, #0]
 800603e:	69da      	ldr	r2, [r3, #28]
 8006040:	68fb      	ldr	r3, [r7, #12]
 8006042:	681b      	ldr	r3, [r3, #0]
 8006044:	f442 6200 	orr.w	r2, r2, #2048	; 0x800
 8006048:	61da      	str	r2, [r3, #28]

      /* Configure the Output Fast mode */
      htim->Instance->CCMR2 &= ~TIM_CCMR2_OC4FE;
 800604a:	68fb      	ldr	r3, [r7, #12]
 800604c:	681b      	ldr	r3, [r3, #0]
 800604e:	69da      	ldr	r2, [r3, #28]
 8006050:	68fb      	ldr	r3, [r7, #12]
 8006052:	681b      	ldr	r3, [r3, #0]
 8006054:	f422 6280 	bic.w	r2, r2, #1024	; 0x400
 8006058:	61da      	str	r2, [r3, #28]
      htim->Instance->CCMR2 |= sConfig->OCFastMode << 8U;
 800605a:	68fb      	ldr	r3, [r7, #12]
 800605c:	681b      	ldr	r3, [r3, #0]
 800605e:	69d9      	ldr	r1, [r3, #28]
 8006060:	68bb      	ldr	r3, [r7, #8]
 8006062:	691b      	ldr	r3, [r3, #16]
 8006064:	021a      	lsls	r2, r3, #8
 8006066:	68fb      	ldr	r3, [r7, #12]
 8006068:	681b      	ldr	r3, [r3, #0]
 800606a:	430a      	orrs	r2, r1
 800606c:	61da      	str	r2, [r3, #28]
      break;
 800606e:	e041      	b.n	80060f4 <HAL_TIM_PWM_ConfigChannel+0x20c>
    {
      /* Check the parameters */
      assert_param(IS_TIM_CC5_INSTANCE(htim->Instance));

      /* Configure the Channel 5 in PWM mode */
      TIM_OC5_SetConfig(htim->Instance, sConfig);
 8006070:	68fb      	ldr	r3, [r7, #12]
 8006072:	681b      	ldr	r3, [r3, #0]
 8006074:	68b9      	ldr	r1, [r7, #8]
 8006076:	4618      	mov	r0, r3
 8006078:	f000 fba6 	bl	80067c8 <TIM_OC5_SetConfig>

      /* Set the Preload enable bit for channel5*/
      htim->Instance->CCMR3 |= TIM_CCMR3_OC5PE;
 800607c:	68fb      	ldr	r3, [r7, #12]
 800607e:	681b      	ldr	r3, [r3, #0]
 8006080:	6d5a      	ldr	r2, [r3, #84]	; 0x54
 8006082:	68fb      	ldr	r3, [r7, #12]
 8006084:	681b      	ldr	r3, [r3, #0]
 8006086:	f042 0208 	orr.w	r2, r2, #8
 800608a:	655a      	str	r2, [r3, #84]	; 0x54

      /* Configure the Output Fast mode */
      htim->Instance->CCMR3 &= ~TIM_CCMR3_OC5FE;
 800608c:	68fb      	ldr	r3, [r7, #12]
 800608e:	681b      	ldr	r3, [r3, #0]
 8006090:	6d5a      	ldr	r2, [r3, #84]	; 0x54
 8006092:	68fb      	ldr	r3, [r7, #12]
 8006094:	681b      	ldr	r3, [r3, #0]
 8006096:	f022 0204 	bic.w	r2, r2, #4
 800609a:	655a      	str	r2, [r3, #84]	; 0x54
      htim->Instance->CCMR3 |= sConfig->OCFastMode;
 800609c:	68fb      	ldr	r3, [r7, #12]
 800609e:	681b      	ldr	r3, [r3, #0]
 80060a0:	6d59      	ldr	r1, [r3, #84]	; 0x54
 80060a2:	68bb      	ldr	r3, [r7, #8]
 80060a4:	691a      	ldr	r2, [r3, #16]
 80060a6:	68fb      	ldr	r3, [r7, #12]
 80060a8:	681b      	ldr	r3, [r3, #0]
 80060aa:	430a      	orrs	r2, r1
 80060ac:	655a      	str	r2, [r3, #84]	; 0x54
      break;
 80060ae:	e021      	b.n	80060f4 <HAL_TIM_PWM_ConfigChannel+0x20c>
    {
      /* Check the parameters */
      assert_param(IS_TIM_CC6_INSTANCE(htim->Instance));

      /* Configure the Channel 6 in PWM mode */
      TIM_OC6_SetConfig(htim->Instance, sConfig);
 80060b0:	68fb      	ldr	r3, [r7, #12]
 80060b2:	681b      	ldr	r3, [r3, #0]
 80060b4:	68b9      	ldr	r1, [r7, #8]
 80060b6:	4618      	mov	r0, r3
 80060b8:	f000 fbea 	bl	8006890 <TIM_OC6_SetConfig>

      /* Set the Preload enable bit for channel6 */
      htim->Instance->CCMR3 |= TIM_CCMR3_OC6PE;
 80060bc:	68fb      	ldr	r3, [r7, #12]
 80060be:	681b      	ldr	r3, [r3, #0]
 80060c0:	6d5a      	ldr	r2, [r3, #84]	; 0x54
 80060c2:	68fb      	ldr	r3, [r7, #12]
 80060c4:	681b      	ldr	r3, [r3, #0]
 80060c6:	f442 6200 	orr.w	r2, r2, #2048	; 0x800
 80060ca:	655a      	str	r2, [r3, #84]	; 0x54

      /* Configure the Output Fast mode */
      htim->Instance->CCMR3 &= ~TIM_CCMR3_OC6FE;
 80060cc:	68fb      	ldr	r3, [r7, #12]
 80060ce:	681b      	ldr	r3, [r3, #0]
 80060d0:	6d5a      	ldr	r2, [r3, #84]	; 0x54
 80060d2:	68fb      	ldr	r3, [r7, #12]
 80060d4:	681b      	ldr	r3, [r3, #0]
 80060d6:	f422 6280 	bic.w	r2, r2, #1024	; 0x400
 80060da:	655a      	str	r2, [r3, #84]	; 0x54
      htim->Instance->CCMR3 |= sConfig->OCFastMode << 8U;
 80060dc:	68fb      	ldr	r3, [r7, #12]
 80060de:	681b      	ldr	r3, [r3, #0]
 80060e0:	6d59      	ldr	r1, [r3, #84]	; 0x54
 80060e2:	68bb      	ldr	r3, [r7, #8]
 80060e4:	691b      	ldr	r3, [r3, #16]
 80060e6:	021a      	lsls	r2, r3, #8
 80060e8:	68fb      	ldr	r3, [r7, #12]
 80060ea:	681b      	ldr	r3, [r3, #0]
 80060ec:	430a      	orrs	r2, r1
 80060ee:	655a      	str	r2, [r3, #84]	; 0x54
      break;
 80060f0:	e000      	b.n	80060f4 <HAL_TIM_PWM_ConfigChannel+0x20c>
    }

    default:
      break;
 80060f2:	bf00      	nop
  }

  __HAL_UNLOCK(htim);
 80060f4:	68fb      	ldr	r3, [r7, #12]
 80060f6:	2200      	movs	r2, #0
 80060f8:	f883 203c 	strb.w	r2, [r3, #60]	; 0x3c

  return HAL_OK;
 80060fc:	2300      	movs	r3, #0
}
 80060fe:	4618      	mov	r0, r3
 8006100:	3710      	adds	r7, #16
 8006102:	46bd      	mov	sp, r7
 8006104:	bd80      	pop	{r7, pc}
 8006106:	bf00      	nop

08006108 <HAL_TIM_ConfigClockSource>:
  * @param  sClockSourceConfig pointer to a TIM_ClockConfigTypeDef structure that
  *         contains the clock source information for the TIM peripheral.
  * @retval HAL status
  */
HAL_StatusTypeDef HAL_TIM_ConfigClockSource(TIM_HandleTypeDef *htim, TIM_ClockConfigTypeDef *sClockSourceConfig)
{
 8006108:	b580      	push	{r7, lr}
 800610a:	b084      	sub	sp, #16
 800610c:	af00      	add	r7, sp, #0
 800610e:	6078      	str	r0, [r7, #4]
 8006110:	6039      	str	r1, [r7, #0]
  uint32_t tmpsmcr;

  /* Process Locked */
  __HAL_LOCK(htim);
 8006112:	687b      	ldr	r3, [r7, #4]
 8006114:	f893 303c 	ldrb.w	r3, [r3, #60]	; 0x3c
 8006118:	2b01      	cmp	r3, #1
 800611a:	d101      	bne.n	8006120 <HAL_TIM_ConfigClockSource+0x18>
 800611c:	2302      	movs	r3, #2
 800611e:	e0a8      	b.n	8006272 <HAL_TIM_ConfigClockSource+0x16a>
 8006120:	687b      	ldr	r3, [r7, #4]
 8006122:	2201      	movs	r2, #1
 8006124:	f883 203c 	strb.w	r2, [r3, #60]	; 0x3c

  htim->State = HAL_TIM_STATE_BUSY;
 8006128:	687b      	ldr	r3, [r7, #4]
 800612a:	2202      	movs	r2, #2
 800612c:	f883 203d 	strb.w	r2, [r3, #61]	; 0x3d

  /* Check the parameters */
  assert_param(IS_TIM_CLOCKSOURCE(sClockSourceConfig->ClockSource));

  /* Reset the SMS, TS, ECE, ETPS and ETRF bits */
  tmpsmcr = htim->Instance->SMCR;
 8006130:	687b      	ldr	r3, [r7, #4]
 8006132:	681b      	ldr	r3, [r3, #0]
 8006134:	689b      	ldr	r3, [r3, #8]
 8006136:	60fb      	str	r3, [r7, #12]
  tmpsmcr &= ~(TIM_SMCR_SMS | TIM_SMCR_TS);
 8006138:	68fb      	ldr	r3, [r7, #12]
 800613a:	f423 3380 	bic.w	r3, r3, #65536	; 0x10000
 800613e:	f023 0377 	bic.w	r3, r3, #119	; 0x77
 8006142:	60fb      	str	r3, [r7, #12]
  tmpsmcr &= ~(TIM_SMCR_ETF | TIM_SMCR_ETPS | TIM_SMCR_ECE | TIM_SMCR_ETP);
 8006144:	68fb      	ldr	r3, [r7, #12]
 8006146:	f423 437f 	bic.w	r3, r3, #65280	; 0xff00
 800614a:	60fb      	str	r3, [r7, #12]
  htim->Instance->SMCR = tmpsmcr;
 800614c:	687b      	ldr	r3, [r7, #4]
 800614e:	681b      	ldr	r3, [r3, #0]
 8006150:	68fa      	ldr	r2, [r7, #12]
 8006152:	609a      	str	r2, [r3, #8]

  switch (sClockSourceConfig->ClockSource)
 8006154:	683b      	ldr	r3, [r7, #0]
 8006156:	681b      	ldr	r3, [r3, #0]
 8006158:	2b40      	cmp	r3, #64	; 0x40
 800615a:	d067      	beq.n	800622c <HAL_TIM_ConfigClockSource+0x124>
 800615c:	2b40      	cmp	r3, #64	; 0x40
 800615e:	d80b      	bhi.n	8006178 <HAL_TIM_ConfigClockSource+0x70>
 8006160:	2b10      	cmp	r3, #16
 8006162:	d073      	beq.n	800624c <HAL_TIM_ConfigClockSource+0x144>
 8006164:	2b10      	cmp	r3, #16
 8006166:	d802      	bhi.n	800616e <HAL_TIM_ConfigClockSource+0x66>
 8006168:	2b00      	cmp	r3, #0
 800616a:	d06f      	beq.n	800624c <HAL_TIM_ConfigClockSource+0x144>
        TIM_ITRx_SetConfig(htim->Instance, sClockSourceConfig->ClockSource);
        break;
      }

    default:
      break;
 800616c:	e078      	b.n	8006260 <HAL_TIM_ConfigClockSource+0x158>
  switch (sClockSourceConfig->ClockSource)
 800616e:	2b20      	cmp	r3, #32
 8006170:	d06c      	beq.n	800624c <HAL_TIM_ConfigClockSource+0x144>
 8006172:	2b30      	cmp	r3, #48	; 0x30
 8006174:	d06a      	beq.n	800624c <HAL_TIM_ConfigClockSource+0x144>
      break;
 8006176:	e073      	b.n	8006260 <HAL_TIM_ConfigClockSource+0x158>
  switch (sClockSourceConfig->ClockSource)
 8006178:	2b70      	cmp	r3, #112	; 0x70
 800617a:	d00d      	beq.n	8006198 <HAL_TIM_ConfigClockSource+0x90>
 800617c:	2b70      	cmp	r3, #112	; 0x70
 800617e:	d804      	bhi.n	800618a <HAL_TIM_ConfigClockSource+0x82>
 8006180:	2b50      	cmp	r3, #80	; 0x50
 8006182:	d033      	beq.n	80061ec <HAL_TIM_ConfigClockSource+0xe4>
 8006184:	2b60      	cmp	r3, #96	; 0x60
 8006186:	d041      	beq.n	800620c <HAL_TIM_ConfigClockSource+0x104>
      break;
 8006188:	e06a      	b.n	8006260 <HAL_TIM_ConfigClockSource+0x158>
  switch (sClockSourceConfig->ClockSource)
 800618a:	f5b3 5f80 	cmp.w	r3, #4096	; 0x1000
 800618e:	d066      	beq.n	800625e <HAL_TIM_ConfigClockSource+0x156>
 8006190:	f5b3 5f00 	cmp.w	r3, #8192	; 0x2000
 8006194:	d017      	beq.n	80061c6 <HAL_TIM_ConfigClockSource+0xbe>
      break;
 8006196:	e063      	b.n	8006260 <HAL_TIM_ConfigClockSource+0x158>
      TIM_ETR_SetConfig(htim->Instance,
 8006198:	687b      	ldr	r3, [r7, #4]
 800619a:	6818      	ldr	r0, [r3, #0]
 800619c:	683b      	ldr	r3, [r7, #0]
 800619e:	6899      	ldr	r1, [r3, #8]
 80061a0:	683b      	ldr	r3, [r7, #0]
 80061a2:	685a      	ldr	r2, [r3, #4]
 80061a4:	683b      	ldr	r3, [r7, #0]
 80061a6:	68db      	ldr	r3, [r3, #12]
 80061a8:	f000 fc52 	bl	8006a50 <TIM_ETR_SetConfig>
      tmpsmcr = htim->Instance->SMCR;
 80061ac:	687b      	ldr	r3, [r7, #4]
 80061ae:	681b      	ldr	r3, [r3, #0]
 80061b0:	689b      	ldr	r3, [r3, #8]
 80061b2:	60fb      	str	r3, [r7, #12]
      tmpsmcr |= (TIM_SLAVEMODE_EXTERNAL1 | TIM_CLOCKSOURCE_ETRMODE1);
 80061b4:	68fb      	ldr	r3, [r7, #12]
 80061b6:	f043 0377 	orr.w	r3, r3, #119	; 0x77
 80061ba:	60fb      	str	r3, [r7, #12]
      htim->Instance->SMCR = tmpsmcr;
 80061bc:	687b      	ldr	r3, [r7, #4]
 80061be:	681b      	ldr	r3, [r3, #0]
 80061c0:	68fa      	ldr	r2, [r7, #12]
 80061c2:	609a      	str	r2, [r3, #8]
      break;
 80061c4:	e04c      	b.n	8006260 <HAL_TIM_ConfigClockSource+0x158>
      TIM_ETR_SetConfig(htim->Instance,
 80061c6:	687b      	ldr	r3, [r7, #4]
 80061c8:	6818      	ldr	r0, [r3, #0]
 80061ca:	683b      	ldr	r3, [r7, #0]
 80061cc:	6899      	ldr	r1, [r3, #8]
 80061ce:	683b      	ldr	r3, [r7, #0]
 80061d0:	685a      	ldr	r2, [r3, #4]
 80061d2:	683b      	ldr	r3, [r7, #0]
 80061d4:	68db      	ldr	r3, [r3, #12]
 80061d6:	f000 fc3b 	bl	8006a50 <TIM_ETR_SetConfig>
      htim->Instance->SMCR |= TIM_SMCR_ECE;
 80061da:	687b      	ldr	r3, [r7, #4]
 80061dc:	681b      	ldr	r3, [r3, #0]
 80061de:	689a      	ldr	r2, [r3, #8]
 80061e0:	687b      	ldr	r3, [r7, #4]
 80061e2:	681b      	ldr	r3, [r3, #0]
 80061e4:	f442 4280 	orr.w	r2, r2, #16384	; 0x4000
 80061e8:	609a      	str	r2, [r3, #8]
      break;
 80061ea:	e039      	b.n	8006260 <HAL_TIM_ConfigClockSource+0x158>
      TIM_TI1_ConfigInputStage(htim->Instance,
 80061ec:	687b      	ldr	r3, [r7, #4]
 80061ee:	6818      	ldr	r0, [r3, #0]
 80061f0:	683b      	ldr	r3, [r7, #0]
 80061f2:	6859      	ldr	r1, [r3, #4]
 80061f4:	683b      	ldr	r3, [r7, #0]
 80061f6:	68db      	ldr	r3, [r3, #12]
 80061f8:	461a      	mov	r2, r3
 80061fa:	f000 fbaf 	bl	800695c <TIM_TI1_ConfigInputStage>
      TIM_ITRx_SetConfig(htim->Instance, TIM_CLOCKSOURCE_TI1);
 80061fe:	687b      	ldr	r3, [r7, #4]
 8006200:	681b      	ldr	r3, [r3, #0]
 8006202:	2150      	movs	r1, #80	; 0x50
 8006204:	4618      	mov	r0, r3
 8006206:	f000 fc08 	bl	8006a1a <TIM_ITRx_SetConfig>
      break;
 800620a:	e029      	b.n	8006260 <HAL_TIM_ConfigClockSource+0x158>
      TIM_TI2_ConfigInputStage(htim->Instance,
 800620c:	687b      	ldr	r3, [r7, #4]
 800620e:	6818      	ldr	r0, [r3, #0]
 8006210:	683b      	ldr	r3, [r7, #0]
 8006212:	6859      	ldr	r1, [r3, #4]
 8006214:	683b      	ldr	r3, [r7, #0]
 8006216:	68db      	ldr	r3, [r3, #12]
 8006218:	461a      	mov	r2, r3
 800621a:	f000 fbce 	bl	80069ba <TIM_TI2_ConfigInputStage>
      TIM_ITRx_SetConfig(htim->Instance, TIM_CLOCKSOURCE_TI2);
 800621e:	687b      	ldr	r3, [r7, #4]
 8006220:	681b      	ldr	r3, [r3, #0]
 8006222:	2160      	movs	r1, #96	; 0x60
 8006224:	4618      	mov	r0, r3
 8006226:	f000 fbf8 	bl	8006a1a <TIM_ITRx_SetConfig>
      break;
 800622a:	e019      	b.n	8006260 <HAL_TIM_ConfigClockSource+0x158>
      TIM_TI1_ConfigInputStage(htim->Instance,
 800622c:	687b      	ldr	r3, [r7, #4]
 800622e:	6818      	ldr	r0, [r3, #0]
 8006230:	683b      	ldr	r3, [r7, #0]
 8006232:	6859      	ldr	r1, [r3, #4]
 8006234:	683b      	ldr	r3, [r7, #0]
 8006236:	68db      	ldr	r3, [r3, #12]
 8006238:	461a      	mov	r2, r3
 800623a:	f000 fb8f 	bl	800695c <TIM_TI1_ConfigInputStage>
      TIM_ITRx_SetConfig(htim->Instance, TIM_CLOCKSOURCE_TI1ED);
 800623e:	687b      	ldr	r3, [r7, #4]
 8006240:	681b      	ldr	r3, [r3, #0]
 8006242:	2140      	movs	r1, #64	; 0x40
 8006244:	4618      	mov	r0, r3
 8006246:	f000 fbe8 	bl	8006a1a <TIM_ITRx_SetConfig>
      break;
 800624a:	e009      	b.n	8006260 <HAL_TIM_ConfigClockSource+0x158>
        TIM_ITRx_SetConfig(htim->Instance, sClockSourceConfig->ClockSource);
 800624c:	687b      	ldr	r3, [r7, #4]
 800624e:	681a      	ldr	r2, [r3, #0]
 8006250:	683b      	ldr	r3, [r7, #0]
 8006252:	681b      	ldr	r3, [r3, #0]
 8006254:	4619      	mov	r1, r3
 8006256:	4610      	mov	r0, r2
 8006258:	f000 fbdf 	bl	8006a1a <TIM_ITRx_SetConfig>
        break;
 800625c:	e000      	b.n	8006260 <HAL_TIM_ConfigClockSource+0x158>
      break;
 800625e:	bf00      	nop
  }
  htim->State = HAL_TIM_STATE_READY;
 8006260:	687b      	ldr	r3, [r7, #4]
 8006262:	2201      	movs	r2, #1
 8006264:	f883 203d 	strb.w	r2, [r3, #61]	; 0x3d

  __HAL_UNLOCK(htim);
 8006268:	687b      	ldr	r3, [r7, #4]
 800626a:	2200      	movs	r2, #0
 800626c:	f883 203c 	strb.w	r2, [r3, #60]	; 0x3c

  return HAL_OK;
 8006270:	2300      	movs	r3, #0
}
 8006272:	4618      	mov	r0, r3
 8006274:	3710      	adds	r7, #16
 8006276:	46bd      	mov	sp, r7
 8006278:	bd80      	pop	{r7, pc}
	...

0800627c <TIM_Base_SetConfig>:
  * @param  TIMx TIM peripheral
  * @param  Structure TIM Base configuration structure
  * @retval None
  */
void TIM_Base_SetConfig(TIM_TypeDef *TIMx, TIM_Base_InitTypeDef *Structure)
{
 800627c:	b480      	push	{r7}
 800627e:	b085      	sub	sp, #20
 8006280:	af00      	add	r7, sp, #0
 8006282:	6078      	str	r0, [r7, #4]
 8006284:	6039      	str	r1, [r7, #0]
  uint32_t tmpcr1;
  tmpcr1 = TIMx->CR1;
 8006286:	687b      	ldr	r3, [r7, #4]
 8006288:	681b      	ldr	r3, [r3, #0]
 800628a:	60fb      	str	r3, [r7, #12]

  /* Set TIM Time Base Unit parameters ---------------------------------------*/
  if (IS_TIM_COUNTER_MODE_SELECT_INSTANCE(TIMx))
 800628c:	687b      	ldr	r3, [r7, #4]
 800628e:	4a40      	ldr	r2, [pc, #256]	; (8006390 <TIM_Base_SetConfig+0x114>)
 8006290:	4293      	cmp	r3, r2
 8006292:	d013      	beq.n	80062bc <TIM_Base_SetConfig+0x40>
 8006294:	687b      	ldr	r3, [r7, #4]
 8006296:	f1b3 4f80 	cmp.w	r3, #1073741824	; 0x40000000
 800629a:	d00f      	beq.n	80062bc <TIM_Base_SetConfig+0x40>
 800629c:	687b      	ldr	r3, [r7, #4]
 800629e:	4a3d      	ldr	r2, [pc, #244]	; (8006394 <TIM_Base_SetConfig+0x118>)
 80062a0:	4293      	cmp	r3, r2
 80062a2:	d00b      	beq.n	80062bc <TIM_Base_SetConfig+0x40>
 80062a4:	687b      	ldr	r3, [r7, #4]
 80062a6:	4a3c      	ldr	r2, [pc, #240]	; (8006398 <TIM_Base_SetConfig+0x11c>)
 80062a8:	4293      	cmp	r3, r2
 80062aa:	d007      	beq.n	80062bc <TIM_Base_SetConfig+0x40>
 80062ac:	687b      	ldr	r3, [r7, #4]
 80062ae:	4a3b      	ldr	r2, [pc, #236]	; (800639c <TIM_Base_SetConfig+0x120>)
 80062b0:	4293      	cmp	r3, r2
 80062b2:	d003      	beq.n	80062bc <TIM_Base_SetConfig+0x40>
 80062b4:	687b      	ldr	r3, [r7, #4]
 80062b6:	4a3a      	ldr	r2, [pc, #232]	; (80063a0 <TIM_Base_SetConfig+0x124>)
 80062b8:	4293      	cmp	r3, r2
 80062ba:	d108      	bne.n	80062ce <TIM_Base_SetConfig+0x52>
  {
    /* Select the Counter Mode */
    tmpcr1 &= ~(TIM_CR1_DIR | TIM_CR1_CMS);
 80062bc:	68fb      	ldr	r3, [r7, #12]
 80062be:	f023 0370 	bic.w	r3, r3, #112	; 0x70
 80062c2:	60fb      	str	r3, [r7, #12]
    tmpcr1 |= Structure->CounterMode;
 80062c4:	683b      	ldr	r3, [r7, #0]
 80062c6:	685b      	ldr	r3, [r3, #4]
 80062c8:	68fa      	ldr	r2, [r7, #12]
 80062ca:	4313      	orrs	r3, r2
 80062cc:	60fb      	str	r3, [r7, #12]
  }

  if (IS_TIM_CLOCK_DIVISION_INSTANCE(TIMx))
 80062ce:	687b      	ldr	r3, [r7, #4]
 80062d0:	4a2f      	ldr	r2, [pc, #188]	; (8006390 <TIM_Base_SetConfig+0x114>)
 80062d2:	4293      	cmp	r3, r2
 80062d4:	d01f      	beq.n	8006316 <TIM_Base_SetConfig+0x9a>
 80062d6:	687b      	ldr	r3, [r7, #4]
 80062d8:	f1b3 4f80 	cmp.w	r3, #1073741824	; 0x40000000
 80062dc:	d01b      	beq.n	8006316 <TIM_Base_SetConfig+0x9a>
 80062de:	687b      	ldr	r3, [r7, #4]
 80062e0:	4a2c      	ldr	r2, [pc, #176]	; (8006394 <TIM_Base_SetConfig+0x118>)
 80062e2:	4293      	cmp	r3, r2
 80062e4:	d017      	beq.n	8006316 <TIM_Base_SetConfig+0x9a>
 80062e6:	687b      	ldr	r3, [r7, #4]
 80062e8:	4a2b      	ldr	r2, [pc, #172]	; (8006398 <TIM_Base_SetConfig+0x11c>)
 80062ea:	4293      	cmp	r3, r2
 80062ec:	d013      	beq.n	8006316 <TIM_Base_SetConfig+0x9a>
 80062ee:	687b      	ldr	r3, [r7, #4]
 80062f0:	4a2a      	ldr	r2, [pc, #168]	; (800639c <TIM_Base_SetConfig+0x120>)
 80062f2:	4293      	cmp	r3, r2
 80062f4:	d00f      	beq.n	8006316 <TIM_Base_SetConfig+0x9a>
 80062f6:	687b      	ldr	r3, [r7, #4]
 80062f8:	4a29      	ldr	r2, [pc, #164]	; (80063a0 <TIM_Base_SetConfig+0x124>)
 80062fa:	4293      	cmp	r3, r2
 80062fc:	d00b      	beq.n	8006316 <TIM_Base_SetConfig+0x9a>
 80062fe:	687b      	ldr	r3, [r7, #4]
 8006300:	4a28      	ldr	r2, [pc, #160]	; (80063a4 <TIM_Base_SetConfig+0x128>)
 8006302:	4293      	cmp	r3, r2
 8006304:	d007      	beq.n	8006316 <TIM_Base_SetConfig+0x9a>
 8006306:	687b      	ldr	r3, [r7, #4]
 8006308:	4a27      	ldr	r2, [pc, #156]	; (80063a8 <TIM_Base_SetConfig+0x12c>)
 800630a:	4293      	cmp	r3, r2
 800630c:	d003      	beq.n	8006316 <TIM_Base_SetConfig+0x9a>
 800630e:	687b      	ldr	r3, [r7, #4]
 8006310:	4a26      	ldr	r2, [pc, #152]	; (80063ac <TIM_Base_SetConfig+0x130>)
 8006312:	4293      	cmp	r3, r2
 8006314:	d108      	bne.n	8006328 <TIM_Base_SetConfig+0xac>
  {
    /* Set the clock division */
    tmpcr1 &= ~TIM_CR1_CKD;
 8006316:	68fb      	ldr	r3, [r7, #12]
 8006318:	f423 7340 	bic.w	r3, r3, #768	; 0x300
 800631c:	60fb      	str	r3, [r7, #12]
    tmpcr1 |= (uint32_t)Structure->ClockDivision;
 800631e:	683b      	ldr	r3, [r7, #0]
 8006320:	68db      	ldr	r3, [r3, #12]
 8006322:	68fa      	ldr	r2, [r7, #12]
 8006324:	4313      	orrs	r3, r2
 8006326:	60fb      	str	r3, [r7, #12]
  }

  /* Set the auto-reload preload */
  MODIFY_REG(tmpcr1, TIM_CR1_ARPE, Structure->AutoReloadPreload);
 8006328:	68fb      	ldr	r3, [r7, #12]
 800632a:	f023 0280 	bic.w	r2, r3, #128	; 0x80
 800632e:	683b      	ldr	r3, [r7, #0]
 8006330:	695b      	ldr	r3, [r3, #20]
 8006332:	4313      	orrs	r3, r2
 8006334:	60fb      	str	r3, [r7, #12]

  TIMx->CR1 = tmpcr1;
 8006336:	687b      	ldr	r3, [r7, #4]
 8006338:	68fa      	ldr	r2, [r7, #12]
 800633a:	601a      	str	r2, [r3, #0]

  /* Set the Autoreload value */
  TIMx->ARR = (uint32_t)Structure->Period ;
 800633c:	683b      	ldr	r3, [r7, #0]
 800633e:	689a      	ldr	r2, [r3, #8]
 8006340:	687b      	ldr	r3, [r7, #4]
 8006342:	62da      	str	r2, [r3, #44]	; 0x2c

  /* Set the Prescaler value */
  TIMx->PSC = Structure->Prescaler;
 8006344:	683b      	ldr	r3, [r7, #0]
 8006346:	681a      	ldr	r2, [r3, #0]
 8006348:	687b      	ldr	r3, [r7, #4]
 800634a:	629a      	str	r2, [r3, #40]	; 0x28

  if (IS_TIM_REPETITION_COUNTER_INSTANCE(TIMx))
 800634c:	687b      	ldr	r3, [r7, #4]
 800634e:	4a10      	ldr	r2, [pc, #64]	; (8006390 <TIM_Base_SetConfig+0x114>)
 8006350:	4293      	cmp	r3, r2
 8006352:	d00f      	beq.n	8006374 <TIM_Base_SetConfig+0xf8>
 8006354:	687b      	ldr	r3, [r7, #4]
 8006356:	4a12      	ldr	r2, [pc, #72]	; (80063a0 <TIM_Base_SetConfig+0x124>)
 8006358:	4293      	cmp	r3, r2
 800635a:	d00b      	beq.n	8006374 <TIM_Base_SetConfig+0xf8>
 800635c:	687b      	ldr	r3, [r7, #4]
 800635e:	4a11      	ldr	r2, [pc, #68]	; (80063a4 <TIM_Base_SetConfig+0x128>)
 8006360:	4293      	cmp	r3, r2
 8006362:	d007      	beq.n	8006374 <TIM_Base_SetConfig+0xf8>
 8006364:	687b      	ldr	r3, [r7, #4]
 8006366:	4a10      	ldr	r2, [pc, #64]	; (80063a8 <TIM_Base_SetConfig+0x12c>)
 8006368:	4293      	cmp	r3, r2
 800636a:	d003      	beq.n	8006374 <TIM_Base_SetConfig+0xf8>
 800636c:	687b      	ldr	r3, [r7, #4]
 800636e:	4a0f      	ldr	r2, [pc, #60]	; (80063ac <TIM_Base_SetConfig+0x130>)
 8006370:	4293      	cmp	r3, r2
 8006372:	d103      	bne.n	800637c <TIM_Base_SetConfig+0x100>
  {
    /* Set the Repetition Counter value */
    TIMx->RCR = Structure->RepetitionCounter;
 8006374:	683b      	ldr	r3, [r7, #0]
 8006376:	691a      	ldr	r2, [r3, #16]
 8006378:	687b      	ldr	r3, [r7, #4]
 800637a:	631a      	str	r2, [r3, #48]	; 0x30
  }

  /* Generate an update event to reload the Prescaler
     and the repetition counter (only for advanced timer) value immediately */
  TIMx->EGR = TIM_EGR_UG;
 800637c:	687b      	ldr	r3, [r7, #4]
 800637e:	2201      	movs	r2, #1
 8006380:	615a      	str	r2, [r3, #20]
}
 8006382:	bf00      	nop
 8006384:	3714      	adds	r7, #20
 8006386:	46bd      	mov	sp, r7
 8006388:	f85d 7b04 	ldr.w	r7, [sp], #4
 800638c:	4770      	bx	lr
 800638e:	bf00      	nop
 8006390:	40012c00 	.word	0x40012c00
 8006394:	40000400 	.word	0x40000400
 8006398:	40000800 	.word	0x40000800
 800639c:	40000c00 	.word	0x40000c00
 80063a0:	40013400 	.word	0x40013400
 80063a4:	40014000 	.word	0x40014000
 80063a8:	40014400 	.word	0x40014400
 80063ac:	40014800 	.word	0x40014800

080063b0 <TIM_OC1_SetConfig>:
  * @param  TIMx to select the TIM peripheral
  * @param  OC_Config The output configuration structure
  * @retval None
  */
static void TIM_OC1_SetConfig(TIM_TypeDef *TIMx, TIM_OC_InitTypeDef *OC_Config)
{
 80063b0:	b480      	push	{r7}
 80063b2:	b087      	sub	sp, #28
 80063b4:	af00      	add	r7, sp, #0
 80063b6:	6078      	str	r0, [r7, #4]
 80063b8:	6039      	str	r1, [r7, #0]
  uint32_t tmpccmrx;
  uint32_t tmpccer;
  uint32_t tmpcr2;

  /* Disable the Channel 1: Reset the CC1E Bit */
  TIMx->CCER &= ~TIM_CCER_CC1E;
 80063ba:	687b      	ldr	r3, [r7, #4]
 80063bc:	6a1b      	ldr	r3, [r3, #32]
 80063be:	f023 0201 	bic.w	r2, r3, #1
 80063c2:	687b      	ldr	r3, [r7, #4]
 80063c4:	621a      	str	r2, [r3, #32]

  /* Get the TIMx CCER register value */
  tmpccer = TIMx->CCER;
 80063c6:	687b      	ldr	r3, [r7, #4]
 80063c8:	6a1b      	ldr	r3, [r3, #32]
 80063ca:	617b      	str	r3, [r7, #20]
  /* Get the TIMx CR2 register value */
  tmpcr2 =  TIMx->CR2;
 80063cc:	687b      	ldr	r3, [r7, #4]
 80063ce:	685b      	ldr	r3, [r3, #4]
 80063d0:	613b      	str	r3, [r7, #16]

  /* Get the TIMx CCMR1 register value */
  tmpccmrx = TIMx->CCMR1;
 80063d2:	687b      	ldr	r3, [r7, #4]
 80063d4:	699b      	ldr	r3, [r3, #24]
 80063d6:	60fb      	str	r3, [r7, #12]

  /* Reset the Output Compare Mode Bits */
  tmpccmrx &= ~TIM_CCMR1_OC1M;
 80063d8:	68fb      	ldr	r3, [r7, #12]
 80063da:	f423 3380 	bic.w	r3, r3, #65536	; 0x10000
 80063de:	f023 0370 	bic.w	r3, r3, #112	; 0x70
 80063e2:	60fb      	str	r3, [r7, #12]
  tmpccmrx &= ~TIM_CCMR1_CC1S;
 80063e4:	68fb      	ldr	r3, [r7, #12]
 80063e6:	f023 0303 	bic.w	r3, r3, #3
 80063ea:	60fb      	str	r3, [r7, #12]
  /* Select the Output Compare Mode */
  tmpccmrx |= OC_Config->OCMode;
 80063ec:	683b      	ldr	r3, [r7, #0]
 80063ee:	681b      	ldr	r3, [r3, #0]
 80063f0:	68fa      	ldr	r2, [r7, #12]
 80063f2:	4313      	orrs	r3, r2
 80063f4:	60fb      	str	r3, [r7, #12]

  /* Reset the Output Polarity level */
  tmpccer &= ~TIM_CCER_CC1P;
 80063f6:	697b      	ldr	r3, [r7, #20]
 80063f8:	f023 0302 	bic.w	r3, r3, #2
 80063fc:	617b      	str	r3, [r7, #20]
  /* Set the Output Compare Polarity */
  tmpccer |= OC_Config->OCPolarity;
 80063fe:	683b      	ldr	r3, [r7, #0]
 8006400:	689b      	ldr	r3, [r3, #8]
 8006402:	697a      	ldr	r2, [r7, #20]
 8006404:	4313      	orrs	r3, r2
 8006406:	617b      	str	r3, [r7, #20]

  if (IS_TIM_CCXN_INSTANCE(TIMx, TIM_CHANNEL_1))
 8006408:	687b      	ldr	r3, [r7, #4]
 800640a:	4a2c      	ldr	r2, [pc, #176]	; (80064bc <TIM_OC1_SetConfig+0x10c>)
 800640c:	4293      	cmp	r3, r2
 800640e:	d00f      	beq.n	8006430 <TIM_OC1_SetConfig+0x80>
 8006410:	687b      	ldr	r3, [r7, #4]
 8006412:	4a2b      	ldr	r2, [pc, #172]	; (80064c0 <TIM_OC1_SetConfig+0x110>)
 8006414:	4293      	cmp	r3, r2
 8006416:	d00b      	beq.n	8006430 <TIM_OC1_SetConfig+0x80>
 8006418:	687b      	ldr	r3, [r7, #4]
 800641a:	4a2a      	ldr	r2, [pc, #168]	; (80064c4 <TIM_OC1_SetConfig+0x114>)
 800641c:	4293      	cmp	r3, r2
 800641e:	d007      	beq.n	8006430 <TIM_OC1_SetConfig+0x80>
 8006420:	687b      	ldr	r3, [r7, #4]
 8006422:	4a29      	ldr	r2, [pc, #164]	; (80064c8 <TIM_OC1_SetConfig+0x118>)
 8006424:	4293      	cmp	r3, r2
 8006426:	d003      	beq.n	8006430 <TIM_OC1_SetConfig+0x80>
 8006428:	687b      	ldr	r3, [r7, #4]
 800642a:	4a28      	ldr	r2, [pc, #160]	; (80064cc <TIM_OC1_SetConfig+0x11c>)
 800642c:	4293      	cmp	r3, r2
 800642e:	d10c      	bne.n	800644a <TIM_OC1_SetConfig+0x9a>
  {
    /* Check parameters */
    assert_param(IS_TIM_OCN_POLARITY(OC_Config->OCNPolarity));

    /* Reset the Output N Polarity level */
    tmpccer &= ~TIM_CCER_CC1NP;
 8006430:	697b      	ldr	r3, [r7, #20]
 8006432:	f023 0308 	bic.w	r3, r3, #8
 8006436:	617b      	str	r3, [r7, #20]
    /* Set the Output N Polarity */
    tmpccer |= OC_Config->OCNPolarity;
 8006438:	683b      	ldr	r3, [r7, #0]
 800643a:	68db      	ldr	r3, [r3, #12]
 800643c:	697a      	ldr	r2, [r7, #20]
 800643e:	4313      	orrs	r3, r2
 8006440:	617b      	str	r3, [r7, #20]
    /* Reset the Output N State */
    tmpccer &= ~TIM_CCER_CC1NE;
 8006442:	697b      	ldr	r3, [r7, #20]
 8006444:	f023 0304 	bic.w	r3, r3, #4
 8006448:	617b      	str	r3, [r7, #20]
  }

  if (IS_TIM_BREAK_INSTANCE(TIMx))
 800644a:	687b      	ldr	r3, [r7, #4]
 800644c:	4a1b      	ldr	r2, [pc, #108]	; (80064bc <TIM_OC1_SetConfig+0x10c>)
 800644e:	4293      	cmp	r3, r2
 8006450:	d00f      	beq.n	8006472 <TIM_OC1_SetConfig+0xc2>
 8006452:	687b      	ldr	r3, [r7, #4]
 8006454:	4a1a      	ldr	r2, [pc, #104]	; (80064c0 <TIM_OC1_SetConfig+0x110>)
 8006456:	4293      	cmp	r3, r2
 8006458:	d00b      	beq.n	8006472 <TIM_OC1_SetConfig+0xc2>
 800645a:	687b      	ldr	r3, [r7, #4]
 800645c:	4a19      	ldr	r2, [pc, #100]	; (80064c4 <TIM_OC1_SetConfig+0x114>)
 800645e:	4293      	cmp	r3, r2
 8006460:	d007      	beq.n	8006472 <TIM_OC1_SetConfig+0xc2>
 8006462:	687b      	ldr	r3, [r7, #4]
 8006464:	4a18      	ldr	r2, [pc, #96]	; (80064c8 <TIM_OC1_SetConfig+0x118>)
 8006466:	4293      	cmp	r3, r2
 8006468:	d003      	beq.n	8006472 <TIM_OC1_SetConfig+0xc2>
 800646a:	687b      	ldr	r3, [r7, #4]
 800646c:	4a17      	ldr	r2, [pc, #92]	; (80064cc <TIM_OC1_SetConfig+0x11c>)
 800646e:	4293      	cmp	r3, r2
 8006470:	d111      	bne.n	8006496 <TIM_OC1_SetConfig+0xe6>
    /* Check parameters */
    assert_param(IS_TIM_OCNIDLE_STATE(OC_Config->OCNIdleState));
    assert_param(IS_TIM_OCIDLE_STATE(OC_Config->OCIdleState));

    /* Reset the Output Compare and Output Compare N IDLE State */
    tmpcr2 &= ~TIM_CR2_OIS1;
 8006472:	693b      	ldr	r3, [r7, #16]
 8006474:	f423 7380 	bic.w	r3, r3, #256	; 0x100
 8006478:	613b      	str	r3, [r7, #16]
    tmpcr2 &= ~TIM_CR2_OIS1N;
 800647a:	693b      	ldr	r3, [r7, #16]
 800647c:	f423 7300 	bic.w	r3, r3, #512	; 0x200
 8006480:	613b      	str	r3, [r7, #16]
    /* Set the Output Idle state */
    tmpcr2 |= OC_Config->OCIdleState;
 8006482:	683b      	ldr	r3, [r7, #0]
 8006484:	695b      	ldr	r3, [r3, #20]
 8006486:	693a      	ldr	r2, [r7, #16]
 8006488:	4313      	orrs	r3, r2
 800648a:	613b      	str	r3, [r7, #16]
    /* Set the Output N Idle state */
    tmpcr2 |= OC_Config->OCNIdleState;
 800648c:	683b      	ldr	r3, [r7, #0]
 800648e:	699b      	ldr	r3, [r3, #24]
 8006490:	693a      	ldr	r2, [r7, #16]
 8006492:	4313      	orrs	r3, r2
 8006494:	613b      	str	r3, [r7, #16]
  }

  /* Write to TIMx CR2 */
  TIMx->CR2 = tmpcr2;
 8006496:	687b      	ldr	r3, [r7, #4]
 8006498:	693a      	ldr	r2, [r7, #16]
 800649a:	605a      	str	r2, [r3, #4]

  /* Write to TIMx CCMR1 */
  TIMx->CCMR1 = tmpccmrx;
 800649c:	687b      	ldr	r3, [r7, #4]
 800649e:	68fa      	ldr	r2, [r7, #12]
 80064a0:	619a      	str	r2, [r3, #24]

  /* Set the Capture Compare Register value */
  TIMx->CCR1 = OC_Config->Pulse;
 80064a2:	683b      	ldr	r3, [r7, #0]
 80064a4:	685a      	ldr	r2, [r3, #4]
 80064a6:	687b      	ldr	r3, [r7, #4]
 80064a8:	635a      	str	r2, [r3, #52]	; 0x34

  /* Write to TIMx CCER */
  TIMx->CCER = tmpccer;
 80064aa:	687b      	ldr	r3, [r7, #4]
 80064ac:	697a      	ldr	r2, [r7, #20]
 80064ae:	621a      	str	r2, [r3, #32]
}
 80064b0:	bf00      	nop
 80064b2:	371c      	adds	r7, #28
 80064b4:	46bd      	mov	sp, r7
 80064b6:	f85d 7b04 	ldr.w	r7, [sp], #4
 80064ba:	4770      	bx	lr
 80064bc:	40012c00 	.word	0x40012c00
 80064c0:	40013400 	.word	0x40013400
 80064c4:	40014000 	.word	0x40014000
 80064c8:	40014400 	.word	0x40014400
 80064cc:	40014800 	.word	0x40014800

080064d0 <TIM_OC2_SetConfig>:
  * @param  TIMx to select the TIM peripheral
  * @param  OC_Config The output configuration structure
  * @retval None
  */
void TIM_OC2_SetConfig(TIM_TypeDef *TIMx, TIM_OC_InitTypeDef *OC_Config)
{
 80064d0:	b480      	push	{r7}
 80064d2:	b087      	sub	sp, #28
 80064d4:	af00      	add	r7, sp, #0
 80064d6:	6078      	str	r0, [r7, #4]
 80064d8:	6039      	str	r1, [r7, #0]
  uint32_t tmpccmrx;
  uint32_t tmpccer;
  uint32_t tmpcr2;

  /* Disable the Channel 2: Reset the CC2E Bit */
  TIMx->CCER &= ~TIM_CCER_CC2E;
 80064da:	687b      	ldr	r3, [r7, #4]
 80064dc:	6a1b      	ldr	r3, [r3, #32]
 80064de:	f023 0210 	bic.w	r2, r3, #16
 80064e2:	687b      	ldr	r3, [r7, #4]
 80064e4:	621a      	str	r2, [r3, #32]

  /* Get the TIMx CCER register value */
  tmpccer = TIMx->CCER;
 80064e6:	687b      	ldr	r3, [r7, #4]
 80064e8:	6a1b      	ldr	r3, [r3, #32]
 80064ea:	617b      	str	r3, [r7, #20]
  /* Get the TIMx CR2 register value */
  tmpcr2 =  TIMx->CR2;
 80064ec:	687b      	ldr	r3, [r7, #4]
 80064ee:	685b      	ldr	r3, [r3, #4]
 80064f0:	613b      	str	r3, [r7, #16]

  /* Get the TIMx CCMR1 register value */
  tmpccmrx = TIMx->CCMR1;
 80064f2:	687b      	ldr	r3, [r7, #4]
 80064f4:	699b      	ldr	r3, [r3, #24]
 80064f6:	60fb      	str	r3, [r7, #12]

  /* Reset the Output Compare mode and Capture/Compare selection Bits */
  tmpccmrx &= ~TIM_CCMR1_OC2M;
 80064f8:	68fb      	ldr	r3, [r7, #12]
 80064fa:	f023 7380 	bic.w	r3, r3, #16777216	; 0x1000000
 80064fe:	f423 43e0 	bic.w	r3, r3, #28672	; 0x7000
 8006502:	60fb      	str	r3, [r7, #12]
  tmpccmrx &= ~TIM_CCMR1_CC2S;
 8006504:	68fb      	ldr	r3, [r7, #12]
 8006506:	f423 7340 	bic.w	r3, r3, #768	; 0x300
 800650a:	60fb      	str	r3, [r7, #12]

  /* Select the Output Compare Mode */
  tmpccmrx |= (OC_Config->OCMode << 8U);
 800650c:	683b      	ldr	r3, [r7, #0]
 800650e:	681b      	ldr	r3, [r3, #0]
 8006510:	021b      	lsls	r3, r3, #8
 8006512:	68fa      	ldr	r2, [r7, #12]
 8006514:	4313      	orrs	r3, r2
 8006516:	60fb      	str	r3, [r7, #12]

  /* Reset the Output Polarity level */
  tmpccer &= ~TIM_CCER_CC2P;
 8006518:	697b      	ldr	r3, [r7, #20]
 800651a:	f023 0320 	bic.w	r3, r3, #32
 800651e:	617b      	str	r3, [r7, #20]
  /* Set the Output Compare Polarity */
  tmpccer |= (OC_Config->OCPolarity << 4U);
 8006520:	683b      	ldr	r3, [r7, #0]
 8006522:	689b      	ldr	r3, [r3, #8]
 8006524:	011b      	lsls	r3, r3, #4
 8006526:	697a      	ldr	r2, [r7, #20]
 8006528:	4313      	orrs	r3, r2
 800652a:	617b      	str	r3, [r7, #20]

  if (IS_TIM_CCXN_INSTANCE(TIMx, TIM_CHANNEL_2))
 800652c:	687b      	ldr	r3, [r7, #4]
 800652e:	4a28      	ldr	r2, [pc, #160]	; (80065d0 <TIM_OC2_SetConfig+0x100>)
 8006530:	4293      	cmp	r3, r2
 8006532:	d003      	beq.n	800653c <TIM_OC2_SetConfig+0x6c>
 8006534:	687b      	ldr	r3, [r7, #4]
 8006536:	4a27      	ldr	r2, [pc, #156]	; (80065d4 <TIM_OC2_SetConfig+0x104>)
 8006538:	4293      	cmp	r3, r2
 800653a:	d10d      	bne.n	8006558 <TIM_OC2_SetConfig+0x88>
  {
    assert_param(IS_TIM_OCN_POLARITY(OC_Config->OCNPolarity));

    /* Reset the Output N Polarity level */
    tmpccer &= ~TIM_CCER_CC2NP;
 800653c:	697b      	ldr	r3, [r7, #20]
 800653e:	f023 0380 	bic.w	r3, r3, #128	; 0x80
 8006542:	617b      	str	r3, [r7, #20]
    /* Set the Output N Polarity */
    tmpccer |= (OC_Config->OCNPolarity << 4U);
 8006544:	683b      	ldr	r3, [r7, #0]
 8006546:	68db      	ldr	r3, [r3, #12]
 8006548:	011b      	lsls	r3, r3, #4
 800654a:	697a      	ldr	r2, [r7, #20]
 800654c:	4313      	orrs	r3, r2
 800654e:	617b      	str	r3, [r7, #20]
    /* Reset the Output N State */
    tmpccer &= ~TIM_CCER_CC2NE;
 8006550:	697b      	ldr	r3, [r7, #20]
 8006552:	f023 0340 	bic.w	r3, r3, #64	; 0x40
 8006556:	617b      	str	r3, [r7, #20]

  }

  if (IS_TIM_BREAK_INSTANCE(TIMx))
 8006558:	687b      	ldr	r3, [r7, #4]
 800655a:	4a1d      	ldr	r2, [pc, #116]	; (80065d0 <TIM_OC2_SetConfig+0x100>)
 800655c:	4293      	cmp	r3, r2
 800655e:	d00f      	beq.n	8006580 <TIM_OC2_SetConfig+0xb0>
 8006560:	687b      	ldr	r3, [r7, #4]
 8006562:	4a1c      	ldr	r2, [pc, #112]	; (80065d4 <TIM_OC2_SetConfig+0x104>)
 8006564:	4293      	cmp	r3, r2
 8006566:	d00b      	beq.n	8006580 <TIM_OC2_SetConfig+0xb0>
 8006568:	687b      	ldr	r3, [r7, #4]
 800656a:	4a1b      	ldr	r2, [pc, #108]	; (80065d8 <TIM_OC2_SetConfig+0x108>)
 800656c:	4293      	cmp	r3, r2
 800656e:	d007      	beq.n	8006580 <TIM_OC2_SetConfig+0xb0>
 8006570:	687b      	ldr	r3, [r7, #4]
 8006572:	4a1a      	ldr	r2, [pc, #104]	; (80065dc <TIM_OC2_SetConfig+0x10c>)
 8006574:	4293      	cmp	r3, r2
 8006576:	d003      	beq.n	8006580 <TIM_OC2_SetConfig+0xb0>
 8006578:	687b      	ldr	r3, [r7, #4]
 800657a:	4a19      	ldr	r2, [pc, #100]	; (80065e0 <TIM_OC2_SetConfig+0x110>)
 800657c:	4293      	cmp	r3, r2
 800657e:	d113      	bne.n	80065a8 <TIM_OC2_SetConfig+0xd8>
    /* Check parameters */
    assert_param(IS_TIM_OCNIDLE_STATE(OC_Config->OCNIdleState));
    assert_param(IS_TIM_OCIDLE_STATE(OC_Config->OCIdleState));

    /* Reset the Output Compare and Output Compare N IDLE State */
    tmpcr2 &= ~TIM_CR2_OIS2;
 8006580:	693b      	ldr	r3, [r7, #16]
 8006582:	f423 6380 	bic.w	r3, r3, #1024	; 0x400
 8006586:	613b      	str	r3, [r7, #16]
    tmpcr2 &= ~TIM_CR2_OIS2N;
 8006588:	693b      	ldr	r3, [r7, #16]
 800658a:	f423 6300 	bic.w	r3, r3, #2048	; 0x800
 800658e:	613b      	str	r3, [r7, #16]
    /* Set the Output Idle state */
    tmpcr2 |= (OC_Config->OCIdleState << 2U);
 8006590:	683b      	ldr	r3, [r7, #0]
 8006592:	695b      	ldr	r3, [r3, #20]
 8006594:	009b      	lsls	r3, r3, #2
 8006596:	693a      	ldr	r2, [r7, #16]
 8006598:	4313      	orrs	r3, r2
 800659a:	613b      	str	r3, [r7, #16]
    /* Set the Output N Idle state */
    tmpcr2 |= (OC_Config->OCNIdleState << 2U);
 800659c:	683b      	ldr	r3, [r7, #0]
 800659e:	699b      	ldr	r3, [r3, #24]
 80065a0:	009b      	lsls	r3, r3, #2
 80065a2:	693a      	ldr	r2, [r7, #16]
 80065a4:	4313      	orrs	r3, r2
 80065a6:	613b      	str	r3, [r7, #16]
  }

  /* Write to TIMx CR2 */
  TIMx->CR2 = tmpcr2;
 80065a8:	687b      	ldr	r3, [r7, #4]
 80065aa:	693a      	ldr	r2, [r7, #16]
 80065ac:	605a      	str	r2, [r3, #4]

  /* Write to TIMx CCMR1 */
  TIMx->CCMR1 = tmpccmrx;
 80065ae:	687b      	ldr	r3, [r7, #4]
 80065b0:	68fa      	ldr	r2, [r7, #12]
 80065b2:	619a      	str	r2, [r3, #24]

  /* Set the Capture Compare Register value */
  TIMx->CCR2 = OC_Config->Pulse;
 80065b4:	683b      	ldr	r3, [r7, #0]
 80065b6:	685a      	ldr	r2, [r3, #4]
 80065b8:	687b      	ldr	r3, [r7, #4]
 80065ba:	639a      	str	r2, [r3, #56]	; 0x38

  /* Write to TIMx CCER */
  TIMx->CCER = tmpccer;
 80065bc:	687b      	ldr	r3, [r7, #4]
 80065be:	697a      	ldr	r2, [r7, #20]
 80065c0:	621a      	str	r2, [r3, #32]
}
 80065c2:	bf00      	nop
 80065c4:	371c      	adds	r7, #28
 80065c6:	46bd      	mov	sp, r7
 80065c8:	f85d 7b04 	ldr.w	r7, [sp], #4
 80065cc:	4770      	bx	lr
 80065ce:	bf00      	nop
 80065d0:	40012c00 	.word	0x40012c00
 80065d4:	40013400 	.word	0x40013400
 80065d8:	40014000 	.word	0x40014000
 80065dc:	40014400 	.word	0x40014400
 80065e0:	40014800 	.word	0x40014800

080065e4 <TIM_OC3_SetConfig>:
  * @param  TIMx to select the TIM peripheral
  * @param  OC_Config The output configuration structure
  * @retval None
  */
static void TIM_OC3_SetConfig(TIM_TypeDef *TIMx, TIM_OC_InitTypeDef *OC_Config)
{
 80065e4:	b480      	push	{r7}
 80065e6:	b087      	sub	sp, #28
 80065e8:	af00      	add	r7, sp, #0
 80065ea:	6078      	str	r0, [r7, #4]
 80065ec:	6039      	str	r1, [r7, #0]
  uint32_t tmpccmrx;
  uint32_t tmpccer;
  uint32_t tmpcr2;

  /* Disable the Channel 3: Reset the CC2E Bit */
  TIMx->CCER &= ~TIM_CCER_CC3E;
 80065ee:	687b      	ldr	r3, [r7, #4]
 80065f0:	6a1b      	ldr	r3, [r3, #32]
 80065f2:	f423 7280 	bic.w	r2, r3, #256	; 0x100
 80065f6:	687b      	ldr	r3, [r7, #4]
 80065f8:	621a      	str	r2, [r3, #32]

  /* Get the TIMx CCER register value */
  tmpccer = TIMx->CCER;
 80065fa:	687b      	ldr	r3, [r7, #4]
 80065fc:	6a1b      	ldr	r3, [r3, #32]
 80065fe:	617b      	str	r3, [r7, #20]
  /* Get the TIMx CR2 register value */
  tmpcr2 =  TIMx->CR2;
 8006600:	687b      	ldr	r3, [r7, #4]
 8006602:	685b      	ldr	r3, [r3, #4]
 8006604:	613b      	str	r3, [r7, #16]

  /* Get the TIMx CCMR2 register value */
  tmpccmrx = TIMx->CCMR2;
 8006606:	687b      	ldr	r3, [r7, #4]
 8006608:	69db      	ldr	r3, [r3, #28]
 800660a:	60fb      	str	r3, [r7, #12]

  /* Reset the Output Compare mode and Capture/Compare selection Bits */
  tmpccmrx &= ~TIM_CCMR2_OC3M;
 800660c:	68fb      	ldr	r3, [r7, #12]
 800660e:	f423 3380 	bic.w	r3, r3, #65536	; 0x10000
 8006612:	f023 0370 	bic.w	r3, r3, #112	; 0x70
 8006616:	60fb      	str	r3, [r7, #12]
  tmpccmrx &= ~TIM_CCMR2_CC3S;
 8006618:	68fb      	ldr	r3, [r7, #12]
 800661a:	f023 0303 	bic.w	r3, r3, #3
 800661e:	60fb      	str	r3, [r7, #12]
  /* Select the Output Compare Mode */
  tmpccmrx |= OC_Config->OCMode;
 8006620:	683b      	ldr	r3, [r7, #0]
 8006622:	681b      	ldr	r3, [r3, #0]
 8006624:	68fa      	ldr	r2, [r7, #12]
 8006626:	4313      	orrs	r3, r2
 8006628:	60fb      	str	r3, [r7, #12]

  /* Reset the Output Polarity level */
  tmpccer &= ~TIM_CCER_CC3P;
 800662a:	697b      	ldr	r3, [r7, #20]
 800662c:	f423 7300 	bic.w	r3, r3, #512	; 0x200
 8006630:	617b      	str	r3, [r7, #20]
  /* Set the Output Compare Polarity */
  tmpccer |= (OC_Config->OCPolarity << 8U);
 8006632:	683b      	ldr	r3, [r7, #0]
 8006634:	689b      	ldr	r3, [r3, #8]
 8006636:	021b      	lsls	r3, r3, #8
 8006638:	697a      	ldr	r2, [r7, #20]
 800663a:	4313      	orrs	r3, r2
 800663c:	617b      	str	r3, [r7, #20]

  if (IS_TIM_CCXN_INSTANCE(TIMx, TIM_CHANNEL_3))
 800663e:	687b      	ldr	r3, [r7, #4]
 8006640:	4a27      	ldr	r2, [pc, #156]	; (80066e0 <TIM_OC3_SetConfig+0xfc>)
 8006642:	4293      	cmp	r3, r2
 8006644:	d003      	beq.n	800664e <TIM_OC3_SetConfig+0x6a>
 8006646:	687b      	ldr	r3, [r7, #4]
 8006648:	4a26      	ldr	r2, [pc, #152]	; (80066e4 <TIM_OC3_SetConfig+0x100>)
 800664a:	4293      	cmp	r3, r2
 800664c:	d10d      	bne.n	800666a <TIM_OC3_SetConfig+0x86>
  {
    assert_param(IS_TIM_OCN_POLARITY(OC_Config->OCNPolarity));

    /* Reset the Output N Polarity level */
    tmpccer &= ~TIM_CCER_CC3NP;
 800664e:	697b      	ldr	r3, [r7, #20]
 8006650:	f423 6300 	bic.w	r3, r3, #2048	; 0x800
 8006654:	617b      	str	r3, [r7, #20]
    /* Set the Output N Polarity */
    tmpccer |= (OC_Config->OCNPolarity << 8U);
 8006656:	683b      	ldr	r3, [r7, #0]
 8006658:	68db      	ldr	r3, [r3, #12]
 800665a:	021b      	lsls	r3, r3, #8
 800665c:	697a      	ldr	r2, [r7, #20]
 800665e:	4313      	orrs	r3, r2
 8006660:	617b      	str	r3, [r7, #20]
    /* Reset the Output N State */
    tmpccer &= ~TIM_CCER_CC3NE;
 8006662:	697b      	ldr	r3, [r7, #20]
 8006664:	f423 6380 	bic.w	r3, r3, #1024	; 0x400
 8006668:	617b      	str	r3, [r7, #20]
  }

  if (IS_TIM_BREAK_INSTANCE(TIMx))
 800666a:	687b      	ldr	r3, [r7, #4]
 800666c:	4a1c      	ldr	r2, [pc, #112]	; (80066e0 <TIM_OC3_SetConfig+0xfc>)
 800666e:	4293      	cmp	r3, r2
 8006670:	d00f      	beq.n	8006692 <TIM_OC3_SetConfig+0xae>
 8006672:	687b      	ldr	r3, [r7, #4]
 8006674:	4a1b      	ldr	r2, [pc, #108]	; (80066e4 <TIM_OC3_SetConfig+0x100>)
 8006676:	4293      	cmp	r3, r2
 8006678:	d00b      	beq.n	8006692 <TIM_OC3_SetConfig+0xae>
 800667a:	687b      	ldr	r3, [r7, #4]
 800667c:	4a1a      	ldr	r2, [pc, #104]	; (80066e8 <TIM_OC3_SetConfig+0x104>)
 800667e:	4293      	cmp	r3, r2
 8006680:	d007      	beq.n	8006692 <TIM_OC3_SetConfig+0xae>
 8006682:	687b      	ldr	r3, [r7, #4]
 8006684:	4a19      	ldr	r2, [pc, #100]	; (80066ec <TIM_OC3_SetConfig+0x108>)
 8006686:	4293      	cmp	r3, r2
 8006688:	d003      	beq.n	8006692 <TIM_OC3_SetConfig+0xae>
 800668a:	687b      	ldr	r3, [r7, #4]
 800668c:	4a18      	ldr	r2, [pc, #96]	; (80066f0 <TIM_OC3_SetConfig+0x10c>)
 800668e:	4293      	cmp	r3, r2
 8006690:	d113      	bne.n	80066ba <TIM_OC3_SetConfig+0xd6>
    /* Check parameters */
    assert_param(IS_TIM_OCNIDLE_STATE(OC_Config->OCNIdleState));
    assert_param(IS_TIM_OCIDLE_STATE(OC_Config->OCIdleState));

    /* Reset the Output Compare and Output Compare N IDLE State */
    tmpcr2 &= ~TIM_CR2_OIS3;
 8006692:	693b      	ldr	r3, [r7, #16]
 8006694:	f423 5380 	bic.w	r3, r3, #4096	; 0x1000
 8006698:	613b      	str	r3, [r7, #16]
    tmpcr2 &= ~TIM_CR2_OIS3N;
 800669a:	693b      	ldr	r3, [r7, #16]
 800669c:	f423 5300 	bic.w	r3, r3, #8192	; 0x2000
 80066a0:	613b      	str	r3, [r7, #16]
    /* Set the Output Idle state */
    tmpcr2 |= (OC_Config->OCIdleState << 4U);
 80066a2:	683b      	ldr	r3, [r7, #0]
 80066a4:	695b      	ldr	r3, [r3, #20]
 80066a6:	011b      	lsls	r3, r3, #4
 80066a8:	693a      	ldr	r2, [r7, #16]
 80066aa:	4313      	orrs	r3, r2
 80066ac:	613b      	str	r3, [r7, #16]
    /* Set the Output N Idle state */
    tmpcr2 |= (OC_Config->OCNIdleState << 4U);
 80066ae:	683b      	ldr	r3, [r7, #0]
 80066b0:	699b      	ldr	r3, [r3, #24]
 80066b2:	011b      	lsls	r3, r3, #4
 80066b4:	693a      	ldr	r2, [r7, #16]
 80066b6:	4313      	orrs	r3, r2
 80066b8:	613b      	str	r3, [r7, #16]
  }

  /* Write to TIMx CR2 */
  TIMx->CR2 = tmpcr2;
 80066ba:	687b      	ldr	r3, [r7, #4]
 80066bc:	693a      	ldr	r2, [r7, #16]
 80066be:	605a      	str	r2, [r3, #4]

  /* Write to TIMx CCMR2 */
  TIMx->CCMR2 = tmpccmrx;
 80066c0:	687b      	ldr	r3, [r7, #4]
 80066c2:	68fa      	ldr	r2, [r7, #12]
 80066c4:	61da      	str	r2, [r3, #28]

  /* Set the Capture Compare Register value */
  TIMx->CCR3 = OC_Config->Pulse;
 80066c6:	683b      	ldr	r3, [r7, #0]
 80066c8:	685a      	ldr	r2, [r3, #4]
 80066ca:	687b      	ldr	r3, [r7, #4]
 80066cc:	63da      	str	r2, [r3, #60]	; 0x3c

  /* Write to TIMx CCER */
  TIMx->CCER = tmpccer;
 80066ce:	687b      	ldr	r3, [r7, #4]
 80066d0:	697a      	ldr	r2, [r7, #20]
 80066d2:	621a      	str	r2, [r3, #32]
}
 80066d4:	bf00      	nop
 80066d6:	371c      	adds	r7, #28
 80066d8:	46bd      	mov	sp, r7
 80066da:	f85d 7b04 	ldr.w	r7, [sp], #4
 80066de:	4770      	bx	lr
 80066e0:	40012c00 	.word	0x40012c00
 80066e4:	40013400 	.word	0x40013400
 80066e8:	40014000 	.word	0x40014000
 80066ec:	40014400 	.word	0x40014400
 80066f0:	40014800 	.word	0x40014800

080066f4 <TIM_OC4_SetConfig>:
  * @param  TIMx to select the TIM peripheral
  * @param  OC_Config The output configuration structure
  * @retval None
  */
static void TIM_OC4_SetConfig(TIM_TypeDef *TIMx, TIM_OC_InitTypeDef *OC_Config)
{
 80066f4:	b480      	push	{r7}
 80066f6:	b087      	sub	sp, #28
 80066f8:	af00      	add	r7, sp, #0
 80066fa:	6078      	str	r0, [r7, #4]
 80066fc:	6039      	str	r1, [r7, #0]
  uint32_t tmpccmrx;
  uint32_t tmpccer;
  uint32_t tmpcr2;

  /* Disable the Channel 4: Reset the CC4E Bit */
  TIMx->CCER &= ~TIM_CCER_CC4E;
 80066fe:	687b      	ldr	r3, [r7, #4]
 8006700:	6a1b      	ldr	r3, [r3, #32]
 8006702:	f423 5280 	bic.w	r2, r3, #4096	; 0x1000
 8006706:	687b      	ldr	r3, [r7, #4]
 8006708:	621a      	str	r2, [r3, #32]

  /* Get the TIMx CCER register value */
  tmpccer = TIMx->CCER;
 800670a:	687b      	ldr	r3, [r7, #4]
 800670c:	6a1b      	ldr	r3, [r3, #32]
 800670e:	613b      	str	r3, [r7, #16]
  /* Get the TIMx CR2 register value */
  tmpcr2 =  TIMx->CR2;
 8006710:	687b      	ldr	r3, [r7, #4]
 8006712:	685b      	ldr	r3, [r3, #4]
 8006714:	617b      	str	r3, [r7, #20]

  /* Get the TIMx CCMR2 register value */
  tmpccmrx = TIMx->CCMR2;
 8006716:	687b      	ldr	r3, [r7, #4]
 8006718:	69db      	ldr	r3, [r3, #28]
 800671a:	60fb      	str	r3, [r7, #12]

  /* Reset the Output Compare mode and Capture/Compare selection Bits */
  tmpccmrx &= ~TIM_CCMR2_OC4M;
 800671c:	68fb      	ldr	r3, [r7, #12]
 800671e:	f023 7380 	bic.w	r3, r3, #16777216	; 0x1000000
 8006722:	f423 43e0 	bic.w	r3, r3, #28672	; 0x7000
 8006726:	60fb      	str	r3, [r7, #12]
  tmpccmrx &= ~TIM_CCMR2_CC4S;
 8006728:	68fb      	ldr	r3, [r7, #12]
 800672a:	f423 7340 	bic.w	r3, r3, #768	; 0x300
 800672e:	60fb      	str	r3, [r7, #12]

  /* Select the Output Compare Mode */
  tmpccmrx |= (OC_Config->OCMode << 8U);
 8006730:	683b      	ldr	r3, [r7, #0]
 8006732:	681b      	ldr	r3, [r3, #0]
 8006734:	021b      	lsls	r3, r3, #8
 8006736:	68fa      	ldr	r2, [r7, #12]
 8006738:	4313      	orrs	r3, r2
 800673a:	60fb      	str	r3, [r7, #12]

  /* Reset the Output Polarity level */
  tmpccer &= ~TIM_CCER_CC4P;
 800673c:	693b      	ldr	r3, [r7, #16]
 800673e:	f423 5300 	bic.w	r3, r3, #8192	; 0x2000
 8006742:	613b      	str	r3, [r7, #16]
  /* Set the Output Compare Polarity */
  tmpccer |= (OC_Config->OCPolarity << 12U);
 8006744:	683b      	ldr	r3, [r7, #0]
 8006746:	689b      	ldr	r3, [r3, #8]
 8006748:	031b      	lsls	r3, r3, #12
 800674a:	693a      	ldr	r2, [r7, #16]
 800674c:	4313      	orrs	r3, r2
 800674e:	613b      	str	r3, [r7, #16]

  if (IS_TIM_BREAK_INSTANCE(TIMx))
 8006750:	687b      	ldr	r3, [r7, #4]
 8006752:	4a18      	ldr	r2, [pc, #96]	; (80067b4 <TIM_OC4_SetConfig+0xc0>)
 8006754:	4293      	cmp	r3, r2
 8006756:	d00f      	beq.n	8006778 <TIM_OC4_SetConfig+0x84>
 8006758:	687b      	ldr	r3, [r7, #4]
 800675a:	4a17      	ldr	r2, [pc, #92]	; (80067b8 <TIM_OC4_SetConfig+0xc4>)
 800675c:	4293      	cmp	r3, r2
 800675e:	d00b      	beq.n	8006778 <TIM_OC4_SetConfig+0x84>
 8006760:	687b      	ldr	r3, [r7, #4]
 8006762:	4a16      	ldr	r2, [pc, #88]	; (80067bc <TIM_OC4_SetConfig+0xc8>)
 8006764:	4293      	cmp	r3, r2
 8006766:	d007      	beq.n	8006778 <TIM_OC4_SetConfig+0x84>
 8006768:	687b      	ldr	r3, [r7, #4]
 800676a:	4a15      	ldr	r2, [pc, #84]	; (80067c0 <TIM_OC4_SetConfig+0xcc>)
 800676c:	4293      	cmp	r3, r2
 800676e:	d003      	beq.n	8006778 <TIM_OC4_SetConfig+0x84>
 8006770:	687b      	ldr	r3, [r7, #4]
 8006772:	4a14      	ldr	r2, [pc, #80]	; (80067c4 <TIM_OC4_SetConfig+0xd0>)
 8006774:	4293      	cmp	r3, r2
 8006776:	d109      	bne.n	800678c <TIM_OC4_SetConfig+0x98>
  {
    /* Check parameters */
    assert_param(IS_TIM_OCIDLE_STATE(OC_Config->OCIdleState));

    /* Reset the Output Compare IDLE State */
    tmpcr2 &= ~TIM_CR2_OIS4;
 8006778:	697b      	ldr	r3, [r7, #20]
 800677a:	f423 4380 	bic.w	r3, r3, #16384	; 0x4000
 800677e:	617b      	str	r3, [r7, #20]

    /* Set the Output Idle state */
    tmpcr2 |= (OC_Config->OCIdleState << 6U);
 8006780:	683b      	ldr	r3, [r7, #0]
 8006782:	695b      	ldr	r3, [r3, #20]
 8006784:	019b      	lsls	r3, r3, #6
 8006786:	697a      	ldr	r2, [r7, #20]
 8006788:	4313      	orrs	r3, r2
 800678a:	617b      	str	r3, [r7, #20]
  }

  /* Write to TIMx CR2 */
  TIMx->CR2 = tmpcr2;
 800678c:	687b      	ldr	r3, [r7, #4]
 800678e:	697a      	ldr	r2, [r7, #20]
 8006790:	605a      	str	r2, [r3, #4]

  /* Write to TIMx CCMR2 */
  TIMx->CCMR2 = tmpccmrx;
 8006792:	687b      	ldr	r3, [r7, #4]
 8006794:	68fa      	ldr	r2, [r7, #12]
 8006796:	61da      	str	r2, [r3, #28]

  /* Set the Capture Compare Register value */
  TIMx->CCR4 = OC_Config->Pulse;
 8006798:	683b      	ldr	r3, [r7, #0]
 800679a:	685a      	ldr	r2, [r3, #4]
 800679c:	687b      	ldr	r3, [r7, #4]
 800679e:	641a      	str	r2, [r3, #64]	; 0x40

  /* Write to TIMx CCER */
  TIMx->CCER = tmpccer;
 80067a0:	687b      	ldr	r3, [r7, #4]
 80067a2:	693a      	ldr	r2, [r7, #16]
 80067a4:	621a      	str	r2, [r3, #32]
}
 80067a6:	bf00      	nop
 80067a8:	371c      	adds	r7, #28
 80067aa:	46bd      	mov	sp, r7
 80067ac:	f85d 7b04 	ldr.w	r7, [sp], #4
 80067b0:	4770      	bx	lr
 80067b2:	bf00      	nop
 80067b4:	40012c00 	.word	0x40012c00
 80067b8:	40013400 	.word	0x40013400
 80067bc:	40014000 	.word	0x40014000
 80067c0:	40014400 	.word	0x40014400
 80067c4:	40014800 	.word	0x40014800

080067c8 <TIM_OC5_SetConfig>:
  * @param  OC_Config The output configuration structure
  * @retval None
  */
static void TIM_OC5_SetConfig(TIM_TypeDef *TIMx,
                              TIM_OC_InitTypeDef *OC_Config)
{
 80067c8:	b480      	push	{r7}
 80067ca:	b087      	sub	sp, #28
 80067cc:	af00      	add	r7, sp, #0
 80067ce:	6078      	str	r0, [r7, #4]
 80067d0:	6039      	str	r1, [r7, #0]
  uint32_t tmpccmrx;
  uint32_t tmpccer;
  uint32_t tmpcr2;

  /* Disable the output: Reset the CCxE Bit */
  TIMx->CCER &= ~TIM_CCER_CC5E;
 80067d2:	687b      	ldr	r3, [r7, #4]
 80067d4:	6a1b      	ldr	r3, [r3, #32]
 80067d6:	f423 3280 	bic.w	r2, r3, #65536	; 0x10000
 80067da:	687b      	ldr	r3, [r7, #4]
 80067dc:	621a      	str	r2, [r3, #32]

  /* Get the TIMx CCER register value */
  tmpccer = TIMx->CCER;
 80067de:	687b      	ldr	r3, [r7, #4]
 80067e0:	6a1b      	ldr	r3, [r3, #32]
 80067e2:	613b      	str	r3, [r7, #16]
  /* Get the TIMx CR2 register value */
  tmpcr2 =  TIMx->CR2;
 80067e4:	687b      	ldr	r3, [r7, #4]
 80067e6:	685b      	ldr	r3, [r3, #4]
 80067e8:	617b      	str	r3, [r7, #20]
  /* Get the TIMx CCMR1 register value */
  tmpccmrx = TIMx->CCMR3;
 80067ea:	687b      	ldr	r3, [r7, #4]
 80067ec:	6d5b      	ldr	r3, [r3, #84]	; 0x54
 80067ee:	60fb      	str	r3, [r7, #12]

  /* Reset the Output Compare Mode Bits */
  tmpccmrx &= ~(TIM_CCMR3_OC5M);
 80067f0:	68fb      	ldr	r3, [r7, #12]
 80067f2:	f423 3380 	bic.w	r3, r3, #65536	; 0x10000
 80067f6:	f023 0370 	bic.w	r3, r3, #112	; 0x70
 80067fa:	60fb      	str	r3, [r7, #12]
  /* Select the Output Compare Mode */
  tmpccmrx |= OC_Config->OCMode;
 80067fc:	683b      	ldr	r3, [r7, #0]
 80067fe:	681b      	ldr	r3, [r3, #0]
 8006800:	68fa      	ldr	r2, [r7, #12]
 8006802:	4313      	orrs	r3, r2
 8006804:	60fb      	str	r3, [r7, #12]

  /* Reset the Output Polarity level */
  tmpccer &= ~TIM_CCER_CC5P;
 8006806:	693b      	ldr	r3, [r7, #16]
 8006808:	f423 3300 	bic.w	r3, r3, #131072	; 0x20000
 800680c:	613b      	str	r3, [r7, #16]
  /* Set the Output Compare Polarity */
  tmpccer |= (OC_Config->OCPolarity << 16U);
 800680e:	683b      	ldr	r3, [r7, #0]
 8006810:	689b      	ldr	r3, [r3, #8]
 8006812:	041b      	lsls	r3, r3, #16
 8006814:	693a      	ldr	r2, [r7, #16]
 8006816:	4313      	orrs	r3, r2
 8006818:	613b      	str	r3, [r7, #16]

  if (IS_TIM_BREAK_INSTANCE(TIMx))
 800681a:	687b      	ldr	r3, [r7, #4]
 800681c:	4a17      	ldr	r2, [pc, #92]	; (800687c <TIM_OC5_SetConfig+0xb4>)
 800681e:	4293      	cmp	r3, r2
 8006820:	d00f      	beq.n	8006842 <TIM_OC5_SetConfig+0x7a>
 8006822:	687b      	ldr	r3, [r7, #4]
 8006824:	4a16      	ldr	r2, [pc, #88]	; (8006880 <TIM_OC5_SetConfig+0xb8>)
 8006826:	4293      	cmp	r3, r2
 8006828:	d00b      	beq.n	8006842 <TIM_OC5_SetConfig+0x7a>
 800682a:	687b      	ldr	r3, [r7, #4]
 800682c:	4a15      	ldr	r2, [pc, #84]	; (8006884 <TIM_OC5_SetConfig+0xbc>)
 800682e:	4293      	cmp	r3, r2
 8006830:	d007      	beq.n	8006842 <TIM_OC5_SetConfig+0x7a>
 8006832:	687b      	ldr	r3, [r7, #4]
 8006834:	4a14      	ldr	r2, [pc, #80]	; (8006888 <TIM_OC5_SetConfig+0xc0>)
 8006836:	4293      	cmp	r3, r2
 8006838:	d003      	beq.n	8006842 <TIM_OC5_SetConfig+0x7a>
 800683a:	687b      	ldr	r3, [r7, #4]
 800683c:	4a13      	ldr	r2, [pc, #76]	; (800688c <TIM_OC5_SetConfig+0xc4>)
 800683e:	4293      	cmp	r3, r2
 8006840:	d109      	bne.n	8006856 <TIM_OC5_SetConfig+0x8e>
  {
    /* Reset the Output Compare IDLE State */
    tmpcr2 &= ~TIM_CR2_OIS5;
 8006842:	697b      	ldr	r3, [r7, #20]
 8006844:	f423 3380 	bic.w	r3, r3, #65536	; 0x10000
 8006848:	617b      	str	r3, [r7, #20]
    /* Set the Output Idle state */
    tmpcr2 |= (OC_Config->OCIdleState << 8U);
 800684a:	683b      	ldr	r3, [r7, #0]
 800684c:	695b      	ldr	r3, [r3, #20]
 800684e:	021b      	lsls	r3, r3, #8
 8006850:	697a      	ldr	r2, [r7, #20]
 8006852:	4313      	orrs	r3, r2
 8006854:	617b      	str	r3, [r7, #20]
  }
  /* Write to TIMx CR2 */
  TIMx->CR2 = tmpcr2;
 8006856:	687b      	ldr	r3, [r7, #4]
 8006858:	697a      	ldr	r2, [r7, #20]
 800685a:	605a      	str	r2, [r3, #4]

  /* Write to TIMx CCMR3 */
  TIMx->CCMR3 = tmpccmrx;
 800685c:	687b      	ldr	r3, [r7, #4]
 800685e:	68fa      	ldr	r2, [r7, #12]
 8006860:	655a      	str	r2, [r3, #84]	; 0x54

  /* Set the Capture Compare Register value */
  TIMx->CCR5 = OC_Config->Pulse;
 8006862:	683b      	ldr	r3, [r7, #0]
 8006864:	685a      	ldr	r2, [r3, #4]
 8006866:	687b      	ldr	r3, [r7, #4]
 8006868:	659a      	str	r2, [r3, #88]	; 0x58

  /* Write to TIMx CCER */
  TIMx->CCER = tmpccer;
 800686a:	687b      	ldr	r3, [r7, #4]
 800686c:	693a      	ldr	r2, [r7, #16]
 800686e:	621a      	str	r2, [r3, #32]
}
 8006870:	bf00      	nop
 8006872:	371c      	adds	r7, #28
 8006874:	46bd      	mov	sp, r7
 8006876:	f85d 7b04 	ldr.w	r7, [sp], #4
 800687a:	4770      	bx	lr
 800687c:	40012c00 	.word	0x40012c00
 8006880:	40013400 	.word	0x40013400
 8006884:	40014000 	.word	0x40014000
 8006888:	40014400 	.word	0x40014400
 800688c:	40014800 	.word	0x40014800

08006890 <TIM_OC6_SetConfig>:
  * @param  OC_Config The output configuration structure
  * @retval None
  */
static void TIM_OC6_SetConfig(TIM_TypeDef *TIMx,
                              TIM_OC_InitTypeDef *OC_Config)
{
 8006890:	b480      	push	{r7}
 8006892:	b087      	sub	sp, #28
 8006894:	af00      	add	r7, sp, #0
 8006896:	6078      	str	r0, [r7, #4]
 8006898:	6039      	str	r1, [r7, #0]
  uint32_t tmpccmrx;
  uint32_t tmpccer;
  uint32_t tmpcr2;

  /* Disable the output: Reset the CCxE Bit */
  TIMx->CCER &= ~TIM_CCER_CC6E;
 800689a:	687b      	ldr	r3, [r7, #4]
 800689c:	6a1b      	ldr	r3, [r3, #32]
 800689e:	f423 1280 	bic.w	r2, r3, #1048576	; 0x100000
 80068a2:	687b      	ldr	r3, [r7, #4]
 80068a4:	621a      	str	r2, [r3, #32]

  /* Get the TIMx CCER register value */
  tmpccer = TIMx->CCER;
 80068a6:	687b      	ldr	r3, [r7, #4]
 80068a8:	6a1b      	ldr	r3, [r3, #32]
 80068aa:	613b      	str	r3, [r7, #16]
  /* Get the TIMx CR2 register value */
  tmpcr2 =  TIMx->CR2;
 80068ac:	687b      	ldr	r3, [r7, #4]
 80068ae:	685b      	ldr	r3, [r3, #4]
 80068b0:	617b      	str	r3, [r7, #20]
  /* Get the TIMx CCMR1 register value */
  tmpccmrx = TIMx->CCMR3;
 80068b2:	687b      	ldr	r3, [r7, #4]
 80068b4:	6d5b      	ldr	r3, [r3, #84]	; 0x54
 80068b6:	60fb      	str	r3, [r7, #12]

  /* Reset the Output Compare Mode Bits */
  tmpccmrx &= ~(TIM_CCMR3_OC6M);
 80068b8:	68fb      	ldr	r3, [r7, #12]
 80068ba:	f023 7380 	bic.w	r3, r3, #16777216	; 0x1000000
 80068be:	f423 43e0 	bic.w	r3, r3, #28672	; 0x7000
 80068c2:	60fb      	str	r3, [r7, #12]
  /* Select the Output Compare Mode */
  tmpccmrx |= (OC_Config->OCMode << 8U);
 80068c4:	683b      	ldr	r3, [r7, #0]
 80068c6:	681b      	ldr	r3, [r3, #0]
 80068c8:	021b      	lsls	r3, r3, #8
 80068ca:	68fa      	ldr	r2, [r7, #12]
 80068cc:	4313      	orrs	r3, r2
 80068ce:	60fb      	str	r3, [r7, #12]

  /* Reset the Output Polarity level */
  tmpccer &= (uint32_t)~TIM_CCER_CC6P;
 80068d0:	693b      	ldr	r3, [r7, #16]
 80068d2:	f423 1300 	bic.w	r3, r3, #2097152	; 0x200000
 80068d6:	613b      	str	r3, [r7, #16]
  /* Set the Output Compare Polarity */
  tmpccer |= (OC_Config->OCPolarity << 20U);
 80068d8:	683b      	ldr	r3, [r7, #0]
 80068da:	689b      	ldr	r3, [r3, #8]
 80068dc:	051b      	lsls	r3, r3, #20
 80068de:	693a      	ldr	r2, [r7, #16]
 80068e0:	4313      	orrs	r3, r2
 80068e2:	613b      	str	r3, [r7, #16]

  if (IS_TIM_BREAK_INSTANCE(TIMx))
 80068e4:	687b      	ldr	r3, [r7, #4]
 80068e6:	4a18      	ldr	r2, [pc, #96]	; (8006948 <TIM_OC6_SetConfig+0xb8>)
 80068e8:	4293      	cmp	r3, r2
 80068ea:	d00f      	beq.n	800690c <TIM_OC6_SetConfig+0x7c>
 80068ec:	687b      	ldr	r3, [r7, #4]
 80068ee:	4a17      	ldr	r2, [pc, #92]	; (800694c <TIM_OC6_SetConfig+0xbc>)
 80068f0:	4293      	cmp	r3, r2
 80068f2:	d00b      	beq.n	800690c <TIM_OC6_SetConfig+0x7c>
 80068f4:	687b      	ldr	r3, [r7, #4]
 80068f6:	4a16      	ldr	r2, [pc, #88]	; (8006950 <TIM_OC6_SetConfig+0xc0>)
 80068f8:	4293      	cmp	r3, r2
 80068fa:	d007      	beq.n	800690c <TIM_OC6_SetConfig+0x7c>
 80068fc:	687b      	ldr	r3, [r7, #4]
 80068fe:	4a15      	ldr	r2, [pc, #84]	; (8006954 <TIM_OC6_SetConfig+0xc4>)
 8006900:	4293      	cmp	r3, r2
 8006902:	d003      	beq.n	800690c <TIM_OC6_SetConfig+0x7c>
 8006904:	687b      	ldr	r3, [r7, #4]
 8006906:	4a14      	ldr	r2, [pc, #80]	; (8006958 <TIM_OC6_SetConfig+0xc8>)
 8006908:	4293      	cmp	r3, r2
 800690a:	d109      	bne.n	8006920 <TIM_OC6_SetConfig+0x90>
  {
    /* Reset the Output Compare IDLE State */
    tmpcr2 &= ~TIM_CR2_OIS6;
 800690c:	697b      	ldr	r3, [r7, #20]
 800690e:	f423 2380 	bic.w	r3, r3, #262144	; 0x40000
 8006912:	617b      	str	r3, [r7, #20]
    /* Set the Output Idle state */
    tmpcr2 |= (OC_Config->OCIdleState << 10U);
 8006914:	683b      	ldr	r3, [r7, #0]
 8006916:	695b      	ldr	r3, [r3, #20]
 8006918:	029b      	lsls	r3, r3, #10
 800691a:	697a      	ldr	r2, [r7, #20]
 800691c:	4313      	orrs	r3, r2
 800691e:	617b      	str	r3, [r7, #20]
  }

  /* Write to TIMx CR2 */
  TIMx->CR2 = tmpcr2;
 8006920:	687b      	ldr	r3, [r7, #4]
 8006922:	697a      	ldr	r2, [r7, #20]
 8006924:	605a      	str	r2, [r3, #4]

  /* Write to TIMx CCMR3 */
  TIMx->CCMR3 = tmpccmrx;
 8006926:	687b      	ldr	r3, [r7, #4]
 8006928:	68fa      	ldr	r2, [r7, #12]
 800692a:	655a      	str	r2, [r3, #84]	; 0x54

  /* Set the Capture Compare Register value */
  TIMx->CCR6 = OC_Config->Pulse;
 800692c:	683b      	ldr	r3, [r7, #0]
 800692e:	685a      	ldr	r2, [r3, #4]
 8006930:	687b      	ldr	r3, [r7, #4]
 8006932:	65da      	str	r2, [r3, #92]	; 0x5c

  /* Write to TIMx CCER */
  TIMx->CCER = tmpccer;
 8006934:	687b      	ldr	r3, [r7, #4]
 8006936:	693a      	ldr	r2, [r7, #16]
 8006938:	621a      	str	r2, [r3, #32]
}
 800693a:	bf00      	nop
 800693c:	371c      	adds	r7, #28
 800693e:	46bd      	mov	sp, r7
 8006940:	f85d 7b04 	ldr.w	r7, [sp], #4
 8006944:	4770      	bx	lr
 8006946:	bf00      	nop
 8006948:	40012c00 	.word	0x40012c00
 800694c:	40013400 	.word	0x40013400
 8006950:	40014000 	.word	0x40014000
 8006954:	40014400 	.word	0x40014400
 8006958:	40014800 	.word	0x40014800

0800695c <TIM_TI1_ConfigInputStage>:
  * @param  TIM_ICFilter Specifies the Input Capture Filter.
  *          This parameter must be a value between 0x00 and 0x0F.
  * @retval None
  */
static void TIM_TI1_ConfigInputStage(TIM_TypeDef *TIMx, uint32_t TIM_ICPolarity, uint32_t TIM_ICFilter)
{
 800695c:	b480      	push	{r7}
 800695e:	b087      	sub	sp, #28
 8006960:	af00      	add	r7, sp, #0
 8006962:	60f8      	str	r0, [r7, #12]
 8006964:	60b9      	str	r1, [r7, #8]
 8006966:	607a      	str	r2, [r7, #4]
  uint32_t tmpccmr1;
  uint32_t tmpccer;

  /* Disable the Channel 1: Reset the CC1E Bit */
  tmpccer = TIMx->CCER;
 8006968:	68fb      	ldr	r3, [r7, #12]
 800696a:	6a1b      	ldr	r3, [r3, #32]
 800696c:	617b      	str	r3, [r7, #20]
  TIMx->CCER &= ~TIM_CCER_CC1E;
 800696e:	68fb      	ldr	r3, [r7, #12]
 8006970:	6a1b      	ldr	r3, [r3, #32]
 8006972:	f023 0201 	bic.w	r2, r3, #1
 8006976:	68fb      	ldr	r3, [r7, #12]
 8006978:	621a      	str	r2, [r3, #32]
  tmpccmr1 = TIMx->CCMR1;
 800697a:	68fb      	ldr	r3, [r7, #12]
 800697c:	699b      	ldr	r3, [r3, #24]
 800697e:	613b      	str	r3, [r7, #16]

  /* Set the filter */
  tmpccmr1 &= ~TIM_CCMR1_IC1F;
 8006980:	693b      	ldr	r3, [r7, #16]
 8006982:	f023 03f0 	bic.w	r3, r3, #240	; 0xf0
 8006986:	613b      	str	r3, [r7, #16]
  tmpccmr1 |= (TIM_ICFilter << 4U);
 8006988:	687b      	ldr	r3, [r7, #4]
 800698a:	011b      	lsls	r3, r3, #4
 800698c:	693a      	ldr	r2, [r7, #16]
 800698e:	4313      	orrs	r3, r2
 8006990:	613b      	str	r3, [r7, #16]

  /* Select the Polarity and set the CC1E Bit */
  tmpccer &= ~(TIM_CCER_CC1P | TIM_CCER_CC1NP);
 8006992:	697b      	ldr	r3, [r7, #20]
 8006994:	f023 030a 	bic.w	r3, r3, #10
 8006998:	617b      	str	r3, [r7, #20]
  tmpccer |= TIM_ICPolarity;
 800699a:	697a      	ldr	r2, [r7, #20]
 800699c:	68bb      	ldr	r3, [r7, #8]
 800699e:	4313      	orrs	r3, r2
 80069a0:	617b      	str	r3, [r7, #20]

  /* Write to TIMx CCMR1 and CCER registers */
  TIMx->CCMR1 = tmpccmr1;
 80069a2:	68fb      	ldr	r3, [r7, #12]
 80069a4:	693a      	ldr	r2, [r7, #16]
 80069a6:	619a      	str	r2, [r3, #24]
  TIMx->CCER = tmpccer;
 80069a8:	68fb      	ldr	r3, [r7, #12]
 80069aa:	697a      	ldr	r2, [r7, #20]
 80069ac:	621a      	str	r2, [r3, #32]
}
 80069ae:	bf00      	nop
 80069b0:	371c      	adds	r7, #28
 80069b2:	46bd      	mov	sp, r7
 80069b4:	f85d 7b04 	ldr.w	r7, [sp], #4
 80069b8:	4770      	bx	lr

080069ba <TIM_TI2_ConfigInputStage>:
  * @param  TIM_ICFilter Specifies the Input Capture Filter.
  *          This parameter must be a value between 0x00 and 0x0F.
  * @retval None
  */
static void TIM_TI2_ConfigInputStage(TIM_TypeDef *TIMx, uint32_t TIM_ICPolarity, uint32_t TIM_ICFilter)
{
 80069ba:	b480      	push	{r7}
 80069bc:	b087      	sub	sp, #28
 80069be:	af00      	add	r7, sp, #0
 80069c0:	60f8      	str	r0, [r7, #12]
 80069c2:	60b9      	str	r1, [r7, #8]
 80069c4:	607a      	str	r2, [r7, #4]
  uint32_t tmpccmr1;
  uint32_t tmpccer;

  /* Disable the Channel 2: Reset the CC2E Bit */
  TIMx->CCER &= ~TIM_CCER_CC2E;
 80069c6:	68fb      	ldr	r3, [r7, #12]
 80069c8:	6a1b      	ldr	r3, [r3, #32]
 80069ca:	f023 0210 	bic.w	r2, r3, #16
 80069ce:	68fb      	ldr	r3, [r7, #12]
 80069d0:	621a      	str	r2, [r3, #32]
  tmpccmr1 = TIMx->CCMR1;
 80069d2:	68fb      	ldr	r3, [r7, #12]
 80069d4:	699b      	ldr	r3, [r3, #24]
 80069d6:	617b      	str	r3, [r7, #20]
  tmpccer = TIMx->CCER;
 80069d8:	68fb      	ldr	r3, [r7, #12]
 80069da:	6a1b      	ldr	r3, [r3, #32]
 80069dc:	613b      	str	r3, [r7, #16]

  /* Set the filter */
  tmpccmr1 &= ~TIM_CCMR1_IC2F;
 80069de:	697b      	ldr	r3, [r7, #20]
 80069e0:	f423 4370 	bic.w	r3, r3, #61440	; 0xf000
 80069e4:	617b      	str	r3, [r7, #20]
  tmpccmr1 |= (TIM_ICFilter << 12U);
 80069e6:	687b      	ldr	r3, [r7, #4]
 80069e8:	031b      	lsls	r3, r3, #12
 80069ea:	697a      	ldr	r2, [r7, #20]
 80069ec:	4313      	orrs	r3, r2
 80069ee:	617b      	str	r3, [r7, #20]

  /* Select the Polarity and set the CC2E Bit */
  tmpccer &= ~(TIM_CCER_CC2P | TIM_CCER_CC2NP);
 80069f0:	693b      	ldr	r3, [r7, #16]
 80069f2:	f023 03a0 	bic.w	r3, r3, #160	; 0xa0
 80069f6:	613b      	str	r3, [r7, #16]
  tmpccer |= (TIM_ICPolarity << 4U);
 80069f8:	68bb      	ldr	r3, [r7, #8]
 80069fa:	011b      	lsls	r3, r3, #4
 80069fc:	693a      	ldr	r2, [r7, #16]
 80069fe:	4313      	orrs	r3, r2
 8006a00:	613b      	str	r3, [r7, #16]

  /* Write to TIMx CCMR1 and CCER registers */
  TIMx->CCMR1 = tmpccmr1 ;
 8006a02:	68fb      	ldr	r3, [r7, #12]
 8006a04:	697a      	ldr	r2, [r7, #20]
 8006a06:	619a      	str	r2, [r3, #24]
  TIMx->CCER = tmpccer;
 8006a08:	68fb      	ldr	r3, [r7, #12]
 8006a0a:	693a      	ldr	r2, [r7, #16]
 8006a0c:	621a      	str	r2, [r3, #32]
}
 8006a0e:	bf00      	nop
 8006a10:	371c      	adds	r7, #28
 8006a12:	46bd      	mov	sp, r7
 8006a14:	f85d 7b04 	ldr.w	r7, [sp], #4
 8006a18:	4770      	bx	lr

08006a1a <TIM_ITRx_SetConfig>:
  *            @arg TIM_TS_TI2FP2: Filtered Timer Input 2
  *            @arg TIM_TS_ETRF: External Trigger input
  * @retval None
  */
static void TIM_ITRx_SetConfig(TIM_TypeDef *TIMx, uint32_t InputTriggerSource)
{
 8006a1a:	b480      	push	{r7}
 8006a1c:	b085      	sub	sp, #20
 8006a1e:	af00      	add	r7, sp, #0
 8006a20:	6078      	str	r0, [r7, #4]
 8006a22:	6039      	str	r1, [r7, #0]
  uint32_t tmpsmcr;

  /* Get the TIMx SMCR register value */
  tmpsmcr = TIMx->SMCR;
 8006a24:	687b      	ldr	r3, [r7, #4]
 8006a26:	689b      	ldr	r3, [r3, #8]
 8006a28:	60fb      	str	r3, [r7, #12]
  /* Reset the TS Bits */
  tmpsmcr &= ~TIM_SMCR_TS;
 8006a2a:	68fb      	ldr	r3, [r7, #12]
 8006a2c:	f023 0370 	bic.w	r3, r3, #112	; 0x70
 8006a30:	60fb      	str	r3, [r7, #12]
  /* Set the Input Trigger source and the slave mode*/
  tmpsmcr |= (InputTriggerSource | TIM_SLAVEMODE_EXTERNAL1);
 8006a32:	683a      	ldr	r2, [r7, #0]
 8006a34:	68fb      	ldr	r3, [r7, #12]
 8006a36:	4313      	orrs	r3, r2
 8006a38:	f043 0307 	orr.w	r3, r3, #7
 8006a3c:	60fb      	str	r3, [r7, #12]
  /* Write to TIMx SMCR */
  TIMx->SMCR = tmpsmcr;
 8006a3e:	687b      	ldr	r3, [r7, #4]
 8006a40:	68fa      	ldr	r2, [r7, #12]
 8006a42:	609a      	str	r2, [r3, #8]
}
 8006a44:	bf00      	nop
 8006a46:	3714      	adds	r7, #20
 8006a48:	46bd      	mov	sp, r7
 8006a4a:	f85d 7b04 	ldr.w	r7, [sp], #4
 8006a4e:	4770      	bx	lr

08006a50 <TIM_ETR_SetConfig>:
  *          This parameter must be a value between 0x00 and 0x0F
  * @retval None
  */
void TIM_ETR_SetConfig(TIM_TypeDef *TIMx, uint32_t TIM_ExtTRGPrescaler,
                       uint32_t TIM_ExtTRGPolarity, uint32_t ExtTRGFilter)
{
 8006a50:	b480      	push	{r7}
 8006a52:	b087      	sub	sp, #28
 8006a54:	af00      	add	r7, sp, #0
 8006a56:	60f8      	str	r0, [r7, #12]
 8006a58:	60b9      	str	r1, [r7, #8]
 8006a5a:	607a      	str	r2, [r7, #4]
 8006a5c:	603b      	str	r3, [r7, #0]
  uint32_t tmpsmcr;

  tmpsmcr = TIMx->SMCR;
 8006a5e:	68fb      	ldr	r3, [r7, #12]
 8006a60:	689b      	ldr	r3, [r3, #8]
 8006a62:	617b      	str	r3, [r7, #20]

  /* Reset the ETR Bits */
  tmpsmcr &= ~(TIM_SMCR_ETF | TIM_SMCR_ETPS | TIM_SMCR_ECE | TIM_SMCR_ETP);
 8006a64:	697b      	ldr	r3, [r7, #20]
 8006a66:	f423 437f 	bic.w	r3, r3, #65280	; 0xff00
 8006a6a:	617b      	str	r3, [r7, #20]

  /* Set the Prescaler, the Filter value and the Polarity */
  tmpsmcr |= (uint32_t)(TIM_ExtTRGPrescaler | (TIM_ExtTRGPolarity | (ExtTRGFilter << 8U)));
 8006a6c:	683b      	ldr	r3, [r7, #0]
 8006a6e:	021a      	lsls	r2, r3, #8
 8006a70:	687b      	ldr	r3, [r7, #4]
 8006a72:	431a      	orrs	r2, r3
 8006a74:	68bb      	ldr	r3, [r7, #8]
 8006a76:	4313      	orrs	r3, r2
 8006a78:	697a      	ldr	r2, [r7, #20]
 8006a7a:	4313      	orrs	r3, r2
 8006a7c:	617b      	str	r3, [r7, #20]

  /* Write to TIMx SMCR */
  TIMx->SMCR = tmpsmcr;
 8006a7e:	68fb      	ldr	r3, [r7, #12]
 8006a80:	697a      	ldr	r2, [r7, #20]
 8006a82:	609a      	str	r2, [r3, #8]
}
 8006a84:	bf00      	nop
 8006a86:	371c      	adds	r7, #28
 8006a88:	46bd      	mov	sp, r7
 8006a8a:	f85d 7b04 	ldr.w	r7, [sp], #4
 8006a8e:	4770      	bx	lr

08006a90 <TIM_CCxChannelCmd>:
  * @param  ChannelState specifies the TIM Channel CCxE bit new state.
  *          This parameter can be: TIM_CCx_ENABLE or TIM_CCx_DISABLE.
  * @retval None
  */
void TIM_CCxChannelCmd(TIM_TypeDef *TIMx, uint32_t Channel, uint32_t ChannelState)
{
 8006a90:	b480      	push	{r7}
 8006a92:	b087      	sub	sp, #28
 8006a94:	af00      	add	r7, sp, #0
 8006a96:	60f8      	str	r0, [r7, #12]
 8006a98:	60b9      	str	r1, [r7, #8]
 8006a9a:	607a      	str	r2, [r7, #4]

  /* Check the parameters */
  assert_param(IS_TIM_CC1_INSTANCE(TIMx));
  assert_param(IS_TIM_CHANNELS(Channel));

  tmp = TIM_CCER_CC1E << (Channel & 0x1FU); /* 0x1FU = 31 bits max shift */
 8006a9c:	68bb      	ldr	r3, [r7, #8]
 8006a9e:	f003 031f 	and.w	r3, r3, #31
 8006aa2:	2201      	movs	r2, #1
 8006aa4:	fa02 f303 	lsl.w	r3, r2, r3
 8006aa8:	617b      	str	r3, [r7, #20]

  /* Reset the CCxE Bit */
  TIMx->CCER &= ~tmp;
 8006aaa:	68fb      	ldr	r3, [r7, #12]
 8006aac:	6a1a      	ldr	r2, [r3, #32]
 8006aae:	697b      	ldr	r3, [r7, #20]
 8006ab0:	43db      	mvns	r3, r3
 8006ab2:	401a      	ands	r2, r3
 8006ab4:	68fb      	ldr	r3, [r7, #12]
 8006ab6:	621a      	str	r2, [r3, #32]

  /* Set or reset the CCxE Bit */
  TIMx->CCER |= (uint32_t)(ChannelState << (Channel & 0x1FU)); /* 0x1FU = 31 bits max shift */
 8006ab8:	68fb      	ldr	r3, [r7, #12]
 8006aba:	6a1a      	ldr	r2, [r3, #32]
 8006abc:	68bb      	ldr	r3, [r7, #8]
 8006abe:	f003 031f 	and.w	r3, r3, #31
 8006ac2:	6879      	ldr	r1, [r7, #4]
 8006ac4:	fa01 f303 	lsl.w	r3, r1, r3
 8006ac8:	431a      	orrs	r2, r3
 8006aca:	68fb      	ldr	r3, [r7, #12]
 8006acc:	621a      	str	r2, [r3, #32]
}
 8006ace:	bf00      	nop
 8006ad0:	371c      	adds	r7, #28
 8006ad2:	46bd      	mov	sp, r7
 8006ad4:	f85d 7b04 	ldr.w	r7, [sp], #4
 8006ad8:	4770      	bx	lr
	...

08006adc <HAL_TIMEx_MasterConfigSynchronization>:
  *         mode.
  * @retval HAL status
  */
HAL_StatusTypeDef HAL_TIMEx_MasterConfigSynchronization(TIM_HandleTypeDef *htim,
                                                        TIM_MasterConfigTypeDef *sMasterConfig)
{
 8006adc:	b480      	push	{r7}
 8006ade:	b085      	sub	sp, #20
 8006ae0:	af00      	add	r7, sp, #0
 8006ae2:	6078      	str	r0, [r7, #4]
 8006ae4:	6039      	str	r1, [r7, #0]
  assert_param(IS_TIM_MASTER_INSTANCE(htim->Instance));
  assert_param(IS_TIM_TRGO_SOURCE(sMasterConfig->MasterOutputTrigger));
  assert_param(IS_TIM_MSM_STATE(sMasterConfig->MasterSlaveMode));

  /* Check input state */
  __HAL_LOCK(htim);
 8006ae6:	687b      	ldr	r3, [r7, #4]
 8006ae8:	f893 303c 	ldrb.w	r3, [r3, #60]	; 0x3c
 8006aec:	2b01      	cmp	r3, #1
 8006aee:	d101      	bne.n	8006af4 <HAL_TIMEx_MasterConfigSynchronization+0x18>
 8006af0:	2302      	movs	r3, #2
 8006af2:	e068      	b.n	8006bc6 <HAL_TIMEx_MasterConfigSynchronization+0xea>
 8006af4:	687b      	ldr	r3, [r7, #4]
 8006af6:	2201      	movs	r2, #1
 8006af8:	f883 203c 	strb.w	r2, [r3, #60]	; 0x3c

  /* Change the handler state */
  htim->State = HAL_TIM_STATE_BUSY;
 8006afc:	687b      	ldr	r3, [r7, #4]
 8006afe:	2202      	movs	r2, #2
 8006b00:	f883 203d 	strb.w	r2, [r3, #61]	; 0x3d

  /* Get the TIMx CR2 register value */
  tmpcr2 = htim->Instance->CR2;
 8006b04:	687b      	ldr	r3, [r7, #4]
 8006b06:	681b      	ldr	r3, [r3, #0]
 8006b08:	685b      	ldr	r3, [r3, #4]
 8006b0a:	60fb      	str	r3, [r7, #12]

  /* Get the TIMx SMCR register value */
  tmpsmcr = htim->Instance->SMCR;
 8006b0c:	687b      	ldr	r3, [r7, #4]
 8006b0e:	681b      	ldr	r3, [r3, #0]
 8006b10:	689b      	ldr	r3, [r3, #8]
 8006b12:	60bb      	str	r3, [r7, #8]

  /* If the timer supports ADC synchronization through TRGO2, set the master mode selection 2 */
  if (IS_TIM_TRGO2_INSTANCE(htim->Instance))
 8006b14:	687b      	ldr	r3, [r7, #4]
 8006b16:	681b      	ldr	r3, [r3, #0]
 8006b18:	4a2e      	ldr	r2, [pc, #184]	; (8006bd4 <HAL_TIMEx_MasterConfigSynchronization+0xf8>)
 8006b1a:	4293      	cmp	r3, r2
 8006b1c:	d004      	beq.n	8006b28 <HAL_TIMEx_MasterConfigSynchronization+0x4c>
 8006b1e:	687b      	ldr	r3, [r7, #4]
 8006b20:	681b      	ldr	r3, [r3, #0]
 8006b22:	4a2d      	ldr	r2, [pc, #180]	; (8006bd8 <HAL_TIMEx_MasterConfigSynchronization+0xfc>)
 8006b24:	4293      	cmp	r3, r2
 8006b26:	d108      	bne.n	8006b3a <HAL_TIMEx_MasterConfigSynchronization+0x5e>
  {
    /* Check the parameters */
    assert_param(IS_TIM_TRGO2_SOURCE(sMasterConfig->MasterOutputTrigger2));

    /* Clear the MMS2 bits */
    tmpcr2 &= ~TIM_CR2_MMS2;
 8006b28:	68fb      	ldr	r3, [r7, #12]
 8006b2a:	f423 0370 	bic.w	r3, r3, #15728640	; 0xf00000
 8006b2e:	60fb      	str	r3, [r7, #12]
    /* Select the TRGO2 source*/
    tmpcr2 |= sMasterConfig->MasterOutputTrigger2;
 8006b30:	683b      	ldr	r3, [r7, #0]
 8006b32:	685b      	ldr	r3, [r3, #4]
 8006b34:	68fa      	ldr	r2, [r7, #12]
 8006b36:	4313      	orrs	r3, r2
 8006b38:	60fb      	str	r3, [r7, #12]
  }

  /* Reset the MMS Bits */
  tmpcr2 &= ~TIM_CR2_MMS;
 8006b3a:	68fb      	ldr	r3, [r7, #12]
 8006b3c:	f023 0370 	bic.w	r3, r3, #112	; 0x70
 8006b40:	60fb      	str	r3, [r7, #12]
  /* Select the TRGO source */
  tmpcr2 |=  sMasterConfig->MasterOutputTrigger;
 8006b42:	683b      	ldr	r3, [r7, #0]
 8006b44:	681b      	ldr	r3, [r3, #0]
 8006b46:	68fa      	ldr	r2, [r7, #12]
 8006b48:	4313      	orrs	r3, r2
 8006b4a:	60fb      	str	r3, [r7, #12]

  /* Update TIMx CR2 */
  htim->Instance->CR2 = tmpcr2;
 8006b4c:	687b      	ldr	r3, [r7, #4]
 8006b4e:	681b      	ldr	r3, [r3, #0]
 8006b50:	68fa      	ldr	r2, [r7, #12]
 8006b52:	605a      	str	r2, [r3, #4]

  if (IS_TIM_SLAVE_INSTANCE(htim->Instance))
 8006b54:	687b      	ldr	r3, [r7, #4]
 8006b56:	681b      	ldr	r3, [r3, #0]
 8006b58:	4a1e      	ldr	r2, [pc, #120]	; (8006bd4 <HAL_TIMEx_MasterConfigSynchronization+0xf8>)
 8006b5a:	4293      	cmp	r3, r2
 8006b5c:	d01d      	beq.n	8006b9a <HAL_TIMEx_MasterConfigSynchronization+0xbe>
 8006b5e:	687b      	ldr	r3, [r7, #4]
 8006b60:	681b      	ldr	r3, [r3, #0]
 8006b62:	f1b3 4f80 	cmp.w	r3, #1073741824	; 0x40000000
 8006b66:	d018      	beq.n	8006b9a <HAL_TIMEx_MasterConfigSynchronization+0xbe>
 8006b68:	687b      	ldr	r3, [r7, #4]
 8006b6a:	681b      	ldr	r3, [r3, #0]
 8006b6c:	4a1b      	ldr	r2, [pc, #108]	; (8006bdc <HAL_TIMEx_MasterConfigSynchronization+0x100>)
 8006b6e:	4293      	cmp	r3, r2
 8006b70:	d013      	beq.n	8006b9a <HAL_TIMEx_MasterConfigSynchronization+0xbe>
 8006b72:	687b      	ldr	r3, [r7, #4]
 8006b74:	681b      	ldr	r3, [r3, #0]
 8006b76:	4a1a      	ldr	r2, [pc, #104]	; (8006be0 <HAL_TIMEx_MasterConfigSynchronization+0x104>)
 8006b78:	4293      	cmp	r3, r2
 8006b7a:	d00e      	beq.n	8006b9a <HAL_TIMEx_MasterConfigSynchronization+0xbe>
 8006b7c:	687b      	ldr	r3, [r7, #4]
 8006b7e:	681b      	ldr	r3, [r3, #0]
 8006b80:	4a18      	ldr	r2, [pc, #96]	; (8006be4 <HAL_TIMEx_MasterConfigSynchronization+0x108>)
 8006b82:	4293      	cmp	r3, r2
 8006b84:	d009      	beq.n	8006b9a <HAL_TIMEx_MasterConfigSynchronization+0xbe>
 8006b86:	687b      	ldr	r3, [r7, #4]
 8006b88:	681b      	ldr	r3, [r3, #0]
 8006b8a:	4a13      	ldr	r2, [pc, #76]	; (8006bd8 <HAL_TIMEx_MasterConfigSynchronization+0xfc>)
 8006b8c:	4293      	cmp	r3, r2
 8006b8e:	d004      	beq.n	8006b9a <HAL_TIMEx_MasterConfigSynchronization+0xbe>
 8006b90:	687b      	ldr	r3, [r7, #4]
 8006b92:	681b      	ldr	r3, [r3, #0]
 8006b94:	4a14      	ldr	r2, [pc, #80]	; (8006be8 <HAL_TIMEx_MasterConfigSynchronization+0x10c>)
 8006b96:	4293      	cmp	r3, r2
 8006b98:	d10c      	bne.n	8006bb4 <HAL_TIMEx_MasterConfigSynchronization+0xd8>
  {
    /* Reset the MSM Bit */
    tmpsmcr &= ~TIM_SMCR_MSM;
 8006b9a:	68bb      	ldr	r3, [r7, #8]
 8006b9c:	f023 0380 	bic.w	r3, r3, #128	; 0x80
 8006ba0:	60bb      	str	r3, [r7, #8]
    /* Set master mode */
    tmpsmcr |= sMasterConfig->MasterSlaveMode;
 8006ba2:	683b      	ldr	r3, [r7, #0]
 8006ba4:	689b      	ldr	r3, [r3, #8]
 8006ba6:	68ba      	ldr	r2, [r7, #8]
 8006ba8:	4313      	orrs	r3, r2
 8006baa:	60bb      	str	r3, [r7, #8]

    /* Update TIMx SMCR */
    htim->Instance->SMCR = tmpsmcr;
 8006bac:	687b      	ldr	r3, [r7, #4]
 8006bae:	681b      	ldr	r3, [r3, #0]
 8006bb0:	68ba      	ldr	r2, [r7, #8]
 8006bb2:	609a      	str	r2, [r3, #8]
  }

  /* Change the htim state */
  htim->State = HAL_TIM_STATE_READY;
 8006bb4:	687b      	ldr	r3, [r7, #4]
 8006bb6:	2201      	movs	r2, #1
 8006bb8:	f883 203d 	strb.w	r2, [r3, #61]	; 0x3d

  __HAL_UNLOCK(htim);
 8006bbc:	687b      	ldr	r3, [r7, #4]
 8006bbe:	2200      	movs	r2, #0
 8006bc0:	f883 203c 	strb.w	r2, [r3, #60]	; 0x3c

  return HAL_OK;
 8006bc4:	2300      	movs	r3, #0
}
 8006bc6:	4618      	mov	r0, r3
 8006bc8:	3714      	adds	r7, #20
 8006bca:	46bd      	mov	sp, r7
 8006bcc:	f85d 7b04 	ldr.w	r7, [sp], #4
 8006bd0:	4770      	bx	lr
 8006bd2:	bf00      	nop
 8006bd4:	40012c00 	.word	0x40012c00
 8006bd8:	40013400 	.word	0x40013400
 8006bdc:	40000400 	.word	0x40000400
 8006be0:	40000800 	.word	0x40000800
 8006be4:	40000c00 	.word	0x40000c00
 8006be8:	40014000 	.word	0x40014000

08006bec <ssd1306_Reset>:
#include "ssd1306.h"

#if defined(SSD1306_USE_I2C)

void ssd1306_Reset(void) {
 8006bec:	b480      	push	{r7}
 8006bee:	af00      	add	r7, sp, #0
	/* for I2C - do nothing */
}
 8006bf0:	bf00      	nop
 8006bf2:	46bd      	mov	sp, r7
 8006bf4:	f85d 7b04 	ldr.w	r7, [sp], #4
 8006bf8:	4770      	bx	lr
	...

08006bfc <ssd1306_WriteCommand>:

// Send a byte to the command register
void ssd1306_WriteCommand(uint8_t byte) {
 8006bfc:	b580      	push	{r7, lr}
 8006bfe:	b086      	sub	sp, #24
 8006c00:	af04      	add	r7, sp, #16
 8006c02:	4603      	mov	r3, r0
 8006c04:	71fb      	strb	r3, [r7, #7]
	HAL_I2C_Mem_Write(&SSD1306_I2C_PORT, SSD1306_I2C_ADDR, 0x00, 1, &byte, 1, HAL_MAX_DELAY);
 8006c06:	f04f 33ff 	mov.w	r3, #4294967295
 8006c0a:	9302      	str	r3, [sp, #8]
 8006c0c:	2301      	movs	r3, #1
 8006c0e:	9301      	str	r3, [sp, #4]
 8006c10:	1dfb      	adds	r3, r7, #7
 8006c12:	9300      	str	r3, [sp, #0]
 8006c14:	2301      	movs	r3, #1
 8006c16:	2200      	movs	r2, #0
 8006c18:	2178      	movs	r1, #120	; 0x78
 8006c1a:	4803      	ldr	r0, [pc, #12]	; (8006c28 <ssd1306_WriteCommand+0x2c>)
 8006c1c:	f7fd f8cc 	bl	8003db8 <HAL_I2C_Mem_Write>
}
 8006c20:	bf00      	nop
 8006c22:	3708      	adds	r7, #8
 8006c24:	46bd      	mov	sp, r7
 8006c26:	bd80      	pop	{r7, pc}
 8006c28:	2000093c 	.word	0x2000093c

08006c2c <ssd1306_WriteData>:

// Send data
void ssd1306_WriteData(uint8_t* buffer, size_t buff_size) {
 8006c2c:	b580      	push	{r7, lr}
 8006c2e:	b086      	sub	sp, #24
 8006c30:	af04      	add	r7, sp, #16
 8006c32:	6078      	str	r0, [r7, #4]
 8006c34:	6039      	str	r1, [r7, #0]
	HAL_I2C_Mem_Write(&SSD1306_I2C_PORT, SSD1306_I2C_ADDR, 0x40, 1, buffer, buff_size, HAL_MAX_DELAY);
 8006c36:	683b      	ldr	r3, [r7, #0]
 8006c38:	b29b      	uxth	r3, r3
 8006c3a:	f04f 32ff 	mov.w	r2, #4294967295
 8006c3e:	9202      	str	r2, [sp, #8]
 8006c40:	9301      	str	r3, [sp, #4]
 8006c42:	687b      	ldr	r3, [r7, #4]
 8006c44:	9300      	str	r3, [sp, #0]
 8006c46:	2301      	movs	r3, #1
 8006c48:	2240      	movs	r2, #64	; 0x40
 8006c4a:	2178      	movs	r1, #120	; 0x78
 8006c4c:	4803      	ldr	r0, [pc, #12]	; (8006c5c <ssd1306_WriteData+0x30>)
 8006c4e:	f7fd f8b3 	bl	8003db8 <HAL_I2C_Mem_Write>
}
 8006c52:	bf00      	nop
 8006c54:	3708      	adds	r7, #8
 8006c56:	46bd      	mov	sp, r7
 8006c58:	bd80      	pop	{r7, pc}
 8006c5a:	bf00      	nop
 8006c5c:	2000093c 	.word	0x2000093c

08006c60 <ssd1306_Init>:

// Screen object
static SSD1306_t SSD1306;

// Initialize the oled screen
void ssd1306_Init(void) {
 8006c60:	b580      	push	{r7, lr}
 8006c62:	af00      	add	r7, sp, #0
	// Reset OLED
	ssd1306_Reset();
 8006c64:	f7ff ffc2 	bl	8006bec <ssd1306_Reset>

    // Wait for the screen to boot
    HAL_Delay(100);
 8006c68:	2064      	movs	r0, #100	; 0x64
 8006c6a:	f7fc fa17 	bl	800309c <HAL_Delay>
    
    // Init OLED
    ssd1306_WriteCommand(0xAE); //display off
 8006c6e:	20ae      	movs	r0, #174	; 0xae
 8006c70:	f7ff ffc4 	bl	8006bfc <ssd1306_WriteCommand>

    ssd1306_WriteCommand(0x20); //Set Memory Addressing Mode   
 8006c74:	2020      	movs	r0, #32
 8006c76:	f7ff ffc1 	bl	8006bfc <ssd1306_WriteCommand>
    ssd1306_WriteCommand(0x10); // 00,Horizontal Addressing Mode; 01,Vertical Addressing Mode;
 8006c7a:	2010      	movs	r0, #16
 8006c7c:	f7ff ffbe 	bl	8006bfc <ssd1306_WriteCommand>
                                // 10,Page Addressing Mode (RESET); 11,Invalid

    ssd1306_WriteCommand(0xB0); //Set Page Start Address for Page Addressing Mode,0-7
 8006c80:	20b0      	movs	r0, #176	; 0xb0
 8006c82:	f7ff ffbb 	bl	8006bfc <ssd1306_WriteCommand>

#ifdef SSD1306_MIRROR_VERT
    ssd1306_WriteCommand(0xC0); // Mirror vertically
#else
    ssd1306_WriteCommand(0xC8); //Set COM Output Scan Direction
 8006c86:	20c8      	movs	r0, #200	; 0xc8
 8006c88:	f7ff ffb8 	bl	8006bfc <ssd1306_WriteCommand>
#endif

    ssd1306_WriteCommand(0x00); //---set low column address
 8006c8c:	2000      	movs	r0, #0
 8006c8e:	f7ff ffb5 	bl	8006bfc <ssd1306_WriteCommand>
    ssd1306_WriteCommand(0x10); //---set high column address
 8006c92:	2010      	movs	r0, #16
 8006c94:	f7ff ffb2 	bl	8006bfc <ssd1306_WriteCommand>

    ssd1306_WriteCommand(0x40); //--set start line address - CHECK
 8006c98:	2040      	movs	r0, #64	; 0x40
 8006c9a:	f7ff ffaf 	bl	8006bfc <ssd1306_WriteCommand>

    ssd1306_WriteCommand(0x81); //--set contrast control register - CHECK
 8006c9e:	2081      	movs	r0, #129	; 0x81
 8006ca0:	f7ff ffac 	bl	8006bfc <ssd1306_WriteCommand>
    ssd1306_WriteCommand(0xFF);
 8006ca4:	20ff      	movs	r0, #255	; 0xff
 8006ca6:	f7ff ffa9 	bl	8006bfc <ssd1306_WriteCommand>

#ifdef SSD1306_MIRROR_HORIZ
    ssd1306_WriteCommand(0xA0); // Mirror horizontally
#else
    ssd1306_WriteCommand(0xA1); //--set segment re-map 0 to 127 - CHECK
 8006caa:	20a1      	movs	r0, #161	; 0xa1
 8006cac:	f7ff ffa6 	bl	8006bfc <ssd1306_WriteCommand>
#endif

#ifdef SSD1306_INVERSE_COLOR
    ssd1306_WriteCommand(0xA7); //--set inverse color
#else
    ssd1306_WriteCommand(0xA6); //--set normal color
 8006cb0:	20a6      	movs	r0, #166	; 0xa6
 8006cb2:	f7ff ffa3 	bl	8006bfc <ssd1306_WriteCommand>
#endif

    ssd1306_WriteCommand(0xA8); //--set multiplex ratio(1 to 64) - CHECK
 8006cb6:	20a8      	movs	r0, #168	; 0xa8
 8006cb8:	f7ff ffa0 	bl	8006bfc <ssd1306_WriteCommand>
    ssd1306_WriteCommand(0x3F); //
 8006cbc:	203f      	movs	r0, #63	; 0x3f
 8006cbe:	f7ff ff9d 	bl	8006bfc <ssd1306_WriteCommand>

    ssd1306_WriteCommand(0xA4); //0xa4,Output follows RAM content;0xa5,Output ignores RAM content
 8006cc2:	20a4      	movs	r0, #164	; 0xa4
 8006cc4:	f7ff ff9a 	bl	8006bfc <ssd1306_WriteCommand>

    ssd1306_WriteCommand(0xD3); //-set display offset - CHECK
 8006cc8:	20d3      	movs	r0, #211	; 0xd3
 8006cca:	f7ff ff97 	bl	8006bfc <ssd1306_WriteCommand>
    ssd1306_WriteCommand(0x00); //-not offset
 8006cce:	2000      	movs	r0, #0
 8006cd0:	f7ff ff94 	bl	8006bfc <ssd1306_WriteCommand>

    ssd1306_WriteCommand(0xD5); //--set display clock divide ratio/oscillator frequency
 8006cd4:	20d5      	movs	r0, #213	; 0xd5
 8006cd6:	f7ff ff91 	bl	8006bfc <ssd1306_WriteCommand>
    ssd1306_WriteCommand(0xF0); //--set divide ratio
 8006cda:	20f0      	movs	r0, #240	; 0xf0
 8006cdc:	f7ff ff8e 	bl	8006bfc <ssd1306_WriteCommand>

    ssd1306_WriteCommand(0xD9); //--set pre-charge period
 8006ce0:	20d9      	movs	r0, #217	; 0xd9
 8006ce2:	f7ff ff8b 	bl	8006bfc <ssd1306_WriteCommand>
    ssd1306_WriteCommand(0x22); //
 8006ce6:	2022      	movs	r0, #34	; 0x22
 8006ce8:	f7ff ff88 	bl	8006bfc <ssd1306_WriteCommand>

    ssd1306_WriteCommand(0xDA); //--set com pins hardware configuration - CHECK
 8006cec:	20da      	movs	r0, #218	; 0xda
 8006cee:	f7ff ff85 	bl	8006bfc <ssd1306_WriteCommand>
    ssd1306_WriteCommand(0x12);
 8006cf2:	2012      	movs	r0, #18
 8006cf4:	f7ff ff82 	bl	8006bfc <ssd1306_WriteCommand>

    ssd1306_WriteCommand(0xDB); //--set vcomh
 8006cf8:	20db      	movs	r0, #219	; 0xdb
 8006cfa:	f7ff ff7f 	bl	8006bfc <ssd1306_WriteCommand>
    ssd1306_WriteCommand(0x20); //0x20,0.77xVcc
 8006cfe:	2020      	movs	r0, #32
 8006d00:	f7ff ff7c 	bl	8006bfc <ssd1306_WriteCommand>

    ssd1306_WriteCommand(0x8D); //--set DC-DC enable
 8006d04:	208d      	movs	r0, #141	; 0x8d
 8006d06:	f7ff ff79 	bl	8006bfc <ssd1306_WriteCommand>
    ssd1306_WriteCommand(0x14); //
 8006d0a:	2014      	movs	r0, #20
 8006d0c:	f7ff ff76 	bl	8006bfc <ssd1306_WriteCommand>
    ssd1306_WriteCommand(0xAF); //--turn on SSD1306 panel
 8006d10:	20af      	movs	r0, #175	; 0xaf
 8006d12:	f7ff ff73 	bl	8006bfc <ssd1306_WriteCommand>

    // Clear screen
    ssd1306_Fill(Black);
 8006d16:	2000      	movs	r0, #0
 8006d18:	f000 f810 	bl	8006d3c <ssd1306_Fill>
    
    // Flush buffer to screen
    ssd1306_UpdateScreen();
 8006d1c:	f000 f830 	bl	8006d80 <ssd1306_UpdateScreen>
    
    // Set default values for screen object
    SSD1306.CurrentX = 0;
 8006d20:	4b05      	ldr	r3, [pc, #20]	; (8006d38 <ssd1306_Init+0xd8>)
 8006d22:	2200      	movs	r2, #0
 8006d24:	801a      	strh	r2, [r3, #0]
    SSD1306.CurrentY = 0;
 8006d26:	4b04      	ldr	r3, [pc, #16]	; (8006d38 <ssd1306_Init+0xd8>)
 8006d28:	2200      	movs	r2, #0
 8006d2a:	805a      	strh	r2, [r3, #2]
    
    SSD1306.Initialized = 1;
 8006d2c:	4b02      	ldr	r3, [pc, #8]	; (8006d38 <ssd1306_Init+0xd8>)
 8006d2e:	2201      	movs	r2, #1
 8006d30:	715a      	strb	r2, [r3, #5]
}
 8006d32:	bf00      	nop
 8006d34:	bd80      	pop	{r7, pc}
 8006d36:	bf00      	nop
 8006d38:	20000910 	.word	0x20000910

08006d3c <ssd1306_Fill>:

// Fill the whole screen with the given color
void ssd1306_Fill(SSD1306_COLOR color) {
 8006d3c:	b480      	push	{r7}
 8006d3e:	b085      	sub	sp, #20
 8006d40:	af00      	add	r7, sp, #0
 8006d42:	4603      	mov	r3, r0
 8006d44:	71fb      	strb	r3, [r7, #7]
    /* Set memory */
    uint32_t i;

    for(i = 0; i < sizeof(SSD1306_Buffer); i++) {
 8006d46:	2300      	movs	r3, #0
 8006d48:	60fb      	str	r3, [r7, #12]
 8006d4a:	e00d      	b.n	8006d68 <ssd1306_Fill+0x2c>
        SSD1306_Buffer[i] = (color == Black) ? 0x00 : 0xFF;
 8006d4c:	79fb      	ldrb	r3, [r7, #7]
 8006d4e:	2b00      	cmp	r3, #0
 8006d50:	d101      	bne.n	8006d56 <ssd1306_Fill+0x1a>
 8006d52:	2100      	movs	r1, #0
 8006d54:	e000      	b.n	8006d58 <ssd1306_Fill+0x1c>
 8006d56:	21ff      	movs	r1, #255	; 0xff
 8006d58:	4a08      	ldr	r2, [pc, #32]	; (8006d7c <ssd1306_Fill+0x40>)
 8006d5a:	68fb      	ldr	r3, [r7, #12]
 8006d5c:	4413      	add	r3, r2
 8006d5e:	460a      	mov	r2, r1
 8006d60:	701a      	strb	r2, [r3, #0]
    for(i = 0; i < sizeof(SSD1306_Buffer); i++) {
 8006d62:	68fb      	ldr	r3, [r7, #12]
 8006d64:	3301      	adds	r3, #1
 8006d66:	60fb      	str	r3, [r7, #12]
 8006d68:	68fb      	ldr	r3, [r7, #12]
 8006d6a:	f5b3 6f80 	cmp.w	r3, #1024	; 0x400
 8006d6e:	d3ed      	bcc.n	8006d4c <ssd1306_Fill+0x10>
    }
}
 8006d70:	bf00      	nop
 8006d72:	3714      	adds	r7, #20
 8006d74:	46bd      	mov	sp, r7
 8006d76:	f85d 7b04 	ldr.w	r7, [sp], #4
 8006d7a:	4770      	bx	lr
 8006d7c:	20000510 	.word	0x20000510

08006d80 <ssd1306_UpdateScreen>:

// Write the screenbuffer with changed to the screen
void ssd1306_UpdateScreen(void) {
 8006d80:	b580      	push	{r7, lr}
 8006d82:	b082      	sub	sp, #8
 8006d84:	af00      	add	r7, sp, #0
    uint8_t i;
    for(i = 0; i < 8; i++) {
 8006d86:	2300      	movs	r3, #0
 8006d88:	71fb      	strb	r3, [r7, #7]
 8006d8a:	e016      	b.n	8006dba <ssd1306_UpdateScreen+0x3a>
        ssd1306_WriteCommand(0xB0 + i);
 8006d8c:	79fb      	ldrb	r3, [r7, #7]
 8006d8e:	3b50      	subs	r3, #80	; 0x50
 8006d90:	b2db      	uxtb	r3, r3
 8006d92:	4618      	mov	r0, r3
 8006d94:	f7ff ff32 	bl	8006bfc <ssd1306_WriteCommand>
        ssd1306_WriteCommand(0x00);
 8006d98:	2000      	movs	r0, #0
 8006d9a:	f7ff ff2f 	bl	8006bfc <ssd1306_WriteCommand>
        ssd1306_WriteCommand(0x10);
 8006d9e:	2010      	movs	r0, #16
 8006da0:	f7ff ff2c 	bl	8006bfc <ssd1306_WriteCommand>
        ssd1306_WriteData(&SSD1306_Buffer[SSD1306_WIDTH*i],SSD1306_WIDTH);
 8006da4:	79fb      	ldrb	r3, [r7, #7]
 8006da6:	01db      	lsls	r3, r3, #7
 8006da8:	4a07      	ldr	r2, [pc, #28]	; (8006dc8 <ssd1306_UpdateScreen+0x48>)
 8006daa:	4413      	add	r3, r2
 8006dac:	2180      	movs	r1, #128	; 0x80
 8006dae:	4618      	mov	r0, r3
 8006db0:	f7ff ff3c 	bl	8006c2c <ssd1306_WriteData>
    for(i = 0; i < 8; i++) {
 8006db4:	79fb      	ldrb	r3, [r7, #7]
 8006db6:	3301      	adds	r3, #1
 8006db8:	71fb      	strb	r3, [r7, #7]
 8006dba:	79fb      	ldrb	r3, [r7, #7]
 8006dbc:	2b07      	cmp	r3, #7
 8006dbe:	d9e5      	bls.n	8006d8c <ssd1306_UpdateScreen+0xc>
    }
}
 8006dc0:	bf00      	nop
 8006dc2:	3708      	adds	r7, #8
 8006dc4:	46bd      	mov	sp, r7
 8006dc6:	bd80      	pop	{r7, pc}
 8006dc8:	20000510 	.word	0x20000510

08006dcc <ssd1306_DrawPixel>:

//    Draw one pixel in the screenbuffer
//    X => X Coordinate
//    Y => Y Coordinate
//    color => Pixel color
void ssd1306_DrawPixel(uint8_t x, uint8_t y, SSD1306_COLOR color) {
 8006dcc:	b480      	push	{r7}
 8006dce:	b083      	sub	sp, #12
 8006dd0:	af00      	add	r7, sp, #0
 8006dd2:	4603      	mov	r3, r0
 8006dd4:	71fb      	strb	r3, [r7, #7]
 8006dd6:	460b      	mov	r3, r1
 8006dd8:	71bb      	strb	r3, [r7, #6]
 8006dda:	4613      	mov	r3, r2
 8006ddc:	717b      	strb	r3, [r7, #5]
    if(x >= SSD1306_WIDTH || y >= SSD1306_HEIGHT) {
 8006dde:	f997 3007 	ldrsb.w	r3, [r7, #7]
 8006de2:	2b00      	cmp	r3, #0
 8006de4:	db48      	blt.n	8006e78 <ssd1306_DrawPixel+0xac>
 8006de6:	79bb      	ldrb	r3, [r7, #6]
 8006de8:	2b3f      	cmp	r3, #63	; 0x3f
 8006dea:	d845      	bhi.n	8006e78 <ssd1306_DrawPixel+0xac>
        // Don't write outside the buffer
        return;
    }
    
    // Check if pixel should be inverted
    if(SSD1306.Inverted) {
 8006dec:	4b25      	ldr	r3, [pc, #148]	; (8006e84 <ssd1306_DrawPixel+0xb8>)
 8006dee:	791b      	ldrb	r3, [r3, #4]
 8006df0:	2b00      	cmp	r3, #0
 8006df2:	d006      	beq.n	8006e02 <ssd1306_DrawPixel+0x36>
        color = (SSD1306_COLOR)!color;
 8006df4:	797b      	ldrb	r3, [r7, #5]
 8006df6:	2b00      	cmp	r3, #0
 8006df8:	bf0c      	ite	eq
 8006dfa:	2301      	moveq	r3, #1
 8006dfc:	2300      	movne	r3, #0
 8006dfe:	b2db      	uxtb	r3, r3
 8006e00:	717b      	strb	r3, [r7, #5]
    }
    
    // Draw in the right color
    if(color == White) {
 8006e02:	797b      	ldrb	r3, [r7, #5]
 8006e04:	2b01      	cmp	r3, #1
 8006e06:	d11a      	bne.n	8006e3e <ssd1306_DrawPixel+0x72>
        SSD1306_Buffer[x + (y / 8) * SSD1306_WIDTH] |= 1 << (y % 8);
 8006e08:	79fa      	ldrb	r2, [r7, #7]
 8006e0a:	79bb      	ldrb	r3, [r7, #6]
 8006e0c:	08db      	lsrs	r3, r3, #3
 8006e0e:	b2d8      	uxtb	r0, r3
 8006e10:	4603      	mov	r3, r0
 8006e12:	01db      	lsls	r3, r3, #7
 8006e14:	4413      	add	r3, r2
 8006e16:	4a1c      	ldr	r2, [pc, #112]	; (8006e88 <ssd1306_DrawPixel+0xbc>)
 8006e18:	5cd3      	ldrb	r3, [r2, r3]
 8006e1a:	b25a      	sxtb	r2, r3
 8006e1c:	79bb      	ldrb	r3, [r7, #6]
 8006e1e:	f003 0307 	and.w	r3, r3, #7
 8006e22:	2101      	movs	r1, #1
 8006e24:	fa01 f303 	lsl.w	r3, r1, r3
 8006e28:	b25b      	sxtb	r3, r3
 8006e2a:	4313      	orrs	r3, r2
 8006e2c:	b259      	sxtb	r1, r3
 8006e2e:	79fa      	ldrb	r2, [r7, #7]
 8006e30:	4603      	mov	r3, r0
 8006e32:	01db      	lsls	r3, r3, #7
 8006e34:	4413      	add	r3, r2
 8006e36:	b2c9      	uxtb	r1, r1
 8006e38:	4a13      	ldr	r2, [pc, #76]	; (8006e88 <ssd1306_DrawPixel+0xbc>)
 8006e3a:	54d1      	strb	r1, [r2, r3]
 8006e3c:	e01d      	b.n	8006e7a <ssd1306_DrawPixel+0xae>
    } else { 
        SSD1306_Buffer[x + (y / 8) * SSD1306_WIDTH] &= ~(1 << (y % 8));
 8006e3e:	79fa      	ldrb	r2, [r7, #7]
 8006e40:	79bb      	ldrb	r3, [r7, #6]
 8006e42:	08db      	lsrs	r3, r3, #3
 8006e44:	b2d8      	uxtb	r0, r3
 8006e46:	4603      	mov	r3, r0
 8006e48:	01db      	lsls	r3, r3, #7
 8006e4a:	4413      	add	r3, r2
 8006e4c:	4a0e      	ldr	r2, [pc, #56]	; (8006e88 <ssd1306_DrawPixel+0xbc>)
 8006e4e:	5cd3      	ldrb	r3, [r2, r3]
 8006e50:	b25a      	sxtb	r2, r3
 8006e52:	79bb      	ldrb	r3, [r7, #6]
 8006e54:	f003 0307 	and.w	r3, r3, #7
 8006e58:	2101      	movs	r1, #1
 8006e5a:	fa01 f303 	lsl.w	r3, r1, r3
 8006e5e:	b25b      	sxtb	r3, r3
 8006e60:	43db      	mvns	r3, r3
 8006e62:	b25b      	sxtb	r3, r3
 8006e64:	4013      	ands	r3, r2
 8006e66:	b259      	sxtb	r1, r3
 8006e68:	79fa      	ldrb	r2, [r7, #7]
 8006e6a:	4603      	mov	r3, r0
 8006e6c:	01db      	lsls	r3, r3, #7
 8006e6e:	4413      	add	r3, r2
 8006e70:	b2c9      	uxtb	r1, r1
 8006e72:	4a05      	ldr	r2, [pc, #20]	; (8006e88 <ssd1306_DrawPixel+0xbc>)
 8006e74:	54d1      	strb	r1, [r2, r3]
 8006e76:	e000      	b.n	8006e7a <ssd1306_DrawPixel+0xae>
        return;
 8006e78:	bf00      	nop
    }
}
 8006e7a:	370c      	adds	r7, #12
 8006e7c:	46bd      	mov	sp, r7
 8006e7e:	f85d 7b04 	ldr.w	r7, [sp], #4
 8006e82:	4770      	bx	lr
 8006e84:	20000910 	.word	0x20000910
 8006e88:	20000510 	.word	0x20000510

08006e8c <ssd1306_WriteChar>:

// Draw 1 char to the screen buffer
// ch         => char om weg te schrijven
// Font     => Font waarmee we gaan schrijven
// color     => Black or White
char ssd1306_WriteChar(char ch, FontDef Font, SSD1306_COLOR color) {
 8006e8c:	b590      	push	{r4, r7, lr}
 8006e8e:	b089      	sub	sp, #36	; 0x24
 8006e90:	af00      	add	r7, sp, #0
 8006e92:	4604      	mov	r4, r0
 8006e94:	1d38      	adds	r0, r7, #4
 8006e96:	e880 0006 	stmia.w	r0, {r1, r2}
 8006e9a:	461a      	mov	r2, r3
 8006e9c:	4623      	mov	r3, r4
 8006e9e:	73fb      	strb	r3, [r7, #15]
 8006ea0:	4613      	mov	r3, r2
 8006ea2:	73bb      	strb	r3, [r7, #14]
    uint32_t i, b, j;
    
    // Check remaining space on current line
    if (SSD1306_WIDTH <= (SSD1306.CurrentX + Font.FontWidth) ||
 8006ea4:	4b38      	ldr	r3, [pc, #224]	; (8006f88 <ssd1306_WriteChar+0xfc>)
 8006ea6:	881b      	ldrh	r3, [r3, #0]
 8006ea8:	461a      	mov	r2, r3
 8006eaa:	793b      	ldrb	r3, [r7, #4]
 8006eac:	4413      	add	r3, r2
 8006eae:	2b7f      	cmp	r3, #127	; 0x7f
 8006eb0:	dc06      	bgt.n	8006ec0 <ssd1306_WriteChar+0x34>
        SSD1306_HEIGHT <= (SSD1306.CurrentY + Font.FontHeight))
 8006eb2:	4b35      	ldr	r3, [pc, #212]	; (8006f88 <ssd1306_WriteChar+0xfc>)
 8006eb4:	885b      	ldrh	r3, [r3, #2]
 8006eb6:	461a      	mov	r2, r3
 8006eb8:	797b      	ldrb	r3, [r7, #5]
 8006eba:	4413      	add	r3, r2
    if (SSD1306_WIDTH <= (SSD1306.CurrentX + Font.FontWidth) ||
 8006ebc:	2b3f      	cmp	r3, #63	; 0x3f
 8006ebe:	dd01      	ble.n	8006ec4 <ssd1306_WriteChar+0x38>
    {
        // Not enough space on current line
        return 0;
 8006ec0:	2300      	movs	r3, #0
 8006ec2:	e05d      	b.n	8006f80 <ssd1306_WriteChar+0xf4>
    }
    
    // Use the font to write
    for(i = 0; i < Font.FontHeight; i++) {
 8006ec4:	2300      	movs	r3, #0
 8006ec6:	61fb      	str	r3, [r7, #28]
 8006ec8:	e04c      	b.n	8006f64 <ssd1306_WriteChar+0xd8>
        b = Font.data[(ch - 32) * Font.FontHeight + i];
 8006eca:	68ba      	ldr	r2, [r7, #8]
 8006ecc:	7bfb      	ldrb	r3, [r7, #15]
 8006ece:	3b20      	subs	r3, #32
 8006ed0:	7979      	ldrb	r1, [r7, #5]
 8006ed2:	fb01 f303 	mul.w	r3, r1, r3
 8006ed6:	4619      	mov	r1, r3
 8006ed8:	69fb      	ldr	r3, [r7, #28]
 8006eda:	440b      	add	r3, r1
 8006edc:	005b      	lsls	r3, r3, #1
 8006ede:	4413      	add	r3, r2
 8006ee0:	881b      	ldrh	r3, [r3, #0]
 8006ee2:	617b      	str	r3, [r7, #20]
        for(j = 0; j < Font.FontWidth; j++) {
 8006ee4:	2300      	movs	r3, #0
 8006ee6:	61bb      	str	r3, [r7, #24]
 8006ee8:	e034      	b.n	8006f54 <ssd1306_WriteChar+0xc8>
            if((b << j) & 0x8000)  {
 8006eea:	697a      	ldr	r2, [r7, #20]
 8006eec:	69bb      	ldr	r3, [r7, #24]
 8006eee:	fa02 f303 	lsl.w	r3, r2, r3
 8006ef2:	f403 4300 	and.w	r3, r3, #32768	; 0x8000
 8006ef6:	2b00      	cmp	r3, #0
 8006ef8:	d012      	beq.n	8006f20 <ssd1306_WriteChar+0x94>
                ssd1306_DrawPixel(SSD1306.CurrentX + j, (SSD1306.CurrentY + i), (SSD1306_COLOR) color);
 8006efa:	4b23      	ldr	r3, [pc, #140]	; (8006f88 <ssd1306_WriteChar+0xfc>)
 8006efc:	881b      	ldrh	r3, [r3, #0]
 8006efe:	b2da      	uxtb	r2, r3
 8006f00:	69bb      	ldr	r3, [r7, #24]
 8006f02:	b2db      	uxtb	r3, r3
 8006f04:	4413      	add	r3, r2
 8006f06:	b2d8      	uxtb	r0, r3
 8006f08:	4b1f      	ldr	r3, [pc, #124]	; (8006f88 <ssd1306_WriteChar+0xfc>)
 8006f0a:	885b      	ldrh	r3, [r3, #2]
 8006f0c:	b2da      	uxtb	r2, r3
 8006f0e:	69fb      	ldr	r3, [r7, #28]
 8006f10:	b2db      	uxtb	r3, r3
 8006f12:	4413      	add	r3, r2
 8006f14:	b2db      	uxtb	r3, r3
 8006f16:	7bba      	ldrb	r2, [r7, #14]
 8006f18:	4619      	mov	r1, r3
 8006f1a:	f7ff ff57 	bl	8006dcc <ssd1306_DrawPixel>
 8006f1e:	e016      	b.n	8006f4e <ssd1306_WriteChar+0xc2>
            } else {
                ssd1306_DrawPixel(SSD1306.CurrentX + j, (SSD1306.CurrentY + i), (SSD1306_COLOR)!color);
 8006f20:	4b19      	ldr	r3, [pc, #100]	; (8006f88 <ssd1306_WriteChar+0xfc>)
 8006f22:	881b      	ldrh	r3, [r3, #0]
 8006f24:	b2da      	uxtb	r2, r3
 8006f26:	69bb      	ldr	r3, [r7, #24]
 8006f28:	b2db      	uxtb	r3, r3
 8006f2a:	4413      	add	r3, r2
 8006f2c:	b2d8      	uxtb	r0, r3
 8006f2e:	4b16      	ldr	r3, [pc, #88]	; (8006f88 <ssd1306_WriteChar+0xfc>)
 8006f30:	885b      	ldrh	r3, [r3, #2]
 8006f32:	b2da      	uxtb	r2, r3
 8006f34:	69fb      	ldr	r3, [r7, #28]
 8006f36:	b2db      	uxtb	r3, r3
 8006f38:	4413      	add	r3, r2
 8006f3a:	b2d9      	uxtb	r1, r3
 8006f3c:	7bbb      	ldrb	r3, [r7, #14]
 8006f3e:	2b00      	cmp	r3, #0
 8006f40:	bf0c      	ite	eq
 8006f42:	2301      	moveq	r3, #1
 8006f44:	2300      	movne	r3, #0
 8006f46:	b2db      	uxtb	r3, r3
 8006f48:	461a      	mov	r2, r3
 8006f4a:	f7ff ff3f 	bl	8006dcc <ssd1306_DrawPixel>
        for(j = 0; j < Font.FontWidth; j++) {
 8006f4e:	69bb      	ldr	r3, [r7, #24]
 8006f50:	3301      	adds	r3, #1
 8006f52:	61bb      	str	r3, [r7, #24]
 8006f54:	793b      	ldrb	r3, [r7, #4]
 8006f56:	461a      	mov	r2, r3
 8006f58:	69bb      	ldr	r3, [r7, #24]
 8006f5a:	4293      	cmp	r3, r2
 8006f5c:	d3c5      	bcc.n	8006eea <ssd1306_WriteChar+0x5e>
    for(i = 0; i < Font.FontHeight; i++) {
 8006f5e:	69fb      	ldr	r3, [r7, #28]
 8006f60:	3301      	adds	r3, #1
 8006f62:	61fb      	str	r3, [r7, #28]
 8006f64:	797b      	ldrb	r3, [r7, #5]
 8006f66:	461a      	mov	r2, r3
 8006f68:	69fb      	ldr	r3, [r7, #28]
 8006f6a:	4293      	cmp	r3, r2
 8006f6c:	d3ad      	bcc.n	8006eca <ssd1306_WriteChar+0x3e>
            }
        }
    }
    
    // The current space is now taken
    SSD1306.CurrentX += Font.FontWidth;
 8006f6e:	4b06      	ldr	r3, [pc, #24]	; (8006f88 <ssd1306_WriteChar+0xfc>)
 8006f70:	881a      	ldrh	r2, [r3, #0]
 8006f72:	793b      	ldrb	r3, [r7, #4]
 8006f74:	b29b      	uxth	r3, r3
 8006f76:	4413      	add	r3, r2
 8006f78:	b29a      	uxth	r2, r3
 8006f7a:	4b03      	ldr	r3, [pc, #12]	; (8006f88 <ssd1306_WriteChar+0xfc>)
 8006f7c:	801a      	strh	r2, [r3, #0]
    
    // Return written char for validation
    return ch;
 8006f7e:	7bfb      	ldrb	r3, [r7, #15]
}
 8006f80:	4618      	mov	r0, r3
 8006f82:	3724      	adds	r7, #36	; 0x24
 8006f84:	46bd      	mov	sp, r7
 8006f86:	bd90      	pop	{r4, r7, pc}
 8006f88:	20000910 	.word	0x20000910

08006f8c <ssd1306_WriteString>:

// Write full string to screenbuffer
char ssd1306_WriteString(char* str, FontDef Font, SSD1306_COLOR color) {
 8006f8c:	b580      	push	{r7, lr}
 8006f8e:	b084      	sub	sp, #16
 8006f90:	af00      	add	r7, sp, #0
 8006f92:	60f8      	str	r0, [r7, #12]
 8006f94:	1d38      	adds	r0, r7, #4
 8006f96:	e880 0006 	stmia.w	r0, {r1, r2}
 8006f9a:	70fb      	strb	r3, [r7, #3]
    // Write until null-byte
    while (*str) {
 8006f9c:	e012      	b.n	8006fc4 <ssd1306_WriteString+0x38>
        if (ssd1306_WriteChar(*str, Font, color) != *str) {
 8006f9e:	68fb      	ldr	r3, [r7, #12]
 8006fa0:	7818      	ldrb	r0, [r3, #0]
 8006fa2:	78fb      	ldrb	r3, [r7, #3]
 8006fa4:	1d3a      	adds	r2, r7, #4
 8006fa6:	ca06      	ldmia	r2, {r1, r2}
 8006fa8:	f7ff ff70 	bl	8006e8c <ssd1306_WriteChar>
 8006fac:	4603      	mov	r3, r0
 8006fae:	461a      	mov	r2, r3
 8006fb0:	68fb      	ldr	r3, [r7, #12]
 8006fb2:	781b      	ldrb	r3, [r3, #0]
 8006fb4:	429a      	cmp	r2, r3
 8006fb6:	d002      	beq.n	8006fbe <ssd1306_WriteString+0x32>
            // Char could not be written
            return *str;
 8006fb8:	68fb      	ldr	r3, [r7, #12]
 8006fba:	781b      	ldrb	r3, [r3, #0]
 8006fbc:	e008      	b.n	8006fd0 <ssd1306_WriteString+0x44>
        }
        
        // Next char
        str++;
 8006fbe:	68fb      	ldr	r3, [r7, #12]
 8006fc0:	3301      	adds	r3, #1
 8006fc2:	60fb      	str	r3, [r7, #12]
    while (*str) {
 8006fc4:	68fb      	ldr	r3, [r7, #12]
 8006fc6:	781b      	ldrb	r3, [r3, #0]
 8006fc8:	2b00      	cmp	r3, #0
 8006fca:	d1e8      	bne.n	8006f9e <ssd1306_WriteString+0x12>
    }
    
    // Everything ok
    return *str;
 8006fcc:	68fb      	ldr	r3, [r7, #12]
 8006fce:	781b      	ldrb	r3, [r3, #0]
}
 8006fd0:	4618      	mov	r0, r3
 8006fd2:	3710      	adds	r7, #16
 8006fd4:	46bd      	mov	sp, r7
 8006fd6:	bd80      	pop	{r7, pc}

08006fd8 <ssd1306_SetCursor>:

// Position the cursor
void ssd1306_SetCursor(uint8_t x, uint8_t y) {
 8006fd8:	b480      	push	{r7}
 8006fda:	b083      	sub	sp, #12
 8006fdc:	af00      	add	r7, sp, #0
 8006fde:	4603      	mov	r3, r0
 8006fe0:	460a      	mov	r2, r1
 8006fe2:	71fb      	strb	r3, [r7, #7]
 8006fe4:	4613      	mov	r3, r2
 8006fe6:	71bb      	strb	r3, [r7, #6]
    SSD1306.CurrentX = x;
 8006fe8:	79fb      	ldrb	r3, [r7, #7]
 8006fea:	b29a      	uxth	r2, r3
 8006fec:	4b05      	ldr	r3, [pc, #20]	; (8007004 <ssd1306_SetCursor+0x2c>)
 8006fee:	801a      	strh	r2, [r3, #0]
    SSD1306.CurrentY = y;
 8006ff0:	79bb      	ldrb	r3, [r7, #6]
 8006ff2:	b29a      	uxth	r2, r3
 8006ff4:	4b03      	ldr	r3, [pc, #12]	; (8007004 <ssd1306_SetCursor+0x2c>)
 8006ff6:	805a      	strh	r2, [r3, #2]
}
 8006ff8:	bf00      	nop
 8006ffa:	370c      	adds	r7, #12
 8006ffc:	46bd      	mov	sp, r7
 8006ffe:	f85d 7b04 	ldr.w	r7, [sp], #4
 8007002:	4770      	bx	lr
 8007004:	20000910 	.word	0x20000910

08007008 <__errno>:
 8007008:	4b01      	ldr	r3, [pc, #4]	; (8007010 <__errno+0x8>)
 800700a:	6818      	ldr	r0, [r3, #0]
 800700c:	4770      	bx	lr
 800700e:	bf00      	nop
 8007010:	200002f8 	.word	0x200002f8

08007014 <__libc_init_array>:
 8007014:	b570      	push	{r4, r5, r6, lr}
 8007016:	4e0d      	ldr	r6, [pc, #52]	; (800704c <__libc_init_array+0x38>)
 8007018:	4c0d      	ldr	r4, [pc, #52]	; (8007050 <__libc_init_array+0x3c>)
 800701a:	1ba4      	subs	r4, r4, r6
 800701c:	10a4      	asrs	r4, r4, #2
 800701e:	2500      	movs	r5, #0
 8007020:	42a5      	cmp	r5, r4
 8007022:	d109      	bne.n	8007038 <__libc_init_array+0x24>
 8007024:	4e0b      	ldr	r6, [pc, #44]	; (8007054 <__libc_init_array+0x40>)
 8007026:	4c0c      	ldr	r4, [pc, #48]	; (8007058 <__libc_init_array+0x44>)
 8007028:	f002 f8bc 	bl	80091a4 <_init>
 800702c:	1ba4      	subs	r4, r4, r6
 800702e:	10a4      	asrs	r4, r4, #2
 8007030:	2500      	movs	r5, #0
 8007032:	42a5      	cmp	r5, r4
 8007034:	d105      	bne.n	8007042 <__libc_init_array+0x2e>
 8007036:	bd70      	pop	{r4, r5, r6, pc}
 8007038:	f856 3025 	ldr.w	r3, [r6, r5, lsl #2]
 800703c:	4798      	blx	r3
 800703e:	3501      	adds	r5, #1
 8007040:	e7ee      	b.n	8007020 <__libc_init_array+0xc>
 8007042:	f856 3025 	ldr.w	r3, [r6, r5, lsl #2]
 8007046:	4798      	blx	r3
 8007048:	3501      	adds	r5, #1
 800704a:	e7f2      	b.n	8007032 <__libc_init_array+0x1e>
 800704c:	0800c030 	.word	0x0800c030
 8007050:	0800c030 	.word	0x0800c030
 8007054:	0800c030 	.word	0x0800c030
 8007058:	0800c034 	.word	0x0800c034

0800705c <memmove>:
 800705c:	4288      	cmp	r0, r1
 800705e:	b510      	push	{r4, lr}
 8007060:	eb01 0302 	add.w	r3, r1, r2
 8007064:	d807      	bhi.n	8007076 <memmove+0x1a>
 8007066:	1e42      	subs	r2, r0, #1
 8007068:	4299      	cmp	r1, r3
 800706a:	d00a      	beq.n	8007082 <memmove+0x26>
 800706c:	f811 4b01 	ldrb.w	r4, [r1], #1
 8007070:	f802 4f01 	strb.w	r4, [r2, #1]!
 8007074:	e7f8      	b.n	8007068 <memmove+0xc>
 8007076:	4283      	cmp	r3, r0
 8007078:	d9f5      	bls.n	8007066 <memmove+0xa>
 800707a:	1881      	adds	r1, r0, r2
 800707c:	1ad2      	subs	r2, r2, r3
 800707e:	42d3      	cmn	r3, r2
 8007080:	d100      	bne.n	8007084 <memmove+0x28>
 8007082:	bd10      	pop	{r4, pc}
 8007084:	f813 4d01 	ldrb.w	r4, [r3, #-1]!
 8007088:	f801 4d01 	strb.w	r4, [r1, #-1]!
 800708c:	e7f7      	b.n	800707e <memmove+0x22>

0800708e <memset>:
 800708e:	4402      	add	r2, r0
 8007090:	4603      	mov	r3, r0
 8007092:	4293      	cmp	r3, r2
 8007094:	d100      	bne.n	8007098 <memset+0xa>
 8007096:	4770      	bx	lr
 8007098:	f803 1b01 	strb.w	r1, [r3], #1
 800709c:	e7f9      	b.n	8007092 <memset+0x4>

0800709e <__cvt>:
 800709e:	e92d 47ff 	stmdb	sp!, {r0, r1, r2, r3, r4, r5, r6, r7, r8, r9, sl, lr}
 80070a2:	ec55 4b10 	vmov	r4, r5, d0
 80070a6:	9f0d      	ldr	r7, [sp, #52]	; 0x34
 80070a8:	f8dd a030 	ldr.w	sl, [sp, #48]	; 0x30
 80070ac:	2d00      	cmp	r5, #0
 80070ae:	460e      	mov	r6, r1
 80070b0:	4691      	mov	r9, r2
 80070b2:	4619      	mov	r1, r3
 80070b4:	bfb8      	it	lt
 80070b6:	4622      	movlt	r2, r4
 80070b8:	462b      	mov	r3, r5
 80070ba:	f027 0720 	bic.w	r7, r7, #32
 80070be:	bfbb      	ittet	lt
 80070c0:	f105 4300 	addlt.w	r3, r5, #2147483648	; 0x80000000
 80070c4:	461d      	movlt	r5, r3
 80070c6:	2300      	movge	r3, #0
 80070c8:	232d      	movlt	r3, #45	; 0x2d
 80070ca:	bfb8      	it	lt
 80070cc:	4614      	movlt	r4, r2
 80070ce:	2f46      	cmp	r7, #70	; 0x46
 80070d0:	700b      	strb	r3, [r1, #0]
 80070d2:	d004      	beq.n	80070de <__cvt+0x40>
 80070d4:	2f45      	cmp	r7, #69	; 0x45
 80070d6:	d100      	bne.n	80070da <__cvt+0x3c>
 80070d8:	3601      	adds	r6, #1
 80070da:	2102      	movs	r1, #2
 80070dc:	e000      	b.n	80070e0 <__cvt+0x42>
 80070de:	2103      	movs	r1, #3
 80070e0:	ab03      	add	r3, sp, #12
 80070e2:	9301      	str	r3, [sp, #4]
 80070e4:	ab02      	add	r3, sp, #8
 80070e6:	9300      	str	r3, [sp, #0]
 80070e8:	4632      	mov	r2, r6
 80070ea:	4653      	mov	r3, sl
 80070ec:	ec45 4b10 	vmov	d0, r4, r5
 80070f0:	f000 fcf2 	bl	8007ad8 <_dtoa_r>
 80070f4:	2f47      	cmp	r7, #71	; 0x47
 80070f6:	4680      	mov	r8, r0
 80070f8:	d102      	bne.n	8007100 <__cvt+0x62>
 80070fa:	f019 0f01 	tst.w	r9, #1
 80070fe:	d026      	beq.n	800714e <__cvt+0xb0>
 8007100:	2f46      	cmp	r7, #70	; 0x46
 8007102:	eb08 0906 	add.w	r9, r8, r6
 8007106:	d111      	bne.n	800712c <__cvt+0x8e>
 8007108:	f898 3000 	ldrb.w	r3, [r8]
 800710c:	2b30      	cmp	r3, #48	; 0x30
 800710e:	d10a      	bne.n	8007126 <__cvt+0x88>
 8007110:	2200      	movs	r2, #0
 8007112:	2300      	movs	r3, #0
 8007114:	4620      	mov	r0, r4
 8007116:	4629      	mov	r1, r5
 8007118:	f7f9 fcd6 	bl	8000ac8 <__aeabi_dcmpeq>
 800711c:	b918      	cbnz	r0, 8007126 <__cvt+0x88>
 800711e:	f1c6 0601 	rsb	r6, r6, #1
 8007122:	f8ca 6000 	str.w	r6, [sl]
 8007126:	f8da 3000 	ldr.w	r3, [sl]
 800712a:	4499      	add	r9, r3
 800712c:	2200      	movs	r2, #0
 800712e:	2300      	movs	r3, #0
 8007130:	4620      	mov	r0, r4
 8007132:	4629      	mov	r1, r5
 8007134:	f7f9 fcc8 	bl	8000ac8 <__aeabi_dcmpeq>
 8007138:	b938      	cbnz	r0, 800714a <__cvt+0xac>
 800713a:	2230      	movs	r2, #48	; 0x30
 800713c:	9b03      	ldr	r3, [sp, #12]
 800713e:	454b      	cmp	r3, r9
 8007140:	d205      	bcs.n	800714e <__cvt+0xb0>
 8007142:	1c59      	adds	r1, r3, #1
 8007144:	9103      	str	r1, [sp, #12]
 8007146:	701a      	strb	r2, [r3, #0]
 8007148:	e7f8      	b.n	800713c <__cvt+0x9e>
 800714a:	f8cd 900c 	str.w	r9, [sp, #12]
 800714e:	9b03      	ldr	r3, [sp, #12]
 8007150:	9a0e      	ldr	r2, [sp, #56]	; 0x38
 8007152:	eba3 0308 	sub.w	r3, r3, r8
 8007156:	4640      	mov	r0, r8
 8007158:	6013      	str	r3, [r2, #0]
 800715a:	b004      	add	sp, #16
 800715c:	e8bd 87f0 	ldmia.w	sp!, {r4, r5, r6, r7, r8, r9, sl, pc}

08007160 <__exponent>:
 8007160:	b5f7      	push	{r0, r1, r2, r4, r5, r6, r7, lr}
 8007162:	2900      	cmp	r1, #0
 8007164:	4604      	mov	r4, r0
 8007166:	bfba      	itte	lt
 8007168:	4249      	neglt	r1, r1
 800716a:	232d      	movlt	r3, #45	; 0x2d
 800716c:	232b      	movge	r3, #43	; 0x2b
 800716e:	2909      	cmp	r1, #9
 8007170:	f804 2b02 	strb.w	r2, [r4], #2
 8007174:	7043      	strb	r3, [r0, #1]
 8007176:	dd20      	ble.n	80071ba <__exponent+0x5a>
 8007178:	f10d 0307 	add.w	r3, sp, #7
 800717c:	461f      	mov	r7, r3
 800717e:	260a      	movs	r6, #10
 8007180:	fb91 f5f6 	sdiv	r5, r1, r6
 8007184:	fb06 1115 	mls	r1, r6, r5, r1
 8007188:	3130      	adds	r1, #48	; 0x30
 800718a:	2d09      	cmp	r5, #9
 800718c:	f803 1c01 	strb.w	r1, [r3, #-1]
 8007190:	f103 32ff 	add.w	r2, r3, #4294967295
 8007194:	4629      	mov	r1, r5
 8007196:	dc09      	bgt.n	80071ac <__exponent+0x4c>
 8007198:	3130      	adds	r1, #48	; 0x30
 800719a:	3b02      	subs	r3, #2
 800719c:	f802 1c01 	strb.w	r1, [r2, #-1]
 80071a0:	42bb      	cmp	r3, r7
 80071a2:	4622      	mov	r2, r4
 80071a4:	d304      	bcc.n	80071b0 <__exponent+0x50>
 80071a6:	1a10      	subs	r0, r2, r0
 80071a8:	b003      	add	sp, #12
 80071aa:	bdf0      	pop	{r4, r5, r6, r7, pc}
 80071ac:	4613      	mov	r3, r2
 80071ae:	e7e7      	b.n	8007180 <__exponent+0x20>
 80071b0:	f813 2b01 	ldrb.w	r2, [r3], #1
 80071b4:	f804 2b01 	strb.w	r2, [r4], #1
 80071b8:	e7f2      	b.n	80071a0 <__exponent+0x40>
 80071ba:	2330      	movs	r3, #48	; 0x30
 80071bc:	4419      	add	r1, r3
 80071be:	7083      	strb	r3, [r0, #2]
 80071c0:	1d02      	adds	r2, r0, #4
 80071c2:	70c1      	strb	r1, [r0, #3]
 80071c4:	e7ef      	b.n	80071a6 <__exponent+0x46>
	...

080071c8 <_printf_float>:
 80071c8:	e92d 4ff0 	stmdb	sp!, {r4, r5, r6, r7, r8, r9, sl, fp, lr}
 80071cc:	b08d      	sub	sp, #52	; 0x34
 80071ce:	460c      	mov	r4, r1
 80071d0:	f8dd 8058 	ldr.w	r8, [sp, #88]	; 0x58
 80071d4:	4616      	mov	r6, r2
 80071d6:	461f      	mov	r7, r3
 80071d8:	4605      	mov	r5, r0
 80071da:	f001 fa35 	bl	8008648 <_localeconv_r>
 80071de:	6803      	ldr	r3, [r0, #0]
 80071e0:	9304      	str	r3, [sp, #16]
 80071e2:	4618      	mov	r0, r3
 80071e4:	f7f8 fff4 	bl	80001d0 <strlen>
 80071e8:	2300      	movs	r3, #0
 80071ea:	930a      	str	r3, [sp, #40]	; 0x28
 80071ec:	f8d8 3000 	ldr.w	r3, [r8]
 80071f0:	9005      	str	r0, [sp, #20]
 80071f2:	3307      	adds	r3, #7
 80071f4:	f023 0307 	bic.w	r3, r3, #7
 80071f8:	f103 0208 	add.w	r2, r3, #8
 80071fc:	f894 a018 	ldrb.w	sl, [r4, #24]
 8007200:	f8d4 b000 	ldr.w	fp, [r4]
 8007204:	f8c8 2000 	str.w	r2, [r8]
 8007208:	e9d3 2300 	ldrd	r2, r3, [r3]
 800720c:	e9c4 2312 	strd	r2, r3, [r4, #72]	; 0x48
 8007210:	e9d4 8912 	ldrd	r8, r9, [r4, #72]	; 0x48
 8007214:	f029 4300 	bic.w	r3, r9, #2147483648	; 0x80000000
 8007218:	9307      	str	r3, [sp, #28]
 800721a:	f8cd 8018 	str.w	r8, [sp, #24]
 800721e:	f04f 32ff 	mov.w	r2, #4294967295
 8007222:	4ba7      	ldr	r3, [pc, #668]	; (80074c0 <_printf_float+0x2f8>)
 8007224:	e9dd 0106 	ldrd	r0, r1, [sp, #24]
 8007228:	f7f9 fc80 	bl	8000b2c <__aeabi_dcmpun>
 800722c:	bb70      	cbnz	r0, 800728c <_printf_float+0xc4>
 800722e:	f04f 32ff 	mov.w	r2, #4294967295
 8007232:	4ba3      	ldr	r3, [pc, #652]	; (80074c0 <_printf_float+0x2f8>)
 8007234:	e9dd 0106 	ldrd	r0, r1, [sp, #24]
 8007238:	f7f9 fc5a 	bl	8000af0 <__aeabi_dcmple>
 800723c:	bb30      	cbnz	r0, 800728c <_printf_float+0xc4>
 800723e:	2200      	movs	r2, #0
 8007240:	2300      	movs	r3, #0
 8007242:	4640      	mov	r0, r8
 8007244:	4649      	mov	r1, r9
 8007246:	f7f9 fc49 	bl	8000adc <__aeabi_dcmplt>
 800724a:	b110      	cbz	r0, 8007252 <_printf_float+0x8a>
 800724c:	232d      	movs	r3, #45	; 0x2d
 800724e:	f884 3043 	strb.w	r3, [r4, #67]	; 0x43
 8007252:	4a9c      	ldr	r2, [pc, #624]	; (80074c4 <_printf_float+0x2fc>)
 8007254:	4b9c      	ldr	r3, [pc, #624]	; (80074c8 <_printf_float+0x300>)
 8007256:	f1ba 0f47 	cmp.w	sl, #71	; 0x47
 800725a:	bf8c      	ite	hi
 800725c:	4690      	movhi	r8, r2
 800725e:	4698      	movls	r8, r3
 8007260:	2303      	movs	r3, #3
 8007262:	f02b 0204 	bic.w	r2, fp, #4
 8007266:	6123      	str	r3, [r4, #16]
 8007268:	6022      	str	r2, [r4, #0]
 800726a:	f04f 0900 	mov.w	r9, #0
 800726e:	9700      	str	r7, [sp, #0]
 8007270:	4633      	mov	r3, r6
 8007272:	aa0b      	add	r2, sp, #44	; 0x2c
 8007274:	4621      	mov	r1, r4
 8007276:	4628      	mov	r0, r5
 8007278:	f000 f9e6 	bl	8007648 <_printf_common>
 800727c:	3001      	adds	r0, #1
 800727e:	f040 808d 	bne.w	800739c <_printf_float+0x1d4>
 8007282:	f04f 30ff 	mov.w	r0, #4294967295
 8007286:	b00d      	add	sp, #52	; 0x34
 8007288:	e8bd 8ff0 	ldmia.w	sp!, {r4, r5, r6, r7, r8, r9, sl, fp, pc}
 800728c:	4642      	mov	r2, r8
 800728e:	464b      	mov	r3, r9
 8007290:	4640      	mov	r0, r8
 8007292:	4649      	mov	r1, r9
 8007294:	f7f9 fc4a 	bl	8000b2c <__aeabi_dcmpun>
 8007298:	b110      	cbz	r0, 80072a0 <_printf_float+0xd8>
 800729a:	4a8c      	ldr	r2, [pc, #560]	; (80074cc <_printf_float+0x304>)
 800729c:	4b8c      	ldr	r3, [pc, #560]	; (80074d0 <_printf_float+0x308>)
 800729e:	e7da      	b.n	8007256 <_printf_float+0x8e>
 80072a0:	6861      	ldr	r1, [r4, #4]
 80072a2:	1c4b      	adds	r3, r1, #1
 80072a4:	f44b 6280 	orr.w	r2, fp, #1024	; 0x400
 80072a8:	a80a      	add	r0, sp, #40	; 0x28
 80072aa:	d13e      	bne.n	800732a <_printf_float+0x162>
 80072ac:	2306      	movs	r3, #6
 80072ae:	6063      	str	r3, [r4, #4]
 80072b0:	2300      	movs	r3, #0
 80072b2:	e9cd 0302 	strd	r0, r3, [sp, #8]
 80072b6:	ab09      	add	r3, sp, #36	; 0x24
 80072b8:	9300      	str	r3, [sp, #0]
 80072ba:	ec49 8b10 	vmov	d0, r8, r9
 80072be:	f10d 0323 	add.w	r3, sp, #35	; 0x23
 80072c2:	6022      	str	r2, [r4, #0]
 80072c4:	f8cd a004 	str.w	sl, [sp, #4]
 80072c8:	6861      	ldr	r1, [r4, #4]
 80072ca:	4628      	mov	r0, r5
 80072cc:	f7ff fee7 	bl	800709e <__cvt>
 80072d0:	f00a 03df 	and.w	r3, sl, #223	; 0xdf
 80072d4:	2b47      	cmp	r3, #71	; 0x47
 80072d6:	4680      	mov	r8, r0
 80072d8:	d109      	bne.n	80072ee <_printf_float+0x126>
 80072da:	9b09      	ldr	r3, [sp, #36]	; 0x24
 80072dc:	1cd8      	adds	r0, r3, #3
 80072de:	db02      	blt.n	80072e6 <_printf_float+0x11e>
 80072e0:	6862      	ldr	r2, [r4, #4]
 80072e2:	4293      	cmp	r3, r2
 80072e4:	dd47      	ble.n	8007376 <_printf_float+0x1ae>
 80072e6:	f1aa 0a02 	sub.w	sl, sl, #2
 80072ea:	fa5f fa8a 	uxtb.w	sl, sl
 80072ee:	f1ba 0f65 	cmp.w	sl, #101	; 0x65
 80072f2:	9909      	ldr	r1, [sp, #36]	; 0x24
 80072f4:	d824      	bhi.n	8007340 <_printf_float+0x178>
 80072f6:	3901      	subs	r1, #1
 80072f8:	4652      	mov	r2, sl
 80072fa:	f104 0050 	add.w	r0, r4, #80	; 0x50
 80072fe:	9109      	str	r1, [sp, #36]	; 0x24
 8007300:	f7ff ff2e 	bl	8007160 <__exponent>
 8007304:	9a0a      	ldr	r2, [sp, #40]	; 0x28
 8007306:	1813      	adds	r3, r2, r0
 8007308:	2a01      	cmp	r2, #1
 800730a:	4681      	mov	r9, r0
 800730c:	6123      	str	r3, [r4, #16]
 800730e:	dc02      	bgt.n	8007316 <_printf_float+0x14e>
 8007310:	6822      	ldr	r2, [r4, #0]
 8007312:	07d1      	lsls	r1, r2, #31
 8007314:	d501      	bpl.n	800731a <_printf_float+0x152>
 8007316:	3301      	adds	r3, #1
 8007318:	6123      	str	r3, [r4, #16]
 800731a:	f89d 3023 	ldrb.w	r3, [sp, #35]	; 0x23
 800731e:	2b00      	cmp	r3, #0
 8007320:	d0a5      	beq.n	800726e <_printf_float+0xa6>
 8007322:	232d      	movs	r3, #45	; 0x2d
 8007324:	f884 3043 	strb.w	r3, [r4, #67]	; 0x43
 8007328:	e7a1      	b.n	800726e <_printf_float+0xa6>
 800732a:	f1ba 0f67 	cmp.w	sl, #103	; 0x67
 800732e:	f000 8177 	beq.w	8007620 <_printf_float+0x458>
 8007332:	f1ba 0f47 	cmp.w	sl, #71	; 0x47
 8007336:	d1bb      	bne.n	80072b0 <_printf_float+0xe8>
 8007338:	2900      	cmp	r1, #0
 800733a:	d1b9      	bne.n	80072b0 <_printf_float+0xe8>
 800733c:	2301      	movs	r3, #1
 800733e:	e7b6      	b.n	80072ae <_printf_float+0xe6>
 8007340:	f1ba 0f66 	cmp.w	sl, #102	; 0x66
 8007344:	d119      	bne.n	800737a <_printf_float+0x1b2>
 8007346:	2900      	cmp	r1, #0
 8007348:	6863      	ldr	r3, [r4, #4]
 800734a:	dd0c      	ble.n	8007366 <_printf_float+0x19e>
 800734c:	6121      	str	r1, [r4, #16]
 800734e:	b913      	cbnz	r3, 8007356 <_printf_float+0x18e>
 8007350:	6822      	ldr	r2, [r4, #0]
 8007352:	07d2      	lsls	r2, r2, #31
 8007354:	d502      	bpl.n	800735c <_printf_float+0x194>
 8007356:	3301      	adds	r3, #1
 8007358:	440b      	add	r3, r1
 800735a:	6123      	str	r3, [r4, #16]
 800735c:	9b09      	ldr	r3, [sp, #36]	; 0x24
 800735e:	65a3      	str	r3, [r4, #88]	; 0x58
 8007360:	f04f 0900 	mov.w	r9, #0
 8007364:	e7d9      	b.n	800731a <_printf_float+0x152>
 8007366:	b913      	cbnz	r3, 800736e <_printf_float+0x1a6>
 8007368:	6822      	ldr	r2, [r4, #0]
 800736a:	07d0      	lsls	r0, r2, #31
 800736c:	d501      	bpl.n	8007372 <_printf_float+0x1aa>
 800736e:	3302      	adds	r3, #2
 8007370:	e7f3      	b.n	800735a <_printf_float+0x192>
 8007372:	2301      	movs	r3, #1
 8007374:	e7f1      	b.n	800735a <_printf_float+0x192>
 8007376:	f04f 0a67 	mov.w	sl, #103	; 0x67
 800737a:	e9dd 3209 	ldrd	r3, r2, [sp, #36]	; 0x24
 800737e:	4293      	cmp	r3, r2
 8007380:	db05      	blt.n	800738e <_printf_float+0x1c6>
 8007382:	6822      	ldr	r2, [r4, #0]
 8007384:	6123      	str	r3, [r4, #16]
 8007386:	07d1      	lsls	r1, r2, #31
 8007388:	d5e8      	bpl.n	800735c <_printf_float+0x194>
 800738a:	3301      	adds	r3, #1
 800738c:	e7e5      	b.n	800735a <_printf_float+0x192>
 800738e:	2b00      	cmp	r3, #0
 8007390:	bfd4      	ite	le
 8007392:	f1c3 0302 	rsble	r3, r3, #2
 8007396:	2301      	movgt	r3, #1
 8007398:	4413      	add	r3, r2
 800739a:	e7de      	b.n	800735a <_printf_float+0x192>
 800739c:	6823      	ldr	r3, [r4, #0]
 800739e:	055a      	lsls	r2, r3, #21
 80073a0:	d407      	bmi.n	80073b2 <_printf_float+0x1ea>
 80073a2:	6923      	ldr	r3, [r4, #16]
 80073a4:	4642      	mov	r2, r8
 80073a6:	4631      	mov	r1, r6
 80073a8:	4628      	mov	r0, r5
 80073aa:	47b8      	blx	r7
 80073ac:	3001      	adds	r0, #1
 80073ae:	d12b      	bne.n	8007408 <_printf_float+0x240>
 80073b0:	e767      	b.n	8007282 <_printf_float+0xba>
 80073b2:	f1ba 0f65 	cmp.w	sl, #101	; 0x65
 80073b6:	f240 80dc 	bls.w	8007572 <_printf_float+0x3aa>
 80073ba:	2200      	movs	r2, #0
 80073bc:	2300      	movs	r3, #0
 80073be:	e9d4 0112 	ldrd	r0, r1, [r4, #72]	; 0x48
 80073c2:	f7f9 fb81 	bl	8000ac8 <__aeabi_dcmpeq>
 80073c6:	2800      	cmp	r0, #0
 80073c8:	d033      	beq.n	8007432 <_printf_float+0x26a>
 80073ca:	2301      	movs	r3, #1
 80073cc:	4a41      	ldr	r2, [pc, #260]	; (80074d4 <_printf_float+0x30c>)
 80073ce:	4631      	mov	r1, r6
 80073d0:	4628      	mov	r0, r5
 80073d2:	47b8      	blx	r7
 80073d4:	3001      	adds	r0, #1
 80073d6:	f43f af54 	beq.w	8007282 <_printf_float+0xba>
 80073da:	e9dd 2309 	ldrd	r2, r3, [sp, #36]	; 0x24
 80073de:	429a      	cmp	r2, r3
 80073e0:	db02      	blt.n	80073e8 <_printf_float+0x220>
 80073e2:	6823      	ldr	r3, [r4, #0]
 80073e4:	07d8      	lsls	r0, r3, #31
 80073e6:	d50f      	bpl.n	8007408 <_printf_float+0x240>
 80073e8:	e9dd 2304 	ldrd	r2, r3, [sp, #16]
 80073ec:	4631      	mov	r1, r6
 80073ee:	4628      	mov	r0, r5
 80073f0:	47b8      	blx	r7
 80073f2:	3001      	adds	r0, #1
 80073f4:	f43f af45 	beq.w	8007282 <_printf_float+0xba>
 80073f8:	f04f 0800 	mov.w	r8, #0
 80073fc:	f104 091a 	add.w	r9, r4, #26
 8007400:	9b0a      	ldr	r3, [sp, #40]	; 0x28
 8007402:	3b01      	subs	r3, #1
 8007404:	4543      	cmp	r3, r8
 8007406:	dc09      	bgt.n	800741c <_printf_float+0x254>
 8007408:	6823      	ldr	r3, [r4, #0]
 800740a:	079b      	lsls	r3, r3, #30
 800740c:	f100 8103 	bmi.w	8007616 <_printf_float+0x44e>
 8007410:	68e0      	ldr	r0, [r4, #12]
 8007412:	9b0b      	ldr	r3, [sp, #44]	; 0x2c
 8007414:	4298      	cmp	r0, r3
 8007416:	bfb8      	it	lt
 8007418:	4618      	movlt	r0, r3
 800741a:	e734      	b.n	8007286 <_printf_float+0xbe>
 800741c:	2301      	movs	r3, #1
 800741e:	464a      	mov	r2, r9
 8007420:	4631      	mov	r1, r6
 8007422:	4628      	mov	r0, r5
 8007424:	47b8      	blx	r7
 8007426:	3001      	adds	r0, #1
 8007428:	f43f af2b 	beq.w	8007282 <_printf_float+0xba>
 800742c:	f108 0801 	add.w	r8, r8, #1
 8007430:	e7e6      	b.n	8007400 <_printf_float+0x238>
 8007432:	9b09      	ldr	r3, [sp, #36]	; 0x24
 8007434:	2b00      	cmp	r3, #0
 8007436:	dc2b      	bgt.n	8007490 <_printf_float+0x2c8>
 8007438:	2301      	movs	r3, #1
 800743a:	4a26      	ldr	r2, [pc, #152]	; (80074d4 <_printf_float+0x30c>)
 800743c:	4631      	mov	r1, r6
 800743e:	4628      	mov	r0, r5
 8007440:	47b8      	blx	r7
 8007442:	3001      	adds	r0, #1
 8007444:	f43f af1d 	beq.w	8007282 <_printf_float+0xba>
 8007448:	9b09      	ldr	r3, [sp, #36]	; 0x24
 800744a:	b923      	cbnz	r3, 8007456 <_printf_float+0x28e>
 800744c:	9b0a      	ldr	r3, [sp, #40]	; 0x28
 800744e:	b913      	cbnz	r3, 8007456 <_printf_float+0x28e>
 8007450:	6823      	ldr	r3, [r4, #0]
 8007452:	07d9      	lsls	r1, r3, #31
 8007454:	d5d8      	bpl.n	8007408 <_printf_float+0x240>
 8007456:	e9dd 2304 	ldrd	r2, r3, [sp, #16]
 800745a:	4631      	mov	r1, r6
 800745c:	4628      	mov	r0, r5
 800745e:	47b8      	blx	r7
 8007460:	3001      	adds	r0, #1
 8007462:	f43f af0e 	beq.w	8007282 <_printf_float+0xba>
 8007466:	f04f 0900 	mov.w	r9, #0
 800746a:	f104 0a1a 	add.w	sl, r4, #26
 800746e:	9b09      	ldr	r3, [sp, #36]	; 0x24
 8007470:	425b      	negs	r3, r3
 8007472:	454b      	cmp	r3, r9
 8007474:	dc01      	bgt.n	800747a <_printf_float+0x2b2>
 8007476:	9b0a      	ldr	r3, [sp, #40]	; 0x28
 8007478:	e794      	b.n	80073a4 <_printf_float+0x1dc>
 800747a:	2301      	movs	r3, #1
 800747c:	4652      	mov	r2, sl
 800747e:	4631      	mov	r1, r6
 8007480:	4628      	mov	r0, r5
 8007482:	47b8      	blx	r7
 8007484:	3001      	adds	r0, #1
 8007486:	f43f aefc 	beq.w	8007282 <_printf_float+0xba>
 800748a:	f109 0901 	add.w	r9, r9, #1
 800748e:	e7ee      	b.n	800746e <_printf_float+0x2a6>
 8007490:	9a0a      	ldr	r2, [sp, #40]	; 0x28
 8007492:	6da3      	ldr	r3, [r4, #88]	; 0x58
 8007494:	429a      	cmp	r2, r3
 8007496:	bfa8      	it	ge
 8007498:	461a      	movge	r2, r3
 800749a:	2a00      	cmp	r2, #0
 800749c:	4691      	mov	r9, r2
 800749e:	dd07      	ble.n	80074b0 <_printf_float+0x2e8>
 80074a0:	4613      	mov	r3, r2
 80074a2:	4631      	mov	r1, r6
 80074a4:	4642      	mov	r2, r8
 80074a6:	4628      	mov	r0, r5
 80074a8:	47b8      	blx	r7
 80074aa:	3001      	adds	r0, #1
 80074ac:	f43f aee9 	beq.w	8007282 <_printf_float+0xba>
 80074b0:	f104 031a 	add.w	r3, r4, #26
 80074b4:	f04f 0b00 	mov.w	fp, #0
 80074b8:	ea29 79e9 	bic.w	r9, r9, r9, asr #31
 80074bc:	9306      	str	r3, [sp, #24]
 80074be:	e015      	b.n	80074ec <_printf_float+0x324>
 80074c0:	7fefffff 	.word	0x7fefffff
 80074c4:	0800bdd4 	.word	0x0800bdd4
 80074c8:	0800bdd0 	.word	0x0800bdd0
 80074cc:	0800bddc 	.word	0x0800bddc
 80074d0:	0800bdd8 	.word	0x0800bdd8
 80074d4:	0800bde0 	.word	0x0800bde0
 80074d8:	2301      	movs	r3, #1
 80074da:	9a06      	ldr	r2, [sp, #24]
 80074dc:	4631      	mov	r1, r6
 80074de:	4628      	mov	r0, r5
 80074e0:	47b8      	blx	r7
 80074e2:	3001      	adds	r0, #1
 80074e4:	f43f aecd 	beq.w	8007282 <_printf_float+0xba>
 80074e8:	f10b 0b01 	add.w	fp, fp, #1
 80074ec:	f8d4 a058 	ldr.w	sl, [r4, #88]	; 0x58
 80074f0:	ebaa 0309 	sub.w	r3, sl, r9
 80074f4:	455b      	cmp	r3, fp
 80074f6:	dcef      	bgt.n	80074d8 <_printf_float+0x310>
 80074f8:	e9dd 2309 	ldrd	r2, r3, [sp, #36]	; 0x24
 80074fc:	429a      	cmp	r2, r3
 80074fe:	44d0      	add	r8, sl
 8007500:	db15      	blt.n	800752e <_printf_float+0x366>
 8007502:	6823      	ldr	r3, [r4, #0]
 8007504:	07da      	lsls	r2, r3, #31
 8007506:	d412      	bmi.n	800752e <_printf_float+0x366>
 8007508:	9b0a      	ldr	r3, [sp, #40]	; 0x28
 800750a:	9909      	ldr	r1, [sp, #36]	; 0x24
 800750c:	eba3 020a 	sub.w	r2, r3, sl
 8007510:	eba3 0a01 	sub.w	sl, r3, r1
 8007514:	4592      	cmp	sl, r2
 8007516:	bfa8      	it	ge
 8007518:	4692      	movge	sl, r2
 800751a:	f1ba 0f00 	cmp.w	sl, #0
 800751e:	dc0e      	bgt.n	800753e <_printf_float+0x376>
 8007520:	f04f 0800 	mov.w	r8, #0
 8007524:	ea2a 7aea 	bic.w	sl, sl, sl, asr #31
 8007528:	f104 091a 	add.w	r9, r4, #26
 800752c:	e019      	b.n	8007562 <_printf_float+0x39a>
 800752e:	e9dd 2304 	ldrd	r2, r3, [sp, #16]
 8007532:	4631      	mov	r1, r6
 8007534:	4628      	mov	r0, r5
 8007536:	47b8      	blx	r7
 8007538:	3001      	adds	r0, #1
 800753a:	d1e5      	bne.n	8007508 <_printf_float+0x340>
 800753c:	e6a1      	b.n	8007282 <_printf_float+0xba>
 800753e:	4653      	mov	r3, sl
 8007540:	4642      	mov	r2, r8
 8007542:	4631      	mov	r1, r6
 8007544:	4628      	mov	r0, r5
 8007546:	47b8      	blx	r7
 8007548:	3001      	adds	r0, #1
 800754a:	d1e9      	bne.n	8007520 <_printf_float+0x358>
 800754c:	e699      	b.n	8007282 <_printf_float+0xba>
 800754e:	2301      	movs	r3, #1
 8007550:	464a      	mov	r2, r9
 8007552:	4631      	mov	r1, r6
 8007554:	4628      	mov	r0, r5
 8007556:	47b8      	blx	r7
 8007558:	3001      	adds	r0, #1
 800755a:	f43f ae92 	beq.w	8007282 <_printf_float+0xba>
 800755e:	f108 0801 	add.w	r8, r8, #1
 8007562:	e9dd 2309 	ldrd	r2, r3, [sp, #36]	; 0x24
 8007566:	1a9b      	subs	r3, r3, r2
 8007568:	eba3 030a 	sub.w	r3, r3, sl
 800756c:	4543      	cmp	r3, r8
 800756e:	dcee      	bgt.n	800754e <_printf_float+0x386>
 8007570:	e74a      	b.n	8007408 <_printf_float+0x240>
 8007572:	9a0a      	ldr	r2, [sp, #40]	; 0x28
 8007574:	2a01      	cmp	r2, #1
 8007576:	dc01      	bgt.n	800757c <_printf_float+0x3b4>
 8007578:	07db      	lsls	r3, r3, #31
 800757a:	d53a      	bpl.n	80075f2 <_printf_float+0x42a>
 800757c:	2301      	movs	r3, #1
 800757e:	4642      	mov	r2, r8
 8007580:	4631      	mov	r1, r6
 8007582:	4628      	mov	r0, r5
 8007584:	47b8      	blx	r7
 8007586:	3001      	adds	r0, #1
 8007588:	f43f ae7b 	beq.w	8007282 <_printf_float+0xba>
 800758c:	e9dd 2304 	ldrd	r2, r3, [sp, #16]
 8007590:	4631      	mov	r1, r6
 8007592:	4628      	mov	r0, r5
 8007594:	47b8      	blx	r7
 8007596:	3001      	adds	r0, #1
 8007598:	f108 0801 	add.w	r8, r8, #1
 800759c:	f43f ae71 	beq.w	8007282 <_printf_float+0xba>
 80075a0:	9b0a      	ldr	r3, [sp, #40]	; 0x28
 80075a2:	2200      	movs	r2, #0
 80075a4:	f103 3aff 	add.w	sl, r3, #4294967295
 80075a8:	e9d4 0112 	ldrd	r0, r1, [r4, #72]	; 0x48
 80075ac:	2300      	movs	r3, #0
 80075ae:	f7f9 fa8b 	bl	8000ac8 <__aeabi_dcmpeq>
 80075b2:	b9c8      	cbnz	r0, 80075e8 <_printf_float+0x420>
 80075b4:	4653      	mov	r3, sl
 80075b6:	4642      	mov	r2, r8
 80075b8:	4631      	mov	r1, r6
 80075ba:	4628      	mov	r0, r5
 80075bc:	47b8      	blx	r7
 80075be:	3001      	adds	r0, #1
 80075c0:	d10e      	bne.n	80075e0 <_printf_float+0x418>
 80075c2:	e65e      	b.n	8007282 <_printf_float+0xba>
 80075c4:	2301      	movs	r3, #1
 80075c6:	4652      	mov	r2, sl
 80075c8:	4631      	mov	r1, r6
 80075ca:	4628      	mov	r0, r5
 80075cc:	47b8      	blx	r7
 80075ce:	3001      	adds	r0, #1
 80075d0:	f43f ae57 	beq.w	8007282 <_printf_float+0xba>
 80075d4:	f108 0801 	add.w	r8, r8, #1
 80075d8:	9b0a      	ldr	r3, [sp, #40]	; 0x28
 80075da:	3b01      	subs	r3, #1
 80075dc:	4543      	cmp	r3, r8
 80075de:	dcf1      	bgt.n	80075c4 <_printf_float+0x3fc>
 80075e0:	464b      	mov	r3, r9
 80075e2:	f104 0250 	add.w	r2, r4, #80	; 0x50
 80075e6:	e6de      	b.n	80073a6 <_printf_float+0x1de>
 80075e8:	f04f 0800 	mov.w	r8, #0
 80075ec:	f104 0a1a 	add.w	sl, r4, #26
 80075f0:	e7f2      	b.n	80075d8 <_printf_float+0x410>
 80075f2:	2301      	movs	r3, #1
 80075f4:	e7df      	b.n	80075b6 <_printf_float+0x3ee>
 80075f6:	2301      	movs	r3, #1
 80075f8:	464a      	mov	r2, r9
 80075fa:	4631      	mov	r1, r6
 80075fc:	4628      	mov	r0, r5
 80075fe:	47b8      	blx	r7
 8007600:	3001      	adds	r0, #1
 8007602:	f43f ae3e 	beq.w	8007282 <_printf_float+0xba>
 8007606:	f108 0801 	add.w	r8, r8, #1
 800760a:	68e3      	ldr	r3, [r4, #12]
 800760c:	9a0b      	ldr	r2, [sp, #44]	; 0x2c
 800760e:	1a9b      	subs	r3, r3, r2
 8007610:	4543      	cmp	r3, r8
 8007612:	dcf0      	bgt.n	80075f6 <_printf_float+0x42e>
 8007614:	e6fc      	b.n	8007410 <_printf_float+0x248>
 8007616:	f04f 0800 	mov.w	r8, #0
 800761a:	f104 0919 	add.w	r9, r4, #25
 800761e:	e7f4      	b.n	800760a <_printf_float+0x442>
 8007620:	2900      	cmp	r1, #0
 8007622:	f43f ae8b 	beq.w	800733c <_printf_float+0x174>
 8007626:	2300      	movs	r3, #0
 8007628:	e9cd 0302 	strd	r0, r3, [sp, #8]
 800762c:	ab09      	add	r3, sp, #36	; 0x24
 800762e:	9300      	str	r3, [sp, #0]
 8007630:	ec49 8b10 	vmov	d0, r8, r9
 8007634:	6022      	str	r2, [r4, #0]
 8007636:	f8cd a004 	str.w	sl, [sp, #4]
 800763a:	f10d 0323 	add.w	r3, sp, #35	; 0x23
 800763e:	4628      	mov	r0, r5
 8007640:	f7ff fd2d 	bl	800709e <__cvt>
 8007644:	4680      	mov	r8, r0
 8007646:	e648      	b.n	80072da <_printf_float+0x112>

08007648 <_printf_common>:
 8007648:	e92d 47f0 	stmdb	sp!, {r4, r5, r6, r7, r8, r9, sl, lr}
 800764c:	4691      	mov	r9, r2
 800764e:	461f      	mov	r7, r3
 8007650:	688a      	ldr	r2, [r1, #8]
 8007652:	690b      	ldr	r3, [r1, #16]
 8007654:	f8dd 8020 	ldr.w	r8, [sp, #32]
 8007658:	4293      	cmp	r3, r2
 800765a:	bfb8      	it	lt
 800765c:	4613      	movlt	r3, r2
 800765e:	f8c9 3000 	str.w	r3, [r9]
 8007662:	f891 2043 	ldrb.w	r2, [r1, #67]	; 0x43
 8007666:	4606      	mov	r6, r0
 8007668:	460c      	mov	r4, r1
 800766a:	b112      	cbz	r2, 8007672 <_printf_common+0x2a>
 800766c:	3301      	adds	r3, #1
 800766e:	f8c9 3000 	str.w	r3, [r9]
 8007672:	6823      	ldr	r3, [r4, #0]
 8007674:	0699      	lsls	r1, r3, #26
 8007676:	bf42      	ittt	mi
 8007678:	f8d9 3000 	ldrmi.w	r3, [r9]
 800767c:	3302      	addmi	r3, #2
 800767e:	f8c9 3000 	strmi.w	r3, [r9]
 8007682:	6825      	ldr	r5, [r4, #0]
 8007684:	f015 0506 	ands.w	r5, r5, #6
 8007688:	d107      	bne.n	800769a <_printf_common+0x52>
 800768a:	f104 0a19 	add.w	sl, r4, #25
 800768e:	68e3      	ldr	r3, [r4, #12]
 8007690:	f8d9 2000 	ldr.w	r2, [r9]
 8007694:	1a9b      	subs	r3, r3, r2
 8007696:	42ab      	cmp	r3, r5
 8007698:	dc28      	bgt.n	80076ec <_printf_common+0xa4>
 800769a:	f894 3043 	ldrb.w	r3, [r4, #67]	; 0x43
 800769e:	6822      	ldr	r2, [r4, #0]
 80076a0:	3300      	adds	r3, #0
 80076a2:	bf18      	it	ne
 80076a4:	2301      	movne	r3, #1
 80076a6:	0692      	lsls	r2, r2, #26
 80076a8:	d42d      	bmi.n	8007706 <_printf_common+0xbe>
 80076aa:	f104 0243 	add.w	r2, r4, #67	; 0x43
 80076ae:	4639      	mov	r1, r7
 80076b0:	4630      	mov	r0, r6
 80076b2:	47c0      	blx	r8
 80076b4:	3001      	adds	r0, #1
 80076b6:	d020      	beq.n	80076fa <_printf_common+0xb2>
 80076b8:	6823      	ldr	r3, [r4, #0]
 80076ba:	68e5      	ldr	r5, [r4, #12]
 80076bc:	f8d9 2000 	ldr.w	r2, [r9]
 80076c0:	f003 0306 	and.w	r3, r3, #6
 80076c4:	2b04      	cmp	r3, #4
 80076c6:	bf08      	it	eq
 80076c8:	1aad      	subeq	r5, r5, r2
 80076ca:	68a3      	ldr	r3, [r4, #8]
 80076cc:	6922      	ldr	r2, [r4, #16]
 80076ce:	bf0c      	ite	eq
 80076d0:	ea25 75e5 	biceq.w	r5, r5, r5, asr #31
 80076d4:	2500      	movne	r5, #0
 80076d6:	4293      	cmp	r3, r2
 80076d8:	bfc4      	itt	gt
 80076da:	1a9b      	subgt	r3, r3, r2
 80076dc:	18ed      	addgt	r5, r5, r3
 80076de:	f04f 0900 	mov.w	r9, #0
 80076e2:	341a      	adds	r4, #26
 80076e4:	454d      	cmp	r5, r9
 80076e6:	d11a      	bne.n	800771e <_printf_common+0xd6>
 80076e8:	2000      	movs	r0, #0
 80076ea:	e008      	b.n	80076fe <_printf_common+0xb6>
 80076ec:	2301      	movs	r3, #1
 80076ee:	4652      	mov	r2, sl
 80076f0:	4639      	mov	r1, r7
 80076f2:	4630      	mov	r0, r6
 80076f4:	47c0      	blx	r8
 80076f6:	3001      	adds	r0, #1
 80076f8:	d103      	bne.n	8007702 <_printf_common+0xba>
 80076fa:	f04f 30ff 	mov.w	r0, #4294967295
 80076fe:	e8bd 87f0 	ldmia.w	sp!, {r4, r5, r6, r7, r8, r9, sl, pc}
 8007702:	3501      	adds	r5, #1
 8007704:	e7c3      	b.n	800768e <_printf_common+0x46>
 8007706:	18e1      	adds	r1, r4, r3
 8007708:	1c5a      	adds	r2, r3, #1
 800770a:	2030      	movs	r0, #48	; 0x30
 800770c:	f881 0043 	strb.w	r0, [r1, #67]	; 0x43
 8007710:	4422      	add	r2, r4
 8007712:	f894 1045 	ldrb.w	r1, [r4, #69]	; 0x45
 8007716:	f882 1043 	strb.w	r1, [r2, #67]	; 0x43
 800771a:	3302      	adds	r3, #2
 800771c:	e7c5      	b.n	80076aa <_printf_common+0x62>
 800771e:	2301      	movs	r3, #1
 8007720:	4622      	mov	r2, r4
 8007722:	4639      	mov	r1, r7
 8007724:	4630      	mov	r0, r6
 8007726:	47c0      	blx	r8
 8007728:	3001      	adds	r0, #1
 800772a:	d0e6      	beq.n	80076fa <_printf_common+0xb2>
 800772c:	f109 0901 	add.w	r9, r9, #1
 8007730:	e7d8      	b.n	80076e4 <_printf_common+0x9c>
	...

08007734 <_printf_i>:
 8007734:	e92d 43f0 	stmdb	sp!, {r4, r5, r6, r7, r8, r9, lr}
 8007738:	f101 0c43 	add.w	ip, r1, #67	; 0x43
 800773c:	460c      	mov	r4, r1
 800773e:	7e09      	ldrb	r1, [r1, #24]
 8007740:	b085      	sub	sp, #20
 8007742:	296e      	cmp	r1, #110	; 0x6e
 8007744:	4617      	mov	r7, r2
 8007746:	4606      	mov	r6, r0
 8007748:	4698      	mov	r8, r3
 800774a:	9a0c      	ldr	r2, [sp, #48]	; 0x30
 800774c:	f000 80b3 	beq.w	80078b6 <_printf_i+0x182>
 8007750:	d822      	bhi.n	8007798 <_printf_i+0x64>
 8007752:	2963      	cmp	r1, #99	; 0x63
 8007754:	d036      	beq.n	80077c4 <_printf_i+0x90>
 8007756:	d80a      	bhi.n	800776e <_printf_i+0x3a>
 8007758:	2900      	cmp	r1, #0
 800775a:	f000 80b9 	beq.w	80078d0 <_printf_i+0x19c>
 800775e:	2958      	cmp	r1, #88	; 0x58
 8007760:	f000 8083 	beq.w	800786a <_printf_i+0x136>
 8007764:	f104 0542 	add.w	r5, r4, #66	; 0x42
 8007768:	f884 1042 	strb.w	r1, [r4, #66]	; 0x42
 800776c:	e032      	b.n	80077d4 <_printf_i+0xa0>
 800776e:	2964      	cmp	r1, #100	; 0x64
 8007770:	d001      	beq.n	8007776 <_printf_i+0x42>
 8007772:	2969      	cmp	r1, #105	; 0x69
 8007774:	d1f6      	bne.n	8007764 <_printf_i+0x30>
 8007776:	6820      	ldr	r0, [r4, #0]
 8007778:	6813      	ldr	r3, [r2, #0]
 800777a:	0605      	lsls	r5, r0, #24
 800777c:	f103 0104 	add.w	r1, r3, #4
 8007780:	d52a      	bpl.n	80077d8 <_printf_i+0xa4>
 8007782:	681b      	ldr	r3, [r3, #0]
 8007784:	6011      	str	r1, [r2, #0]
 8007786:	2b00      	cmp	r3, #0
 8007788:	da03      	bge.n	8007792 <_printf_i+0x5e>
 800778a:	222d      	movs	r2, #45	; 0x2d
 800778c:	425b      	negs	r3, r3
 800778e:	f884 2043 	strb.w	r2, [r4, #67]	; 0x43
 8007792:	486f      	ldr	r0, [pc, #444]	; (8007950 <_printf_i+0x21c>)
 8007794:	220a      	movs	r2, #10
 8007796:	e039      	b.n	800780c <_printf_i+0xd8>
 8007798:	2973      	cmp	r1, #115	; 0x73
 800779a:	f000 809d 	beq.w	80078d8 <_printf_i+0x1a4>
 800779e:	d808      	bhi.n	80077b2 <_printf_i+0x7e>
 80077a0:	296f      	cmp	r1, #111	; 0x6f
 80077a2:	d020      	beq.n	80077e6 <_printf_i+0xb2>
 80077a4:	2970      	cmp	r1, #112	; 0x70
 80077a6:	d1dd      	bne.n	8007764 <_printf_i+0x30>
 80077a8:	6823      	ldr	r3, [r4, #0]
 80077aa:	f043 0320 	orr.w	r3, r3, #32
 80077ae:	6023      	str	r3, [r4, #0]
 80077b0:	e003      	b.n	80077ba <_printf_i+0x86>
 80077b2:	2975      	cmp	r1, #117	; 0x75
 80077b4:	d017      	beq.n	80077e6 <_printf_i+0xb2>
 80077b6:	2978      	cmp	r1, #120	; 0x78
 80077b8:	d1d4      	bne.n	8007764 <_printf_i+0x30>
 80077ba:	2378      	movs	r3, #120	; 0x78
 80077bc:	f884 3045 	strb.w	r3, [r4, #69]	; 0x45
 80077c0:	4864      	ldr	r0, [pc, #400]	; (8007954 <_printf_i+0x220>)
 80077c2:	e055      	b.n	8007870 <_printf_i+0x13c>
 80077c4:	6813      	ldr	r3, [r2, #0]
 80077c6:	1d19      	adds	r1, r3, #4
 80077c8:	681b      	ldr	r3, [r3, #0]
 80077ca:	6011      	str	r1, [r2, #0]
 80077cc:	f104 0542 	add.w	r5, r4, #66	; 0x42
 80077d0:	f884 3042 	strb.w	r3, [r4, #66]	; 0x42
 80077d4:	2301      	movs	r3, #1
 80077d6:	e08c      	b.n	80078f2 <_printf_i+0x1be>
 80077d8:	681b      	ldr	r3, [r3, #0]
 80077da:	6011      	str	r1, [r2, #0]
 80077dc:	f010 0f40 	tst.w	r0, #64	; 0x40
 80077e0:	bf18      	it	ne
 80077e2:	b21b      	sxthne	r3, r3
 80077e4:	e7cf      	b.n	8007786 <_printf_i+0x52>
 80077e6:	6813      	ldr	r3, [r2, #0]
 80077e8:	6825      	ldr	r5, [r4, #0]
 80077ea:	1d18      	adds	r0, r3, #4
 80077ec:	6010      	str	r0, [r2, #0]
 80077ee:	0628      	lsls	r0, r5, #24
 80077f0:	d501      	bpl.n	80077f6 <_printf_i+0xc2>
 80077f2:	681b      	ldr	r3, [r3, #0]
 80077f4:	e002      	b.n	80077fc <_printf_i+0xc8>
 80077f6:	0668      	lsls	r0, r5, #25
 80077f8:	d5fb      	bpl.n	80077f2 <_printf_i+0xbe>
 80077fa:	881b      	ldrh	r3, [r3, #0]
 80077fc:	4854      	ldr	r0, [pc, #336]	; (8007950 <_printf_i+0x21c>)
 80077fe:	296f      	cmp	r1, #111	; 0x6f
 8007800:	bf14      	ite	ne
 8007802:	220a      	movne	r2, #10
 8007804:	2208      	moveq	r2, #8
 8007806:	2100      	movs	r1, #0
 8007808:	f884 1043 	strb.w	r1, [r4, #67]	; 0x43
 800780c:	6865      	ldr	r5, [r4, #4]
 800780e:	60a5      	str	r5, [r4, #8]
 8007810:	2d00      	cmp	r5, #0
 8007812:	f2c0 8095 	blt.w	8007940 <_printf_i+0x20c>
 8007816:	6821      	ldr	r1, [r4, #0]
 8007818:	f021 0104 	bic.w	r1, r1, #4
 800781c:	6021      	str	r1, [r4, #0]
 800781e:	2b00      	cmp	r3, #0
 8007820:	d13d      	bne.n	800789e <_printf_i+0x16a>
 8007822:	2d00      	cmp	r5, #0
 8007824:	f040 808e 	bne.w	8007944 <_printf_i+0x210>
 8007828:	4665      	mov	r5, ip
 800782a:	2a08      	cmp	r2, #8
 800782c:	d10b      	bne.n	8007846 <_printf_i+0x112>
 800782e:	6823      	ldr	r3, [r4, #0]
 8007830:	07db      	lsls	r3, r3, #31
 8007832:	d508      	bpl.n	8007846 <_printf_i+0x112>
 8007834:	6923      	ldr	r3, [r4, #16]
 8007836:	6862      	ldr	r2, [r4, #4]
 8007838:	429a      	cmp	r2, r3
 800783a:	bfde      	ittt	le
 800783c:	2330      	movle	r3, #48	; 0x30
 800783e:	f805 3c01 	strble.w	r3, [r5, #-1]
 8007842:	f105 35ff 	addle.w	r5, r5, #4294967295
 8007846:	ebac 0305 	sub.w	r3, ip, r5
 800784a:	6123      	str	r3, [r4, #16]
 800784c:	f8cd 8000 	str.w	r8, [sp]
 8007850:	463b      	mov	r3, r7
 8007852:	aa03      	add	r2, sp, #12
 8007854:	4621      	mov	r1, r4
 8007856:	4630      	mov	r0, r6
 8007858:	f7ff fef6 	bl	8007648 <_printf_common>
 800785c:	3001      	adds	r0, #1
 800785e:	d14d      	bne.n	80078fc <_printf_i+0x1c8>
 8007860:	f04f 30ff 	mov.w	r0, #4294967295
 8007864:	b005      	add	sp, #20
 8007866:	e8bd 83f0 	ldmia.w	sp!, {r4, r5, r6, r7, r8, r9, pc}
 800786a:	4839      	ldr	r0, [pc, #228]	; (8007950 <_printf_i+0x21c>)
 800786c:	f884 1045 	strb.w	r1, [r4, #69]	; 0x45
 8007870:	6813      	ldr	r3, [r2, #0]
 8007872:	6821      	ldr	r1, [r4, #0]
 8007874:	1d1d      	adds	r5, r3, #4
 8007876:	681b      	ldr	r3, [r3, #0]
 8007878:	6015      	str	r5, [r2, #0]
 800787a:	060a      	lsls	r2, r1, #24
 800787c:	d50b      	bpl.n	8007896 <_printf_i+0x162>
 800787e:	07ca      	lsls	r2, r1, #31
 8007880:	bf44      	itt	mi
 8007882:	f041 0120 	orrmi.w	r1, r1, #32
 8007886:	6021      	strmi	r1, [r4, #0]
 8007888:	b91b      	cbnz	r3, 8007892 <_printf_i+0x15e>
 800788a:	6822      	ldr	r2, [r4, #0]
 800788c:	f022 0220 	bic.w	r2, r2, #32
 8007890:	6022      	str	r2, [r4, #0]
 8007892:	2210      	movs	r2, #16
 8007894:	e7b7      	b.n	8007806 <_printf_i+0xd2>
 8007896:	064d      	lsls	r5, r1, #25
 8007898:	bf48      	it	mi
 800789a:	b29b      	uxthmi	r3, r3
 800789c:	e7ef      	b.n	800787e <_printf_i+0x14a>
 800789e:	4665      	mov	r5, ip
 80078a0:	fbb3 f1f2 	udiv	r1, r3, r2
 80078a4:	fb02 3311 	mls	r3, r2, r1, r3
 80078a8:	5cc3      	ldrb	r3, [r0, r3]
 80078aa:	f805 3d01 	strb.w	r3, [r5, #-1]!
 80078ae:	460b      	mov	r3, r1
 80078b0:	2900      	cmp	r1, #0
 80078b2:	d1f5      	bne.n	80078a0 <_printf_i+0x16c>
 80078b4:	e7b9      	b.n	800782a <_printf_i+0xf6>
 80078b6:	6813      	ldr	r3, [r2, #0]
 80078b8:	6825      	ldr	r5, [r4, #0]
 80078ba:	6961      	ldr	r1, [r4, #20]
 80078bc:	1d18      	adds	r0, r3, #4
 80078be:	6010      	str	r0, [r2, #0]
 80078c0:	0628      	lsls	r0, r5, #24
 80078c2:	681b      	ldr	r3, [r3, #0]
 80078c4:	d501      	bpl.n	80078ca <_printf_i+0x196>
 80078c6:	6019      	str	r1, [r3, #0]
 80078c8:	e002      	b.n	80078d0 <_printf_i+0x19c>
 80078ca:	066a      	lsls	r2, r5, #25
 80078cc:	d5fb      	bpl.n	80078c6 <_printf_i+0x192>
 80078ce:	8019      	strh	r1, [r3, #0]
 80078d0:	2300      	movs	r3, #0
 80078d2:	6123      	str	r3, [r4, #16]
 80078d4:	4665      	mov	r5, ip
 80078d6:	e7b9      	b.n	800784c <_printf_i+0x118>
 80078d8:	6813      	ldr	r3, [r2, #0]
 80078da:	1d19      	adds	r1, r3, #4
 80078dc:	6011      	str	r1, [r2, #0]
 80078de:	681d      	ldr	r5, [r3, #0]
 80078e0:	6862      	ldr	r2, [r4, #4]
 80078e2:	2100      	movs	r1, #0
 80078e4:	4628      	mov	r0, r5
 80078e6:	f7f8 fc7b 	bl	80001e0 <memchr>
 80078ea:	b108      	cbz	r0, 80078f0 <_printf_i+0x1bc>
 80078ec:	1b40      	subs	r0, r0, r5
 80078ee:	6060      	str	r0, [r4, #4]
 80078f0:	6863      	ldr	r3, [r4, #4]
 80078f2:	6123      	str	r3, [r4, #16]
 80078f4:	2300      	movs	r3, #0
 80078f6:	f884 3043 	strb.w	r3, [r4, #67]	; 0x43
 80078fa:	e7a7      	b.n	800784c <_printf_i+0x118>
 80078fc:	6923      	ldr	r3, [r4, #16]
 80078fe:	462a      	mov	r2, r5
 8007900:	4639      	mov	r1, r7
 8007902:	4630      	mov	r0, r6
 8007904:	47c0      	blx	r8
 8007906:	3001      	adds	r0, #1
 8007908:	d0aa      	beq.n	8007860 <_printf_i+0x12c>
 800790a:	6823      	ldr	r3, [r4, #0]
 800790c:	079b      	lsls	r3, r3, #30
 800790e:	d413      	bmi.n	8007938 <_printf_i+0x204>
 8007910:	68e0      	ldr	r0, [r4, #12]
 8007912:	9b03      	ldr	r3, [sp, #12]
 8007914:	4298      	cmp	r0, r3
 8007916:	bfb8      	it	lt
 8007918:	4618      	movlt	r0, r3
 800791a:	e7a3      	b.n	8007864 <_printf_i+0x130>
 800791c:	2301      	movs	r3, #1
 800791e:	464a      	mov	r2, r9
 8007920:	4639      	mov	r1, r7
 8007922:	4630      	mov	r0, r6
 8007924:	47c0      	blx	r8
 8007926:	3001      	adds	r0, #1
 8007928:	d09a      	beq.n	8007860 <_printf_i+0x12c>
 800792a:	3501      	adds	r5, #1
 800792c:	68e3      	ldr	r3, [r4, #12]
 800792e:	9a03      	ldr	r2, [sp, #12]
 8007930:	1a9b      	subs	r3, r3, r2
 8007932:	42ab      	cmp	r3, r5
 8007934:	dcf2      	bgt.n	800791c <_printf_i+0x1e8>
 8007936:	e7eb      	b.n	8007910 <_printf_i+0x1dc>
 8007938:	2500      	movs	r5, #0
 800793a:	f104 0919 	add.w	r9, r4, #25
 800793e:	e7f5      	b.n	800792c <_printf_i+0x1f8>
 8007940:	2b00      	cmp	r3, #0
 8007942:	d1ac      	bne.n	800789e <_printf_i+0x16a>
 8007944:	7803      	ldrb	r3, [r0, #0]
 8007946:	f884 3042 	strb.w	r3, [r4, #66]	; 0x42
 800794a:	f104 0542 	add.w	r5, r4, #66	; 0x42
 800794e:	e76c      	b.n	800782a <_printf_i+0xf6>
 8007950:	0800bde2 	.word	0x0800bde2
 8007954:	0800bdf3 	.word	0x0800bdf3

08007958 <sniprintf>:
 8007958:	b40c      	push	{r2, r3}
 800795a:	b530      	push	{r4, r5, lr}
 800795c:	4b17      	ldr	r3, [pc, #92]	; (80079bc <sniprintf+0x64>)
 800795e:	1e0c      	subs	r4, r1, #0
 8007960:	b09d      	sub	sp, #116	; 0x74
 8007962:	681d      	ldr	r5, [r3, #0]
 8007964:	da08      	bge.n	8007978 <sniprintf+0x20>
 8007966:	238b      	movs	r3, #139	; 0x8b
 8007968:	602b      	str	r3, [r5, #0]
 800796a:	f04f 30ff 	mov.w	r0, #4294967295
 800796e:	b01d      	add	sp, #116	; 0x74
 8007970:	e8bd 4030 	ldmia.w	sp!, {r4, r5, lr}
 8007974:	b002      	add	sp, #8
 8007976:	4770      	bx	lr
 8007978:	f44f 7302 	mov.w	r3, #520	; 0x208
 800797c:	f8ad 3014 	strh.w	r3, [sp, #20]
 8007980:	bf14      	ite	ne
 8007982:	f104 33ff 	addne.w	r3, r4, #4294967295
 8007986:	4623      	moveq	r3, r4
 8007988:	9304      	str	r3, [sp, #16]
 800798a:	9307      	str	r3, [sp, #28]
 800798c:	f64f 73ff 	movw	r3, #65535	; 0xffff
 8007990:	9002      	str	r0, [sp, #8]
 8007992:	9006      	str	r0, [sp, #24]
 8007994:	f8ad 3016 	strh.w	r3, [sp, #22]
 8007998:	9a20      	ldr	r2, [sp, #128]	; 0x80
 800799a:	ab21      	add	r3, sp, #132	; 0x84
 800799c:	a902      	add	r1, sp, #8
 800799e:	4628      	mov	r0, r5
 80079a0:	9301      	str	r3, [sp, #4]
 80079a2:	f001 fa5d 	bl	8008e60 <_svfiprintf_r>
 80079a6:	1c43      	adds	r3, r0, #1
 80079a8:	bfbc      	itt	lt
 80079aa:	238b      	movlt	r3, #139	; 0x8b
 80079ac:	602b      	strlt	r3, [r5, #0]
 80079ae:	2c00      	cmp	r4, #0
 80079b0:	d0dd      	beq.n	800796e <sniprintf+0x16>
 80079b2:	9b02      	ldr	r3, [sp, #8]
 80079b4:	2200      	movs	r2, #0
 80079b6:	701a      	strb	r2, [r3, #0]
 80079b8:	e7d9      	b.n	800796e <sniprintf+0x16>
 80079ba:	bf00      	nop
 80079bc:	200002f8 	.word	0x200002f8

080079c0 <quorem>:
 80079c0:	e92d 4ff7 	stmdb	sp!, {r0, r1, r2, r4, r5, r6, r7, r8, r9, sl, fp, lr}
 80079c4:	6903      	ldr	r3, [r0, #16]
 80079c6:	690c      	ldr	r4, [r1, #16]
 80079c8:	42a3      	cmp	r3, r4
 80079ca:	4680      	mov	r8, r0
 80079cc:	f2c0 8082 	blt.w	8007ad4 <quorem+0x114>
 80079d0:	3c01      	subs	r4, #1
 80079d2:	f101 0714 	add.w	r7, r1, #20
 80079d6:	ea4f 0c84 	mov.w	ip, r4, lsl #2
 80079da:	f100 0614 	add.w	r6, r0, #20
 80079de:	f857 5024 	ldr.w	r5, [r7, r4, lsl #2]
 80079e2:	f856 0024 	ldr.w	r0, [r6, r4, lsl #2]
 80079e6:	eb06 030c 	add.w	r3, r6, ip
 80079ea:	3501      	adds	r5, #1
 80079ec:	eb07 090c 	add.w	r9, r7, ip
 80079f0:	9301      	str	r3, [sp, #4]
 80079f2:	fbb0 f5f5 	udiv	r5, r0, r5
 80079f6:	b395      	cbz	r5, 8007a5e <quorem+0x9e>
 80079f8:	f04f 0a00 	mov.w	sl, #0
 80079fc:	4638      	mov	r0, r7
 80079fe:	46b6      	mov	lr, r6
 8007a00:	46d3      	mov	fp, sl
 8007a02:	f850 2b04 	ldr.w	r2, [r0], #4
 8007a06:	b293      	uxth	r3, r2
 8007a08:	fb05 a303 	mla	r3, r5, r3, sl
 8007a0c:	ea4f 4a13 	mov.w	sl, r3, lsr #16
 8007a10:	b29b      	uxth	r3, r3
 8007a12:	ebab 0303 	sub.w	r3, fp, r3
 8007a16:	0c12      	lsrs	r2, r2, #16
 8007a18:	f8de b000 	ldr.w	fp, [lr]
 8007a1c:	fb05 a202 	mla	r2, r5, r2, sl
 8007a20:	fa13 f38b 	uxtah	r3, r3, fp
 8007a24:	ea4f 4a12 	mov.w	sl, r2, lsr #16
 8007a28:	fa1f fb82 	uxth.w	fp, r2
 8007a2c:	f8de 2000 	ldr.w	r2, [lr]
 8007a30:	ebcb 4212 	rsb	r2, fp, r2, lsr #16
 8007a34:	eb02 4223 	add.w	r2, r2, r3, asr #16
 8007a38:	b29b      	uxth	r3, r3
 8007a3a:	ea43 4302 	orr.w	r3, r3, r2, lsl #16
 8007a3e:	4581      	cmp	r9, r0
 8007a40:	ea4f 4b22 	mov.w	fp, r2, asr #16
 8007a44:	f84e 3b04 	str.w	r3, [lr], #4
 8007a48:	d2db      	bcs.n	8007a02 <quorem+0x42>
 8007a4a:	f856 300c 	ldr.w	r3, [r6, ip]
 8007a4e:	b933      	cbnz	r3, 8007a5e <quorem+0x9e>
 8007a50:	9b01      	ldr	r3, [sp, #4]
 8007a52:	3b04      	subs	r3, #4
 8007a54:	429e      	cmp	r6, r3
 8007a56:	461a      	mov	r2, r3
 8007a58:	d330      	bcc.n	8007abc <quorem+0xfc>
 8007a5a:	f8c8 4010 	str.w	r4, [r8, #16]
 8007a5e:	4640      	mov	r0, r8
 8007a60:	f001 f828 	bl	8008ab4 <__mcmp>
 8007a64:	2800      	cmp	r0, #0
 8007a66:	db25      	blt.n	8007ab4 <quorem+0xf4>
 8007a68:	3501      	adds	r5, #1
 8007a6a:	4630      	mov	r0, r6
 8007a6c:	f04f 0c00 	mov.w	ip, #0
 8007a70:	f857 2b04 	ldr.w	r2, [r7], #4
 8007a74:	f8d0 e000 	ldr.w	lr, [r0]
 8007a78:	b293      	uxth	r3, r2
 8007a7a:	ebac 0303 	sub.w	r3, ip, r3
 8007a7e:	0c12      	lsrs	r2, r2, #16
 8007a80:	fa13 f38e 	uxtah	r3, r3, lr
 8007a84:	ebc2 421e 	rsb	r2, r2, lr, lsr #16
 8007a88:	eb02 4223 	add.w	r2, r2, r3, asr #16
 8007a8c:	b29b      	uxth	r3, r3
 8007a8e:	ea43 4302 	orr.w	r3, r3, r2, lsl #16
 8007a92:	45b9      	cmp	r9, r7
 8007a94:	ea4f 4c22 	mov.w	ip, r2, asr #16
 8007a98:	f840 3b04 	str.w	r3, [r0], #4
 8007a9c:	d2e8      	bcs.n	8007a70 <quorem+0xb0>
 8007a9e:	f856 2024 	ldr.w	r2, [r6, r4, lsl #2]
 8007aa2:	eb06 0384 	add.w	r3, r6, r4, lsl #2
 8007aa6:	b92a      	cbnz	r2, 8007ab4 <quorem+0xf4>
 8007aa8:	3b04      	subs	r3, #4
 8007aaa:	429e      	cmp	r6, r3
 8007aac:	461a      	mov	r2, r3
 8007aae:	d30b      	bcc.n	8007ac8 <quorem+0x108>
 8007ab0:	f8c8 4010 	str.w	r4, [r8, #16]
 8007ab4:	4628      	mov	r0, r5
 8007ab6:	b003      	add	sp, #12
 8007ab8:	e8bd 8ff0 	ldmia.w	sp!, {r4, r5, r6, r7, r8, r9, sl, fp, pc}
 8007abc:	6812      	ldr	r2, [r2, #0]
 8007abe:	3b04      	subs	r3, #4
 8007ac0:	2a00      	cmp	r2, #0
 8007ac2:	d1ca      	bne.n	8007a5a <quorem+0x9a>
 8007ac4:	3c01      	subs	r4, #1
 8007ac6:	e7c5      	b.n	8007a54 <quorem+0x94>
 8007ac8:	6812      	ldr	r2, [r2, #0]
 8007aca:	3b04      	subs	r3, #4
 8007acc:	2a00      	cmp	r2, #0
 8007ace:	d1ef      	bne.n	8007ab0 <quorem+0xf0>
 8007ad0:	3c01      	subs	r4, #1
 8007ad2:	e7ea      	b.n	8007aaa <quorem+0xea>
 8007ad4:	2000      	movs	r0, #0
 8007ad6:	e7ee      	b.n	8007ab6 <quorem+0xf6>

08007ad8 <_dtoa_r>:
 8007ad8:	e92d 4ff0 	stmdb	sp!, {r4, r5, r6, r7, r8, r9, sl, fp, lr}
 8007adc:	ec57 6b10 	vmov	r6, r7, d0
 8007ae0:	b097      	sub	sp, #92	; 0x5c
 8007ae2:	6a45      	ldr	r5, [r0, #36]	; 0x24
 8007ae4:	9106      	str	r1, [sp, #24]
 8007ae6:	4604      	mov	r4, r0
 8007ae8:	920b      	str	r2, [sp, #44]	; 0x2c
 8007aea:	9312      	str	r3, [sp, #72]	; 0x48
 8007aec:	f8dd 8080 	ldr.w	r8, [sp, #128]	; 0x80
 8007af0:	e9cd 6700 	strd	r6, r7, [sp]
 8007af4:	b93d      	cbnz	r5, 8007b06 <_dtoa_r+0x2e>
 8007af6:	2010      	movs	r0, #16
 8007af8:	f000 fdb4 	bl	8008664 <malloc>
 8007afc:	6260      	str	r0, [r4, #36]	; 0x24
 8007afe:	e9c0 5501 	strd	r5, r5, [r0, #4]
 8007b02:	6005      	str	r5, [r0, #0]
 8007b04:	60c5      	str	r5, [r0, #12]
 8007b06:	6a63      	ldr	r3, [r4, #36]	; 0x24
 8007b08:	6819      	ldr	r1, [r3, #0]
 8007b0a:	b151      	cbz	r1, 8007b22 <_dtoa_r+0x4a>
 8007b0c:	685a      	ldr	r2, [r3, #4]
 8007b0e:	604a      	str	r2, [r1, #4]
 8007b10:	2301      	movs	r3, #1
 8007b12:	4093      	lsls	r3, r2
 8007b14:	608b      	str	r3, [r1, #8]
 8007b16:	4620      	mov	r0, r4
 8007b18:	f000 fdeb 	bl	80086f2 <_Bfree>
 8007b1c:	6a63      	ldr	r3, [r4, #36]	; 0x24
 8007b1e:	2200      	movs	r2, #0
 8007b20:	601a      	str	r2, [r3, #0]
 8007b22:	1e3b      	subs	r3, r7, #0
 8007b24:	bfbb      	ittet	lt
 8007b26:	f023 4300 	biclt.w	r3, r3, #2147483648	; 0x80000000
 8007b2a:	9301      	strlt	r3, [sp, #4]
 8007b2c:	2300      	movge	r3, #0
 8007b2e:	2201      	movlt	r2, #1
 8007b30:	bfac      	ite	ge
 8007b32:	f8c8 3000 	strge.w	r3, [r8]
 8007b36:	f8c8 2000 	strlt.w	r2, [r8]
 8007b3a:	4baf      	ldr	r3, [pc, #700]	; (8007df8 <_dtoa_r+0x320>)
 8007b3c:	f8dd 8004 	ldr.w	r8, [sp, #4]
 8007b40:	ea33 0308 	bics.w	r3, r3, r8
 8007b44:	d114      	bne.n	8007b70 <_dtoa_r+0x98>
 8007b46:	9a12      	ldr	r2, [sp, #72]	; 0x48
 8007b48:	f242 730f 	movw	r3, #9999	; 0x270f
 8007b4c:	6013      	str	r3, [r2, #0]
 8007b4e:	9b00      	ldr	r3, [sp, #0]
 8007b50:	b923      	cbnz	r3, 8007b5c <_dtoa_r+0x84>
 8007b52:	f3c8 0013 	ubfx	r0, r8, #0, #20
 8007b56:	2800      	cmp	r0, #0
 8007b58:	f000 8542 	beq.w	80085e0 <_dtoa_r+0xb08>
 8007b5c:	9b21      	ldr	r3, [sp, #132]	; 0x84
 8007b5e:	f8df b2ac 	ldr.w	fp, [pc, #684]	; 8007e0c <_dtoa_r+0x334>
 8007b62:	2b00      	cmp	r3, #0
 8007b64:	f000 8544 	beq.w	80085f0 <_dtoa_r+0xb18>
 8007b68:	f10b 0303 	add.w	r3, fp, #3
 8007b6c:	f000 bd3e 	b.w	80085ec <_dtoa_r+0xb14>
 8007b70:	e9dd 6700 	ldrd	r6, r7, [sp]
 8007b74:	2200      	movs	r2, #0
 8007b76:	2300      	movs	r3, #0
 8007b78:	4630      	mov	r0, r6
 8007b7a:	4639      	mov	r1, r7
 8007b7c:	f7f8 ffa4 	bl	8000ac8 <__aeabi_dcmpeq>
 8007b80:	4681      	mov	r9, r0
 8007b82:	b168      	cbz	r0, 8007ba0 <_dtoa_r+0xc8>
 8007b84:	9a12      	ldr	r2, [sp, #72]	; 0x48
 8007b86:	2301      	movs	r3, #1
 8007b88:	6013      	str	r3, [r2, #0]
 8007b8a:	9b21      	ldr	r3, [sp, #132]	; 0x84
 8007b8c:	2b00      	cmp	r3, #0
 8007b8e:	f000 8524 	beq.w	80085da <_dtoa_r+0xb02>
 8007b92:	4b9a      	ldr	r3, [pc, #616]	; (8007dfc <_dtoa_r+0x324>)
 8007b94:	9a21      	ldr	r2, [sp, #132]	; 0x84
 8007b96:	f103 3bff 	add.w	fp, r3, #4294967295
 8007b9a:	6013      	str	r3, [r2, #0]
 8007b9c:	f000 bd28 	b.w	80085f0 <_dtoa_r+0xb18>
 8007ba0:	aa14      	add	r2, sp, #80	; 0x50
 8007ba2:	a915      	add	r1, sp, #84	; 0x54
 8007ba4:	ec47 6b10 	vmov	d0, r6, r7
 8007ba8:	4620      	mov	r0, r4
 8007baa:	f000 fffa 	bl	8008ba2 <__d2b>
 8007bae:	f3c8 550a 	ubfx	r5, r8, #20, #11
 8007bb2:	9004      	str	r0, [sp, #16]
 8007bb4:	2d00      	cmp	r5, #0
 8007bb6:	d07c      	beq.n	8007cb2 <_dtoa_r+0x1da>
 8007bb8:	f3c7 0313 	ubfx	r3, r7, #0, #20
 8007bbc:	f043 5b7f 	orr.w	fp, r3, #1069547520	; 0x3fc00000
 8007bc0:	46b2      	mov	sl, r6
 8007bc2:	f44b 1b40 	orr.w	fp, fp, #3145728	; 0x300000
 8007bc6:	f2a5 35ff 	subw	r5, r5, #1023	; 0x3ff
 8007bca:	f8cd 904c 	str.w	r9, [sp, #76]	; 0x4c
 8007bce:	2200      	movs	r2, #0
 8007bd0:	4b8b      	ldr	r3, [pc, #556]	; (8007e00 <_dtoa_r+0x328>)
 8007bd2:	4650      	mov	r0, sl
 8007bd4:	4659      	mov	r1, fp
 8007bd6:	f7f8 fb57 	bl	8000288 <__aeabi_dsub>
 8007bda:	a381      	add	r3, pc, #516	; (adr r3, 8007de0 <_dtoa_r+0x308>)
 8007bdc:	e9d3 2300 	ldrd	r2, r3, [r3]
 8007be0:	f7f8 fd0a 	bl	80005f8 <__aeabi_dmul>
 8007be4:	a380      	add	r3, pc, #512	; (adr r3, 8007de8 <_dtoa_r+0x310>)
 8007be6:	e9d3 2300 	ldrd	r2, r3, [r3]
 8007bea:	f7f8 fb4f 	bl	800028c <__adddf3>
 8007bee:	4606      	mov	r6, r0
 8007bf0:	4628      	mov	r0, r5
 8007bf2:	460f      	mov	r7, r1
 8007bf4:	f7f8 fc96 	bl	8000524 <__aeabi_i2d>
 8007bf8:	a37d      	add	r3, pc, #500	; (adr r3, 8007df0 <_dtoa_r+0x318>)
 8007bfa:	e9d3 2300 	ldrd	r2, r3, [r3]
 8007bfe:	f7f8 fcfb 	bl	80005f8 <__aeabi_dmul>
 8007c02:	4602      	mov	r2, r0
 8007c04:	460b      	mov	r3, r1
 8007c06:	4630      	mov	r0, r6
 8007c08:	4639      	mov	r1, r7
 8007c0a:	f7f8 fb3f 	bl	800028c <__adddf3>
 8007c0e:	4606      	mov	r6, r0
 8007c10:	460f      	mov	r7, r1
 8007c12:	f7f8 ffa1 	bl	8000b58 <__aeabi_d2iz>
 8007c16:	2200      	movs	r2, #0
 8007c18:	4682      	mov	sl, r0
 8007c1a:	2300      	movs	r3, #0
 8007c1c:	4630      	mov	r0, r6
 8007c1e:	4639      	mov	r1, r7
 8007c20:	f7f8 ff5c 	bl	8000adc <__aeabi_dcmplt>
 8007c24:	b148      	cbz	r0, 8007c3a <_dtoa_r+0x162>
 8007c26:	4650      	mov	r0, sl
 8007c28:	f7f8 fc7c 	bl	8000524 <__aeabi_i2d>
 8007c2c:	4632      	mov	r2, r6
 8007c2e:	463b      	mov	r3, r7
 8007c30:	f7f8 ff4a 	bl	8000ac8 <__aeabi_dcmpeq>
 8007c34:	b908      	cbnz	r0, 8007c3a <_dtoa_r+0x162>
 8007c36:	f10a 3aff 	add.w	sl, sl, #4294967295
 8007c3a:	f1ba 0f16 	cmp.w	sl, #22
 8007c3e:	d859      	bhi.n	8007cf4 <_dtoa_r+0x21c>
 8007c40:	4970      	ldr	r1, [pc, #448]	; (8007e04 <_dtoa_r+0x32c>)
 8007c42:	eb01 01ca 	add.w	r1, r1, sl, lsl #3
 8007c46:	e9dd 2300 	ldrd	r2, r3, [sp]
 8007c4a:	e9d1 0100 	ldrd	r0, r1, [r1]
 8007c4e:	f7f8 ff63 	bl	8000b18 <__aeabi_dcmpgt>
 8007c52:	2800      	cmp	r0, #0
 8007c54:	d050      	beq.n	8007cf8 <_dtoa_r+0x220>
 8007c56:	f10a 3aff 	add.w	sl, sl, #4294967295
 8007c5a:	2300      	movs	r3, #0
 8007c5c:	930f      	str	r3, [sp, #60]	; 0x3c
 8007c5e:	9b14      	ldr	r3, [sp, #80]	; 0x50
 8007c60:	1b5d      	subs	r5, r3, r5
 8007c62:	f1b5 0801 	subs.w	r8, r5, #1
 8007c66:	bf49      	itett	mi
 8007c68:	f1c5 0301 	rsbmi	r3, r5, #1
 8007c6c:	2300      	movpl	r3, #0
 8007c6e:	9305      	strmi	r3, [sp, #20]
 8007c70:	f04f 0800 	movmi.w	r8, #0
 8007c74:	bf58      	it	pl
 8007c76:	9305      	strpl	r3, [sp, #20]
 8007c78:	f1ba 0f00 	cmp.w	sl, #0
 8007c7c:	db3e      	blt.n	8007cfc <_dtoa_r+0x224>
 8007c7e:	2300      	movs	r3, #0
 8007c80:	44d0      	add	r8, sl
 8007c82:	f8cd a038 	str.w	sl, [sp, #56]	; 0x38
 8007c86:	9307      	str	r3, [sp, #28]
 8007c88:	9b06      	ldr	r3, [sp, #24]
 8007c8a:	2b09      	cmp	r3, #9
 8007c8c:	f200 8090 	bhi.w	8007db0 <_dtoa_r+0x2d8>
 8007c90:	2b05      	cmp	r3, #5
 8007c92:	bfc4      	itt	gt
 8007c94:	3b04      	subgt	r3, #4
 8007c96:	9306      	strgt	r3, [sp, #24]
 8007c98:	9b06      	ldr	r3, [sp, #24]
 8007c9a:	f1a3 0302 	sub.w	r3, r3, #2
 8007c9e:	bfcc      	ite	gt
 8007ca0:	2500      	movgt	r5, #0
 8007ca2:	2501      	movle	r5, #1
 8007ca4:	2b03      	cmp	r3, #3
 8007ca6:	f200 808f 	bhi.w	8007dc8 <_dtoa_r+0x2f0>
 8007caa:	e8df f003 	tbb	[pc, r3]
 8007cae:	7f7d      	.short	0x7f7d
 8007cb0:	7131      	.short	0x7131
 8007cb2:	e9dd 5314 	ldrd	r5, r3, [sp, #80]	; 0x50
 8007cb6:	441d      	add	r5, r3
 8007cb8:	f205 4032 	addw	r0, r5, #1074	; 0x432
 8007cbc:	2820      	cmp	r0, #32
 8007cbe:	dd13      	ble.n	8007ce8 <_dtoa_r+0x210>
 8007cc0:	f1c0 0040 	rsb	r0, r0, #64	; 0x40
 8007cc4:	9b00      	ldr	r3, [sp, #0]
 8007cc6:	fa08 f800 	lsl.w	r8, r8, r0
 8007cca:	f205 4012 	addw	r0, r5, #1042	; 0x412
 8007cce:	fa23 f000 	lsr.w	r0, r3, r0
 8007cd2:	ea48 0000 	orr.w	r0, r8, r0
 8007cd6:	f7f8 fc15 	bl	8000504 <__aeabi_ui2d>
 8007cda:	2301      	movs	r3, #1
 8007cdc:	4682      	mov	sl, r0
 8007cde:	f1a1 7bf8 	sub.w	fp, r1, #32505856	; 0x1f00000
 8007ce2:	3d01      	subs	r5, #1
 8007ce4:	9313      	str	r3, [sp, #76]	; 0x4c
 8007ce6:	e772      	b.n	8007bce <_dtoa_r+0xf6>
 8007ce8:	9b00      	ldr	r3, [sp, #0]
 8007cea:	f1c0 0020 	rsb	r0, r0, #32
 8007cee:	fa03 f000 	lsl.w	r0, r3, r0
 8007cf2:	e7f0      	b.n	8007cd6 <_dtoa_r+0x1fe>
 8007cf4:	2301      	movs	r3, #1
 8007cf6:	e7b1      	b.n	8007c5c <_dtoa_r+0x184>
 8007cf8:	900f      	str	r0, [sp, #60]	; 0x3c
 8007cfa:	e7b0      	b.n	8007c5e <_dtoa_r+0x186>
 8007cfc:	9b05      	ldr	r3, [sp, #20]
 8007cfe:	eba3 030a 	sub.w	r3, r3, sl
 8007d02:	9305      	str	r3, [sp, #20]
 8007d04:	f1ca 0300 	rsb	r3, sl, #0
 8007d08:	9307      	str	r3, [sp, #28]
 8007d0a:	2300      	movs	r3, #0
 8007d0c:	930e      	str	r3, [sp, #56]	; 0x38
 8007d0e:	e7bb      	b.n	8007c88 <_dtoa_r+0x1b0>
 8007d10:	2301      	movs	r3, #1
 8007d12:	930a      	str	r3, [sp, #40]	; 0x28
 8007d14:	9b0b      	ldr	r3, [sp, #44]	; 0x2c
 8007d16:	2b00      	cmp	r3, #0
 8007d18:	dd59      	ble.n	8007dce <_dtoa_r+0x2f6>
 8007d1a:	9302      	str	r3, [sp, #8]
 8007d1c:	4699      	mov	r9, r3
 8007d1e:	6a66      	ldr	r6, [r4, #36]	; 0x24
 8007d20:	2200      	movs	r2, #0
 8007d22:	6072      	str	r2, [r6, #4]
 8007d24:	2204      	movs	r2, #4
 8007d26:	f102 0014 	add.w	r0, r2, #20
 8007d2a:	4298      	cmp	r0, r3
 8007d2c:	6871      	ldr	r1, [r6, #4]
 8007d2e:	d953      	bls.n	8007dd8 <_dtoa_r+0x300>
 8007d30:	4620      	mov	r0, r4
 8007d32:	f000 fcaa 	bl	800868a <_Balloc>
 8007d36:	6a63      	ldr	r3, [r4, #36]	; 0x24
 8007d38:	6030      	str	r0, [r6, #0]
 8007d3a:	f1b9 0f0e 	cmp.w	r9, #14
 8007d3e:	f8d3 b000 	ldr.w	fp, [r3]
 8007d42:	f200 80e6 	bhi.w	8007f12 <_dtoa_r+0x43a>
 8007d46:	2d00      	cmp	r5, #0
 8007d48:	f000 80e3 	beq.w	8007f12 <_dtoa_r+0x43a>
 8007d4c:	ed9d 7b00 	vldr	d7, [sp]
 8007d50:	f1ba 0f00 	cmp.w	sl, #0
 8007d54:	ed8d 7b10 	vstr	d7, [sp, #64]	; 0x40
 8007d58:	dd74      	ble.n	8007e44 <_dtoa_r+0x36c>
 8007d5a:	4a2a      	ldr	r2, [pc, #168]	; (8007e04 <_dtoa_r+0x32c>)
 8007d5c:	f00a 030f 	and.w	r3, sl, #15
 8007d60:	eb02 03c3 	add.w	r3, r2, r3, lsl #3
 8007d64:	ed93 7b00 	vldr	d7, [r3]
 8007d68:	ea4f 162a 	mov.w	r6, sl, asr #4
 8007d6c:	06f0      	lsls	r0, r6, #27
 8007d6e:	ed8d 7b08 	vstr	d7, [sp, #32]
 8007d72:	d565      	bpl.n	8007e40 <_dtoa_r+0x368>
 8007d74:	4b24      	ldr	r3, [pc, #144]	; (8007e08 <_dtoa_r+0x330>)
 8007d76:	e9dd 0110 	ldrd	r0, r1, [sp, #64]	; 0x40
 8007d7a:	e9d3 2308 	ldrd	r2, r3, [r3, #32]
 8007d7e:	f7f8 fd65 	bl	800084c <__aeabi_ddiv>
 8007d82:	e9cd 0100 	strd	r0, r1, [sp]
 8007d86:	f006 060f 	and.w	r6, r6, #15
 8007d8a:	2503      	movs	r5, #3
 8007d8c:	4f1e      	ldr	r7, [pc, #120]	; (8007e08 <_dtoa_r+0x330>)
 8007d8e:	e04c      	b.n	8007e2a <_dtoa_r+0x352>
 8007d90:	2301      	movs	r3, #1
 8007d92:	930a      	str	r3, [sp, #40]	; 0x28
 8007d94:	9b0b      	ldr	r3, [sp, #44]	; 0x2c
 8007d96:	4453      	add	r3, sl
 8007d98:	f103 0901 	add.w	r9, r3, #1
 8007d9c:	9302      	str	r3, [sp, #8]
 8007d9e:	464b      	mov	r3, r9
 8007da0:	2b01      	cmp	r3, #1
 8007da2:	bfb8      	it	lt
 8007da4:	2301      	movlt	r3, #1
 8007da6:	e7ba      	b.n	8007d1e <_dtoa_r+0x246>
 8007da8:	2300      	movs	r3, #0
 8007daa:	e7b2      	b.n	8007d12 <_dtoa_r+0x23a>
 8007dac:	2300      	movs	r3, #0
 8007dae:	e7f0      	b.n	8007d92 <_dtoa_r+0x2ba>
 8007db0:	2501      	movs	r5, #1
 8007db2:	2300      	movs	r3, #0
 8007db4:	9306      	str	r3, [sp, #24]
 8007db6:	950a      	str	r5, [sp, #40]	; 0x28
 8007db8:	f04f 33ff 	mov.w	r3, #4294967295
 8007dbc:	9302      	str	r3, [sp, #8]
 8007dbe:	4699      	mov	r9, r3
 8007dc0:	2200      	movs	r2, #0
 8007dc2:	2312      	movs	r3, #18
 8007dc4:	920b      	str	r2, [sp, #44]	; 0x2c
 8007dc6:	e7aa      	b.n	8007d1e <_dtoa_r+0x246>
 8007dc8:	2301      	movs	r3, #1
 8007dca:	930a      	str	r3, [sp, #40]	; 0x28
 8007dcc:	e7f4      	b.n	8007db8 <_dtoa_r+0x2e0>
 8007dce:	2301      	movs	r3, #1
 8007dd0:	9302      	str	r3, [sp, #8]
 8007dd2:	4699      	mov	r9, r3
 8007dd4:	461a      	mov	r2, r3
 8007dd6:	e7f5      	b.n	8007dc4 <_dtoa_r+0x2ec>
 8007dd8:	3101      	adds	r1, #1
 8007dda:	6071      	str	r1, [r6, #4]
 8007ddc:	0052      	lsls	r2, r2, #1
 8007dde:	e7a2      	b.n	8007d26 <_dtoa_r+0x24e>
 8007de0:	636f4361 	.word	0x636f4361
 8007de4:	3fd287a7 	.word	0x3fd287a7
 8007de8:	8b60c8b3 	.word	0x8b60c8b3
 8007dec:	3fc68a28 	.word	0x3fc68a28
 8007df0:	509f79fb 	.word	0x509f79fb
 8007df4:	3fd34413 	.word	0x3fd34413
 8007df8:	7ff00000 	.word	0x7ff00000
 8007dfc:	0800bde1 	.word	0x0800bde1
 8007e00:	3ff80000 	.word	0x3ff80000
 8007e04:	0800be40 	.word	0x0800be40
 8007e08:	0800be18 	.word	0x0800be18
 8007e0c:	0800be0d 	.word	0x0800be0d
 8007e10:	07f1      	lsls	r1, r6, #31
 8007e12:	d508      	bpl.n	8007e26 <_dtoa_r+0x34e>
 8007e14:	e9dd 0108 	ldrd	r0, r1, [sp, #32]
 8007e18:	e9d7 2300 	ldrd	r2, r3, [r7]
 8007e1c:	f7f8 fbec 	bl	80005f8 <__aeabi_dmul>
 8007e20:	e9cd 0108 	strd	r0, r1, [sp, #32]
 8007e24:	3501      	adds	r5, #1
 8007e26:	1076      	asrs	r6, r6, #1
 8007e28:	3708      	adds	r7, #8
 8007e2a:	2e00      	cmp	r6, #0
 8007e2c:	d1f0      	bne.n	8007e10 <_dtoa_r+0x338>
 8007e2e:	e9dd 2308 	ldrd	r2, r3, [sp, #32]
 8007e32:	e9dd 0100 	ldrd	r0, r1, [sp]
 8007e36:	f7f8 fd09 	bl	800084c <__aeabi_ddiv>
 8007e3a:	e9cd 0100 	strd	r0, r1, [sp]
 8007e3e:	e01a      	b.n	8007e76 <_dtoa_r+0x39e>
 8007e40:	2502      	movs	r5, #2
 8007e42:	e7a3      	b.n	8007d8c <_dtoa_r+0x2b4>
 8007e44:	f000 80a0 	beq.w	8007f88 <_dtoa_r+0x4b0>
 8007e48:	f1ca 0600 	rsb	r6, sl, #0
 8007e4c:	4b9f      	ldr	r3, [pc, #636]	; (80080cc <_dtoa_r+0x5f4>)
 8007e4e:	4fa0      	ldr	r7, [pc, #640]	; (80080d0 <_dtoa_r+0x5f8>)
 8007e50:	f006 020f 	and.w	r2, r6, #15
 8007e54:	eb03 03c2 	add.w	r3, r3, r2, lsl #3
 8007e58:	e9d3 2300 	ldrd	r2, r3, [r3]
 8007e5c:	e9dd 0110 	ldrd	r0, r1, [sp, #64]	; 0x40
 8007e60:	f7f8 fbca 	bl	80005f8 <__aeabi_dmul>
 8007e64:	e9cd 0100 	strd	r0, r1, [sp]
 8007e68:	1136      	asrs	r6, r6, #4
 8007e6a:	2300      	movs	r3, #0
 8007e6c:	2502      	movs	r5, #2
 8007e6e:	2e00      	cmp	r6, #0
 8007e70:	d17f      	bne.n	8007f72 <_dtoa_r+0x49a>
 8007e72:	2b00      	cmp	r3, #0
 8007e74:	d1e1      	bne.n	8007e3a <_dtoa_r+0x362>
 8007e76:	9b0f      	ldr	r3, [sp, #60]	; 0x3c
 8007e78:	2b00      	cmp	r3, #0
 8007e7a:	f000 8087 	beq.w	8007f8c <_dtoa_r+0x4b4>
 8007e7e:	e9dd 6700 	ldrd	r6, r7, [sp]
 8007e82:	2200      	movs	r2, #0
 8007e84:	4b93      	ldr	r3, [pc, #588]	; (80080d4 <_dtoa_r+0x5fc>)
 8007e86:	4630      	mov	r0, r6
 8007e88:	4639      	mov	r1, r7
 8007e8a:	f7f8 fe27 	bl	8000adc <__aeabi_dcmplt>
 8007e8e:	2800      	cmp	r0, #0
 8007e90:	d07c      	beq.n	8007f8c <_dtoa_r+0x4b4>
 8007e92:	f1b9 0f00 	cmp.w	r9, #0
 8007e96:	d079      	beq.n	8007f8c <_dtoa_r+0x4b4>
 8007e98:	9b02      	ldr	r3, [sp, #8]
 8007e9a:	2b00      	cmp	r3, #0
 8007e9c:	dd35      	ble.n	8007f0a <_dtoa_r+0x432>
 8007e9e:	f10a 33ff 	add.w	r3, sl, #4294967295
 8007ea2:	9308      	str	r3, [sp, #32]
 8007ea4:	4639      	mov	r1, r7
 8007ea6:	2200      	movs	r2, #0
 8007ea8:	4b8b      	ldr	r3, [pc, #556]	; (80080d8 <_dtoa_r+0x600>)
 8007eaa:	4630      	mov	r0, r6
 8007eac:	f7f8 fba4 	bl	80005f8 <__aeabi_dmul>
 8007eb0:	e9cd 0100 	strd	r0, r1, [sp]
 8007eb4:	9f02      	ldr	r7, [sp, #8]
 8007eb6:	3501      	adds	r5, #1
 8007eb8:	4628      	mov	r0, r5
 8007eba:	f7f8 fb33 	bl	8000524 <__aeabi_i2d>
 8007ebe:	e9dd 2300 	ldrd	r2, r3, [sp]
 8007ec2:	f7f8 fb99 	bl	80005f8 <__aeabi_dmul>
 8007ec6:	2200      	movs	r2, #0
 8007ec8:	4b84      	ldr	r3, [pc, #528]	; (80080dc <_dtoa_r+0x604>)
 8007eca:	f7f8 f9df 	bl	800028c <__adddf3>
 8007ece:	4605      	mov	r5, r0
 8007ed0:	f1a1 7650 	sub.w	r6, r1, #54525952	; 0x3400000
 8007ed4:	2f00      	cmp	r7, #0
 8007ed6:	d15d      	bne.n	8007f94 <_dtoa_r+0x4bc>
 8007ed8:	2200      	movs	r2, #0
 8007eda:	4b81      	ldr	r3, [pc, #516]	; (80080e0 <_dtoa_r+0x608>)
 8007edc:	e9dd 0100 	ldrd	r0, r1, [sp]
 8007ee0:	f7f8 f9d2 	bl	8000288 <__aeabi_dsub>
 8007ee4:	462a      	mov	r2, r5
 8007ee6:	4633      	mov	r3, r6
 8007ee8:	e9cd 0100 	strd	r0, r1, [sp]
 8007eec:	f7f8 fe14 	bl	8000b18 <__aeabi_dcmpgt>
 8007ef0:	2800      	cmp	r0, #0
 8007ef2:	f040 8288 	bne.w	8008406 <_dtoa_r+0x92e>
 8007ef6:	462a      	mov	r2, r5
 8007ef8:	f106 4300 	add.w	r3, r6, #2147483648	; 0x80000000
 8007efc:	e9dd 0100 	ldrd	r0, r1, [sp]
 8007f00:	f7f8 fdec 	bl	8000adc <__aeabi_dcmplt>
 8007f04:	2800      	cmp	r0, #0
 8007f06:	f040 827c 	bne.w	8008402 <_dtoa_r+0x92a>
 8007f0a:	e9dd 2310 	ldrd	r2, r3, [sp, #64]	; 0x40
 8007f0e:	e9cd 2300 	strd	r2, r3, [sp]
 8007f12:	9b15      	ldr	r3, [sp, #84]	; 0x54
 8007f14:	2b00      	cmp	r3, #0
 8007f16:	f2c0 8150 	blt.w	80081ba <_dtoa_r+0x6e2>
 8007f1a:	f1ba 0f0e 	cmp.w	sl, #14
 8007f1e:	f300 814c 	bgt.w	80081ba <_dtoa_r+0x6e2>
 8007f22:	4b6a      	ldr	r3, [pc, #424]	; (80080cc <_dtoa_r+0x5f4>)
 8007f24:	eb03 03ca 	add.w	r3, r3, sl, lsl #3
 8007f28:	ed93 7b00 	vldr	d7, [r3]
 8007f2c:	9b0b      	ldr	r3, [sp, #44]	; 0x2c
 8007f2e:	2b00      	cmp	r3, #0
 8007f30:	ed8d 7b02 	vstr	d7, [sp, #8]
 8007f34:	f280 80d8 	bge.w	80080e8 <_dtoa_r+0x610>
 8007f38:	f1b9 0f00 	cmp.w	r9, #0
 8007f3c:	f300 80d4 	bgt.w	80080e8 <_dtoa_r+0x610>
 8007f40:	f040 825e 	bne.w	8008400 <_dtoa_r+0x928>
 8007f44:	2200      	movs	r2, #0
 8007f46:	4b66      	ldr	r3, [pc, #408]	; (80080e0 <_dtoa_r+0x608>)
 8007f48:	ec51 0b17 	vmov	r0, r1, d7
 8007f4c:	f7f8 fb54 	bl	80005f8 <__aeabi_dmul>
 8007f50:	e9dd 2300 	ldrd	r2, r3, [sp]
 8007f54:	f7f8 fdd6 	bl	8000b04 <__aeabi_dcmpge>
 8007f58:	464f      	mov	r7, r9
 8007f5a:	464e      	mov	r6, r9
 8007f5c:	2800      	cmp	r0, #0
 8007f5e:	f040 8234 	bne.w	80083ca <_dtoa_r+0x8f2>
 8007f62:	2331      	movs	r3, #49	; 0x31
 8007f64:	f10b 0501 	add.w	r5, fp, #1
 8007f68:	f88b 3000 	strb.w	r3, [fp]
 8007f6c:	f10a 0a01 	add.w	sl, sl, #1
 8007f70:	e22f      	b.n	80083d2 <_dtoa_r+0x8fa>
 8007f72:	07f2      	lsls	r2, r6, #31
 8007f74:	d505      	bpl.n	8007f82 <_dtoa_r+0x4aa>
 8007f76:	e9d7 2300 	ldrd	r2, r3, [r7]
 8007f7a:	f7f8 fb3d 	bl	80005f8 <__aeabi_dmul>
 8007f7e:	3501      	adds	r5, #1
 8007f80:	2301      	movs	r3, #1
 8007f82:	1076      	asrs	r6, r6, #1
 8007f84:	3708      	adds	r7, #8
 8007f86:	e772      	b.n	8007e6e <_dtoa_r+0x396>
 8007f88:	2502      	movs	r5, #2
 8007f8a:	e774      	b.n	8007e76 <_dtoa_r+0x39e>
 8007f8c:	f8cd a020 	str.w	sl, [sp, #32]
 8007f90:	464f      	mov	r7, r9
 8007f92:	e791      	b.n	8007eb8 <_dtoa_r+0x3e0>
 8007f94:	4b4d      	ldr	r3, [pc, #308]	; (80080cc <_dtoa_r+0x5f4>)
 8007f96:	eb03 03c7 	add.w	r3, r3, r7, lsl #3
 8007f9a:	e953 0102 	ldrd	r0, r1, [r3, #-8]
 8007f9e:	9b0a      	ldr	r3, [sp, #40]	; 0x28
 8007fa0:	2b00      	cmp	r3, #0
 8007fa2:	d047      	beq.n	8008034 <_dtoa_r+0x55c>
 8007fa4:	4602      	mov	r2, r0
 8007fa6:	460b      	mov	r3, r1
 8007fa8:	2000      	movs	r0, #0
 8007faa:	494e      	ldr	r1, [pc, #312]	; (80080e4 <_dtoa_r+0x60c>)
 8007fac:	f7f8 fc4e 	bl	800084c <__aeabi_ddiv>
 8007fb0:	462a      	mov	r2, r5
 8007fb2:	4633      	mov	r3, r6
 8007fb4:	f7f8 f968 	bl	8000288 <__aeabi_dsub>
 8007fb8:	e9cd 010c 	strd	r0, r1, [sp, #48]	; 0x30
 8007fbc:	465d      	mov	r5, fp
 8007fbe:	e9dd 0100 	ldrd	r0, r1, [sp]
 8007fc2:	f7f8 fdc9 	bl	8000b58 <__aeabi_d2iz>
 8007fc6:	4606      	mov	r6, r0
 8007fc8:	f7f8 faac 	bl	8000524 <__aeabi_i2d>
 8007fcc:	4602      	mov	r2, r0
 8007fce:	460b      	mov	r3, r1
 8007fd0:	e9dd 0100 	ldrd	r0, r1, [sp]
 8007fd4:	f7f8 f958 	bl	8000288 <__aeabi_dsub>
 8007fd8:	3630      	adds	r6, #48	; 0x30
 8007fda:	f805 6b01 	strb.w	r6, [r5], #1
 8007fde:	e9dd 230c 	ldrd	r2, r3, [sp, #48]	; 0x30
 8007fe2:	e9cd 0100 	strd	r0, r1, [sp]
 8007fe6:	f7f8 fd79 	bl	8000adc <__aeabi_dcmplt>
 8007fea:	2800      	cmp	r0, #0
 8007fec:	d163      	bne.n	80080b6 <_dtoa_r+0x5de>
 8007fee:	e9dd 2300 	ldrd	r2, r3, [sp]
 8007ff2:	2000      	movs	r0, #0
 8007ff4:	4937      	ldr	r1, [pc, #220]	; (80080d4 <_dtoa_r+0x5fc>)
 8007ff6:	f7f8 f947 	bl	8000288 <__aeabi_dsub>
 8007ffa:	e9dd 230c 	ldrd	r2, r3, [sp, #48]	; 0x30
 8007ffe:	f7f8 fd6d 	bl	8000adc <__aeabi_dcmplt>
 8008002:	2800      	cmp	r0, #0
 8008004:	f040 80b7 	bne.w	8008176 <_dtoa_r+0x69e>
 8008008:	eba5 030b 	sub.w	r3, r5, fp
 800800c:	429f      	cmp	r7, r3
 800800e:	f77f af7c 	ble.w	8007f0a <_dtoa_r+0x432>
 8008012:	2200      	movs	r2, #0
 8008014:	4b30      	ldr	r3, [pc, #192]	; (80080d8 <_dtoa_r+0x600>)
 8008016:	e9dd 010c 	ldrd	r0, r1, [sp, #48]	; 0x30
 800801a:	f7f8 faed 	bl	80005f8 <__aeabi_dmul>
 800801e:	2200      	movs	r2, #0
 8008020:	e9cd 010c 	strd	r0, r1, [sp, #48]	; 0x30
 8008024:	4b2c      	ldr	r3, [pc, #176]	; (80080d8 <_dtoa_r+0x600>)
 8008026:	e9dd 0100 	ldrd	r0, r1, [sp]
 800802a:	f7f8 fae5 	bl	80005f8 <__aeabi_dmul>
 800802e:	e9cd 0100 	strd	r0, r1, [sp]
 8008032:	e7c4      	b.n	8007fbe <_dtoa_r+0x4e6>
 8008034:	462a      	mov	r2, r5
 8008036:	4633      	mov	r3, r6
 8008038:	f7f8 fade 	bl	80005f8 <__aeabi_dmul>
 800803c:	e9cd 010c 	strd	r0, r1, [sp, #48]	; 0x30
 8008040:	eb0b 0507 	add.w	r5, fp, r7
 8008044:	465e      	mov	r6, fp
 8008046:	e9dd 0100 	ldrd	r0, r1, [sp]
 800804a:	f7f8 fd85 	bl	8000b58 <__aeabi_d2iz>
 800804e:	4607      	mov	r7, r0
 8008050:	f7f8 fa68 	bl	8000524 <__aeabi_i2d>
 8008054:	3730      	adds	r7, #48	; 0x30
 8008056:	4602      	mov	r2, r0
 8008058:	460b      	mov	r3, r1
 800805a:	e9dd 0100 	ldrd	r0, r1, [sp]
 800805e:	f7f8 f913 	bl	8000288 <__aeabi_dsub>
 8008062:	f806 7b01 	strb.w	r7, [r6], #1
 8008066:	42ae      	cmp	r6, r5
 8008068:	e9cd 0100 	strd	r0, r1, [sp]
 800806c:	f04f 0200 	mov.w	r2, #0
 8008070:	d126      	bne.n	80080c0 <_dtoa_r+0x5e8>
 8008072:	4b1c      	ldr	r3, [pc, #112]	; (80080e4 <_dtoa_r+0x60c>)
 8008074:	e9dd 010c 	ldrd	r0, r1, [sp, #48]	; 0x30
 8008078:	f7f8 f908 	bl	800028c <__adddf3>
 800807c:	4602      	mov	r2, r0
 800807e:	460b      	mov	r3, r1
 8008080:	e9dd 0100 	ldrd	r0, r1, [sp]
 8008084:	f7f8 fd48 	bl	8000b18 <__aeabi_dcmpgt>
 8008088:	2800      	cmp	r0, #0
 800808a:	d174      	bne.n	8008176 <_dtoa_r+0x69e>
 800808c:	e9dd 230c 	ldrd	r2, r3, [sp, #48]	; 0x30
 8008090:	2000      	movs	r0, #0
 8008092:	4914      	ldr	r1, [pc, #80]	; (80080e4 <_dtoa_r+0x60c>)
 8008094:	f7f8 f8f8 	bl	8000288 <__aeabi_dsub>
 8008098:	4602      	mov	r2, r0
 800809a:	460b      	mov	r3, r1
 800809c:	e9dd 0100 	ldrd	r0, r1, [sp]
 80080a0:	f7f8 fd1c 	bl	8000adc <__aeabi_dcmplt>
 80080a4:	2800      	cmp	r0, #0
 80080a6:	f43f af30 	beq.w	8007f0a <_dtoa_r+0x432>
 80080aa:	f815 3c01 	ldrb.w	r3, [r5, #-1]
 80080ae:	2b30      	cmp	r3, #48	; 0x30
 80080b0:	f105 32ff 	add.w	r2, r5, #4294967295
 80080b4:	d002      	beq.n	80080bc <_dtoa_r+0x5e4>
 80080b6:	f8dd a020 	ldr.w	sl, [sp, #32]
 80080ba:	e04a      	b.n	8008152 <_dtoa_r+0x67a>
 80080bc:	4615      	mov	r5, r2
 80080be:	e7f4      	b.n	80080aa <_dtoa_r+0x5d2>
 80080c0:	4b05      	ldr	r3, [pc, #20]	; (80080d8 <_dtoa_r+0x600>)
 80080c2:	f7f8 fa99 	bl	80005f8 <__aeabi_dmul>
 80080c6:	e9cd 0100 	strd	r0, r1, [sp]
 80080ca:	e7bc      	b.n	8008046 <_dtoa_r+0x56e>
 80080cc:	0800be40 	.word	0x0800be40
 80080d0:	0800be18 	.word	0x0800be18
 80080d4:	3ff00000 	.word	0x3ff00000
 80080d8:	40240000 	.word	0x40240000
 80080dc:	401c0000 	.word	0x401c0000
 80080e0:	40140000 	.word	0x40140000
 80080e4:	3fe00000 	.word	0x3fe00000
 80080e8:	e9dd 6700 	ldrd	r6, r7, [sp]
 80080ec:	465d      	mov	r5, fp
 80080ee:	e9dd 2302 	ldrd	r2, r3, [sp, #8]
 80080f2:	4630      	mov	r0, r6
 80080f4:	4639      	mov	r1, r7
 80080f6:	f7f8 fba9 	bl	800084c <__aeabi_ddiv>
 80080fa:	f7f8 fd2d 	bl	8000b58 <__aeabi_d2iz>
 80080fe:	4680      	mov	r8, r0
 8008100:	f7f8 fa10 	bl	8000524 <__aeabi_i2d>
 8008104:	e9dd 2302 	ldrd	r2, r3, [sp, #8]
 8008108:	f7f8 fa76 	bl	80005f8 <__aeabi_dmul>
 800810c:	4602      	mov	r2, r0
 800810e:	460b      	mov	r3, r1
 8008110:	4630      	mov	r0, r6
 8008112:	4639      	mov	r1, r7
 8008114:	f108 0630 	add.w	r6, r8, #48	; 0x30
 8008118:	f7f8 f8b6 	bl	8000288 <__aeabi_dsub>
 800811c:	f805 6b01 	strb.w	r6, [r5], #1
 8008120:	eba5 060b 	sub.w	r6, r5, fp
 8008124:	45b1      	cmp	r9, r6
 8008126:	4602      	mov	r2, r0
 8008128:	460b      	mov	r3, r1
 800812a:	d139      	bne.n	80081a0 <_dtoa_r+0x6c8>
 800812c:	f7f8 f8ae 	bl	800028c <__adddf3>
 8008130:	e9dd 2302 	ldrd	r2, r3, [sp, #8]
 8008134:	4606      	mov	r6, r0
 8008136:	460f      	mov	r7, r1
 8008138:	f7f8 fcee 	bl	8000b18 <__aeabi_dcmpgt>
 800813c:	b9c8      	cbnz	r0, 8008172 <_dtoa_r+0x69a>
 800813e:	e9dd 2302 	ldrd	r2, r3, [sp, #8]
 8008142:	4630      	mov	r0, r6
 8008144:	4639      	mov	r1, r7
 8008146:	f7f8 fcbf 	bl	8000ac8 <__aeabi_dcmpeq>
 800814a:	b110      	cbz	r0, 8008152 <_dtoa_r+0x67a>
 800814c:	f018 0f01 	tst.w	r8, #1
 8008150:	d10f      	bne.n	8008172 <_dtoa_r+0x69a>
 8008152:	9904      	ldr	r1, [sp, #16]
 8008154:	4620      	mov	r0, r4
 8008156:	f000 facc 	bl	80086f2 <_Bfree>
 800815a:	2300      	movs	r3, #0
 800815c:	9a12      	ldr	r2, [sp, #72]	; 0x48
 800815e:	702b      	strb	r3, [r5, #0]
 8008160:	f10a 0301 	add.w	r3, sl, #1
 8008164:	6013      	str	r3, [r2, #0]
 8008166:	9b21      	ldr	r3, [sp, #132]	; 0x84
 8008168:	2b00      	cmp	r3, #0
 800816a:	f000 8241 	beq.w	80085f0 <_dtoa_r+0xb18>
 800816e:	601d      	str	r5, [r3, #0]
 8008170:	e23e      	b.n	80085f0 <_dtoa_r+0xb18>
 8008172:	f8cd a020 	str.w	sl, [sp, #32]
 8008176:	f815 2c01 	ldrb.w	r2, [r5, #-1]
 800817a:	2a39      	cmp	r2, #57	; 0x39
 800817c:	f105 33ff 	add.w	r3, r5, #4294967295
 8008180:	d108      	bne.n	8008194 <_dtoa_r+0x6bc>
 8008182:	459b      	cmp	fp, r3
 8008184:	d10a      	bne.n	800819c <_dtoa_r+0x6c4>
 8008186:	9b08      	ldr	r3, [sp, #32]
 8008188:	3301      	adds	r3, #1
 800818a:	9308      	str	r3, [sp, #32]
 800818c:	2330      	movs	r3, #48	; 0x30
 800818e:	f88b 3000 	strb.w	r3, [fp]
 8008192:	465b      	mov	r3, fp
 8008194:	781a      	ldrb	r2, [r3, #0]
 8008196:	3201      	adds	r2, #1
 8008198:	701a      	strb	r2, [r3, #0]
 800819a:	e78c      	b.n	80080b6 <_dtoa_r+0x5de>
 800819c:	461d      	mov	r5, r3
 800819e:	e7ea      	b.n	8008176 <_dtoa_r+0x69e>
 80081a0:	2200      	movs	r2, #0
 80081a2:	4b9b      	ldr	r3, [pc, #620]	; (8008410 <_dtoa_r+0x938>)
 80081a4:	f7f8 fa28 	bl	80005f8 <__aeabi_dmul>
 80081a8:	2200      	movs	r2, #0
 80081aa:	2300      	movs	r3, #0
 80081ac:	4606      	mov	r6, r0
 80081ae:	460f      	mov	r7, r1
 80081b0:	f7f8 fc8a 	bl	8000ac8 <__aeabi_dcmpeq>
 80081b4:	2800      	cmp	r0, #0
 80081b6:	d09a      	beq.n	80080ee <_dtoa_r+0x616>
 80081b8:	e7cb      	b.n	8008152 <_dtoa_r+0x67a>
 80081ba:	9a0a      	ldr	r2, [sp, #40]	; 0x28
 80081bc:	2a00      	cmp	r2, #0
 80081be:	f000 808b 	beq.w	80082d8 <_dtoa_r+0x800>
 80081c2:	9a06      	ldr	r2, [sp, #24]
 80081c4:	2a01      	cmp	r2, #1
 80081c6:	dc6e      	bgt.n	80082a6 <_dtoa_r+0x7ce>
 80081c8:	9a13      	ldr	r2, [sp, #76]	; 0x4c
 80081ca:	2a00      	cmp	r2, #0
 80081cc:	d067      	beq.n	800829e <_dtoa_r+0x7c6>
 80081ce:	f203 4333 	addw	r3, r3, #1075	; 0x433
 80081d2:	9f07      	ldr	r7, [sp, #28]
 80081d4:	9d05      	ldr	r5, [sp, #20]
 80081d6:	9a05      	ldr	r2, [sp, #20]
 80081d8:	2101      	movs	r1, #1
 80081da:	441a      	add	r2, r3
 80081dc:	4620      	mov	r0, r4
 80081de:	9205      	str	r2, [sp, #20]
 80081e0:	4498      	add	r8, r3
 80081e2:	f000 fb26 	bl	8008832 <__i2b>
 80081e6:	4606      	mov	r6, r0
 80081e8:	2d00      	cmp	r5, #0
 80081ea:	dd0c      	ble.n	8008206 <_dtoa_r+0x72e>
 80081ec:	f1b8 0f00 	cmp.w	r8, #0
 80081f0:	dd09      	ble.n	8008206 <_dtoa_r+0x72e>
 80081f2:	4545      	cmp	r5, r8
 80081f4:	9a05      	ldr	r2, [sp, #20]
 80081f6:	462b      	mov	r3, r5
 80081f8:	bfa8      	it	ge
 80081fa:	4643      	movge	r3, r8
 80081fc:	1ad2      	subs	r2, r2, r3
 80081fe:	9205      	str	r2, [sp, #20]
 8008200:	1aed      	subs	r5, r5, r3
 8008202:	eba8 0803 	sub.w	r8, r8, r3
 8008206:	9b07      	ldr	r3, [sp, #28]
 8008208:	b1eb      	cbz	r3, 8008246 <_dtoa_r+0x76e>
 800820a:	9b0a      	ldr	r3, [sp, #40]	; 0x28
 800820c:	2b00      	cmp	r3, #0
 800820e:	d067      	beq.n	80082e0 <_dtoa_r+0x808>
 8008210:	b18f      	cbz	r7, 8008236 <_dtoa_r+0x75e>
 8008212:	4631      	mov	r1, r6
 8008214:	463a      	mov	r2, r7
 8008216:	4620      	mov	r0, r4
 8008218:	f000 fbaa 	bl	8008970 <__pow5mult>
 800821c:	9a04      	ldr	r2, [sp, #16]
 800821e:	4601      	mov	r1, r0
 8008220:	4606      	mov	r6, r0
 8008222:	4620      	mov	r0, r4
 8008224:	f000 fb0e 	bl	8008844 <__multiply>
 8008228:	9904      	ldr	r1, [sp, #16]
 800822a:	9008      	str	r0, [sp, #32]
 800822c:	4620      	mov	r0, r4
 800822e:	f000 fa60 	bl	80086f2 <_Bfree>
 8008232:	9b08      	ldr	r3, [sp, #32]
 8008234:	9304      	str	r3, [sp, #16]
 8008236:	9b07      	ldr	r3, [sp, #28]
 8008238:	1bda      	subs	r2, r3, r7
 800823a:	d004      	beq.n	8008246 <_dtoa_r+0x76e>
 800823c:	9904      	ldr	r1, [sp, #16]
 800823e:	4620      	mov	r0, r4
 8008240:	f000 fb96 	bl	8008970 <__pow5mult>
 8008244:	9004      	str	r0, [sp, #16]
 8008246:	2101      	movs	r1, #1
 8008248:	4620      	mov	r0, r4
 800824a:	f000 faf2 	bl	8008832 <__i2b>
 800824e:	9b0e      	ldr	r3, [sp, #56]	; 0x38
 8008250:	4607      	mov	r7, r0
 8008252:	2b00      	cmp	r3, #0
 8008254:	f000 81d0 	beq.w	80085f8 <_dtoa_r+0xb20>
 8008258:	461a      	mov	r2, r3
 800825a:	4601      	mov	r1, r0
 800825c:	4620      	mov	r0, r4
 800825e:	f000 fb87 	bl	8008970 <__pow5mult>
 8008262:	9b06      	ldr	r3, [sp, #24]
 8008264:	2b01      	cmp	r3, #1
 8008266:	4607      	mov	r7, r0
 8008268:	dc40      	bgt.n	80082ec <_dtoa_r+0x814>
 800826a:	9b00      	ldr	r3, [sp, #0]
 800826c:	2b00      	cmp	r3, #0
 800826e:	d139      	bne.n	80082e4 <_dtoa_r+0x80c>
 8008270:	9b01      	ldr	r3, [sp, #4]
 8008272:	f3c3 0313 	ubfx	r3, r3, #0, #20
 8008276:	2b00      	cmp	r3, #0
 8008278:	d136      	bne.n	80082e8 <_dtoa_r+0x810>
 800827a:	9b01      	ldr	r3, [sp, #4]
 800827c:	f023 4300 	bic.w	r3, r3, #2147483648	; 0x80000000
 8008280:	0d1b      	lsrs	r3, r3, #20
 8008282:	051b      	lsls	r3, r3, #20
 8008284:	b12b      	cbz	r3, 8008292 <_dtoa_r+0x7ba>
 8008286:	9b05      	ldr	r3, [sp, #20]
 8008288:	3301      	adds	r3, #1
 800828a:	9305      	str	r3, [sp, #20]
 800828c:	f108 0801 	add.w	r8, r8, #1
 8008290:	2301      	movs	r3, #1
 8008292:	9307      	str	r3, [sp, #28]
 8008294:	9b0e      	ldr	r3, [sp, #56]	; 0x38
 8008296:	2b00      	cmp	r3, #0
 8008298:	d12a      	bne.n	80082f0 <_dtoa_r+0x818>
 800829a:	2001      	movs	r0, #1
 800829c:	e030      	b.n	8008300 <_dtoa_r+0x828>
 800829e:	9b14      	ldr	r3, [sp, #80]	; 0x50
 80082a0:	f1c3 0336 	rsb	r3, r3, #54	; 0x36
 80082a4:	e795      	b.n	80081d2 <_dtoa_r+0x6fa>
 80082a6:	9b07      	ldr	r3, [sp, #28]
 80082a8:	f109 37ff 	add.w	r7, r9, #4294967295
 80082ac:	42bb      	cmp	r3, r7
 80082ae:	bfbf      	itttt	lt
 80082b0:	9b07      	ldrlt	r3, [sp, #28]
 80082b2:	9707      	strlt	r7, [sp, #28]
 80082b4:	1afa      	sublt	r2, r7, r3
 80082b6:	9b0e      	ldrlt	r3, [sp, #56]	; 0x38
 80082b8:	bfbb      	ittet	lt
 80082ba:	189b      	addlt	r3, r3, r2
 80082bc:	930e      	strlt	r3, [sp, #56]	; 0x38
 80082be:	1bdf      	subge	r7, r3, r7
 80082c0:	2700      	movlt	r7, #0
 80082c2:	f1b9 0f00 	cmp.w	r9, #0
 80082c6:	bfb5      	itete	lt
 80082c8:	9b05      	ldrlt	r3, [sp, #20]
 80082ca:	9d05      	ldrge	r5, [sp, #20]
 80082cc:	eba3 0509 	sublt.w	r5, r3, r9
 80082d0:	464b      	movge	r3, r9
 80082d2:	bfb8      	it	lt
 80082d4:	2300      	movlt	r3, #0
 80082d6:	e77e      	b.n	80081d6 <_dtoa_r+0x6fe>
 80082d8:	9f07      	ldr	r7, [sp, #28]
 80082da:	9d05      	ldr	r5, [sp, #20]
 80082dc:	9e0a      	ldr	r6, [sp, #40]	; 0x28
 80082de:	e783      	b.n	80081e8 <_dtoa_r+0x710>
 80082e0:	9a07      	ldr	r2, [sp, #28]
 80082e2:	e7ab      	b.n	800823c <_dtoa_r+0x764>
 80082e4:	2300      	movs	r3, #0
 80082e6:	e7d4      	b.n	8008292 <_dtoa_r+0x7ba>
 80082e8:	9b00      	ldr	r3, [sp, #0]
 80082ea:	e7d2      	b.n	8008292 <_dtoa_r+0x7ba>
 80082ec:	2300      	movs	r3, #0
 80082ee:	9307      	str	r3, [sp, #28]
 80082f0:	693b      	ldr	r3, [r7, #16]
 80082f2:	eb07 0383 	add.w	r3, r7, r3, lsl #2
 80082f6:	6918      	ldr	r0, [r3, #16]
 80082f8:	f000 fa4d 	bl	8008796 <__hi0bits>
 80082fc:	f1c0 0020 	rsb	r0, r0, #32
 8008300:	4440      	add	r0, r8
 8008302:	f010 001f 	ands.w	r0, r0, #31
 8008306:	d047      	beq.n	8008398 <_dtoa_r+0x8c0>
 8008308:	f1c0 0320 	rsb	r3, r0, #32
 800830c:	2b04      	cmp	r3, #4
 800830e:	dd3b      	ble.n	8008388 <_dtoa_r+0x8b0>
 8008310:	9b05      	ldr	r3, [sp, #20]
 8008312:	f1c0 001c 	rsb	r0, r0, #28
 8008316:	4403      	add	r3, r0
 8008318:	9305      	str	r3, [sp, #20]
 800831a:	4405      	add	r5, r0
 800831c:	4480      	add	r8, r0
 800831e:	9b05      	ldr	r3, [sp, #20]
 8008320:	2b00      	cmp	r3, #0
 8008322:	dd05      	ble.n	8008330 <_dtoa_r+0x858>
 8008324:	461a      	mov	r2, r3
 8008326:	9904      	ldr	r1, [sp, #16]
 8008328:	4620      	mov	r0, r4
 800832a:	f000 fb6f 	bl	8008a0c <__lshift>
 800832e:	9004      	str	r0, [sp, #16]
 8008330:	f1b8 0f00 	cmp.w	r8, #0
 8008334:	dd05      	ble.n	8008342 <_dtoa_r+0x86a>
 8008336:	4639      	mov	r1, r7
 8008338:	4642      	mov	r2, r8
 800833a:	4620      	mov	r0, r4
 800833c:	f000 fb66 	bl	8008a0c <__lshift>
 8008340:	4607      	mov	r7, r0
 8008342:	9b0f      	ldr	r3, [sp, #60]	; 0x3c
 8008344:	b353      	cbz	r3, 800839c <_dtoa_r+0x8c4>
 8008346:	4639      	mov	r1, r7
 8008348:	9804      	ldr	r0, [sp, #16]
 800834a:	f000 fbb3 	bl	8008ab4 <__mcmp>
 800834e:	2800      	cmp	r0, #0
 8008350:	da24      	bge.n	800839c <_dtoa_r+0x8c4>
 8008352:	2300      	movs	r3, #0
 8008354:	220a      	movs	r2, #10
 8008356:	9904      	ldr	r1, [sp, #16]
 8008358:	4620      	mov	r0, r4
 800835a:	f000 f9e1 	bl	8008720 <__multadd>
 800835e:	9b0a      	ldr	r3, [sp, #40]	; 0x28
 8008360:	9004      	str	r0, [sp, #16]
 8008362:	f10a 3aff 	add.w	sl, sl, #4294967295
 8008366:	2b00      	cmp	r3, #0
 8008368:	f000 814d 	beq.w	8008606 <_dtoa_r+0xb2e>
 800836c:	2300      	movs	r3, #0
 800836e:	4631      	mov	r1, r6
 8008370:	220a      	movs	r2, #10
 8008372:	4620      	mov	r0, r4
 8008374:	f000 f9d4 	bl	8008720 <__multadd>
 8008378:	9b02      	ldr	r3, [sp, #8]
 800837a:	2b00      	cmp	r3, #0
 800837c:	4606      	mov	r6, r0
 800837e:	dc4f      	bgt.n	8008420 <_dtoa_r+0x948>
 8008380:	9b06      	ldr	r3, [sp, #24]
 8008382:	2b02      	cmp	r3, #2
 8008384:	dd4c      	ble.n	8008420 <_dtoa_r+0x948>
 8008386:	e011      	b.n	80083ac <_dtoa_r+0x8d4>
 8008388:	d0c9      	beq.n	800831e <_dtoa_r+0x846>
 800838a:	9a05      	ldr	r2, [sp, #20]
 800838c:	331c      	adds	r3, #28
 800838e:	441a      	add	r2, r3
 8008390:	9205      	str	r2, [sp, #20]
 8008392:	441d      	add	r5, r3
 8008394:	4498      	add	r8, r3
 8008396:	e7c2      	b.n	800831e <_dtoa_r+0x846>
 8008398:	4603      	mov	r3, r0
 800839a:	e7f6      	b.n	800838a <_dtoa_r+0x8b2>
 800839c:	f1b9 0f00 	cmp.w	r9, #0
 80083a0:	dc38      	bgt.n	8008414 <_dtoa_r+0x93c>
 80083a2:	9b06      	ldr	r3, [sp, #24]
 80083a4:	2b02      	cmp	r3, #2
 80083a6:	dd35      	ble.n	8008414 <_dtoa_r+0x93c>
 80083a8:	f8cd 9008 	str.w	r9, [sp, #8]
 80083ac:	9b02      	ldr	r3, [sp, #8]
 80083ae:	b963      	cbnz	r3, 80083ca <_dtoa_r+0x8f2>
 80083b0:	4639      	mov	r1, r7
 80083b2:	2205      	movs	r2, #5
 80083b4:	4620      	mov	r0, r4
 80083b6:	f000 f9b3 	bl	8008720 <__multadd>
 80083ba:	4601      	mov	r1, r0
 80083bc:	4607      	mov	r7, r0
 80083be:	9804      	ldr	r0, [sp, #16]
 80083c0:	f000 fb78 	bl	8008ab4 <__mcmp>
 80083c4:	2800      	cmp	r0, #0
 80083c6:	f73f adcc 	bgt.w	8007f62 <_dtoa_r+0x48a>
 80083ca:	9b0b      	ldr	r3, [sp, #44]	; 0x2c
 80083cc:	465d      	mov	r5, fp
 80083ce:	ea6f 0a03 	mvn.w	sl, r3
 80083d2:	f04f 0900 	mov.w	r9, #0
 80083d6:	4639      	mov	r1, r7
 80083d8:	4620      	mov	r0, r4
 80083da:	f000 f98a 	bl	80086f2 <_Bfree>
 80083de:	2e00      	cmp	r6, #0
 80083e0:	f43f aeb7 	beq.w	8008152 <_dtoa_r+0x67a>
 80083e4:	f1b9 0f00 	cmp.w	r9, #0
 80083e8:	d005      	beq.n	80083f6 <_dtoa_r+0x91e>
 80083ea:	45b1      	cmp	r9, r6
 80083ec:	d003      	beq.n	80083f6 <_dtoa_r+0x91e>
 80083ee:	4649      	mov	r1, r9
 80083f0:	4620      	mov	r0, r4
 80083f2:	f000 f97e 	bl	80086f2 <_Bfree>
 80083f6:	4631      	mov	r1, r6
 80083f8:	4620      	mov	r0, r4
 80083fa:	f000 f97a 	bl	80086f2 <_Bfree>
 80083fe:	e6a8      	b.n	8008152 <_dtoa_r+0x67a>
 8008400:	2700      	movs	r7, #0
 8008402:	463e      	mov	r6, r7
 8008404:	e7e1      	b.n	80083ca <_dtoa_r+0x8f2>
 8008406:	f8dd a020 	ldr.w	sl, [sp, #32]
 800840a:	463e      	mov	r6, r7
 800840c:	e5a9      	b.n	8007f62 <_dtoa_r+0x48a>
 800840e:	bf00      	nop
 8008410:	40240000 	.word	0x40240000
 8008414:	9b0a      	ldr	r3, [sp, #40]	; 0x28
 8008416:	f8cd 9008 	str.w	r9, [sp, #8]
 800841a:	2b00      	cmp	r3, #0
 800841c:	f000 80fa 	beq.w	8008614 <_dtoa_r+0xb3c>
 8008420:	2d00      	cmp	r5, #0
 8008422:	dd05      	ble.n	8008430 <_dtoa_r+0x958>
 8008424:	4631      	mov	r1, r6
 8008426:	462a      	mov	r2, r5
 8008428:	4620      	mov	r0, r4
 800842a:	f000 faef 	bl	8008a0c <__lshift>
 800842e:	4606      	mov	r6, r0
 8008430:	9b07      	ldr	r3, [sp, #28]
 8008432:	2b00      	cmp	r3, #0
 8008434:	d04c      	beq.n	80084d0 <_dtoa_r+0x9f8>
 8008436:	6871      	ldr	r1, [r6, #4]
 8008438:	4620      	mov	r0, r4
 800843a:	f000 f926 	bl	800868a <_Balloc>
 800843e:	6932      	ldr	r2, [r6, #16]
 8008440:	3202      	adds	r2, #2
 8008442:	4605      	mov	r5, r0
 8008444:	0092      	lsls	r2, r2, #2
 8008446:	f106 010c 	add.w	r1, r6, #12
 800844a:	300c      	adds	r0, #12
 800844c:	f000 f912 	bl	8008674 <memcpy>
 8008450:	2201      	movs	r2, #1
 8008452:	4629      	mov	r1, r5
 8008454:	4620      	mov	r0, r4
 8008456:	f000 fad9 	bl	8008a0c <__lshift>
 800845a:	9b00      	ldr	r3, [sp, #0]
 800845c:	f8cd b014 	str.w	fp, [sp, #20]
 8008460:	f003 0301 	and.w	r3, r3, #1
 8008464:	46b1      	mov	r9, r6
 8008466:	9307      	str	r3, [sp, #28]
 8008468:	4606      	mov	r6, r0
 800846a:	4639      	mov	r1, r7
 800846c:	9804      	ldr	r0, [sp, #16]
 800846e:	f7ff faa7 	bl	80079c0 <quorem>
 8008472:	4649      	mov	r1, r9
 8008474:	4605      	mov	r5, r0
 8008476:	f100 0830 	add.w	r8, r0, #48	; 0x30
 800847a:	9804      	ldr	r0, [sp, #16]
 800847c:	f000 fb1a 	bl	8008ab4 <__mcmp>
 8008480:	4632      	mov	r2, r6
 8008482:	9000      	str	r0, [sp, #0]
 8008484:	4639      	mov	r1, r7
 8008486:	4620      	mov	r0, r4
 8008488:	f000 fb2e 	bl	8008ae8 <__mdiff>
 800848c:	68c3      	ldr	r3, [r0, #12]
 800848e:	4602      	mov	r2, r0
 8008490:	bb03      	cbnz	r3, 80084d4 <_dtoa_r+0x9fc>
 8008492:	4601      	mov	r1, r0
 8008494:	9008      	str	r0, [sp, #32]
 8008496:	9804      	ldr	r0, [sp, #16]
 8008498:	f000 fb0c 	bl	8008ab4 <__mcmp>
 800849c:	9a08      	ldr	r2, [sp, #32]
 800849e:	4603      	mov	r3, r0
 80084a0:	4611      	mov	r1, r2
 80084a2:	4620      	mov	r0, r4
 80084a4:	9308      	str	r3, [sp, #32]
 80084a6:	f000 f924 	bl	80086f2 <_Bfree>
 80084aa:	9b08      	ldr	r3, [sp, #32]
 80084ac:	b9a3      	cbnz	r3, 80084d8 <_dtoa_r+0xa00>
 80084ae:	9a06      	ldr	r2, [sp, #24]
 80084b0:	b992      	cbnz	r2, 80084d8 <_dtoa_r+0xa00>
 80084b2:	9a07      	ldr	r2, [sp, #28]
 80084b4:	b982      	cbnz	r2, 80084d8 <_dtoa_r+0xa00>
 80084b6:	f1b8 0f39 	cmp.w	r8, #57	; 0x39
 80084ba:	d029      	beq.n	8008510 <_dtoa_r+0xa38>
 80084bc:	9b00      	ldr	r3, [sp, #0]
 80084be:	2b00      	cmp	r3, #0
 80084c0:	dd01      	ble.n	80084c6 <_dtoa_r+0x9ee>
 80084c2:	f105 0831 	add.w	r8, r5, #49	; 0x31
 80084c6:	9b05      	ldr	r3, [sp, #20]
 80084c8:	1c5d      	adds	r5, r3, #1
 80084ca:	f883 8000 	strb.w	r8, [r3]
 80084ce:	e782      	b.n	80083d6 <_dtoa_r+0x8fe>
 80084d0:	4630      	mov	r0, r6
 80084d2:	e7c2      	b.n	800845a <_dtoa_r+0x982>
 80084d4:	2301      	movs	r3, #1
 80084d6:	e7e3      	b.n	80084a0 <_dtoa_r+0x9c8>
 80084d8:	9a00      	ldr	r2, [sp, #0]
 80084da:	2a00      	cmp	r2, #0
 80084dc:	db04      	blt.n	80084e8 <_dtoa_r+0xa10>
 80084de:	d125      	bne.n	800852c <_dtoa_r+0xa54>
 80084e0:	9a06      	ldr	r2, [sp, #24]
 80084e2:	bb1a      	cbnz	r2, 800852c <_dtoa_r+0xa54>
 80084e4:	9a07      	ldr	r2, [sp, #28]
 80084e6:	bb0a      	cbnz	r2, 800852c <_dtoa_r+0xa54>
 80084e8:	2b00      	cmp	r3, #0
 80084ea:	ddec      	ble.n	80084c6 <_dtoa_r+0x9ee>
 80084ec:	2201      	movs	r2, #1
 80084ee:	9904      	ldr	r1, [sp, #16]
 80084f0:	4620      	mov	r0, r4
 80084f2:	f000 fa8b 	bl	8008a0c <__lshift>
 80084f6:	4639      	mov	r1, r7
 80084f8:	9004      	str	r0, [sp, #16]
 80084fa:	f000 fadb 	bl	8008ab4 <__mcmp>
 80084fe:	2800      	cmp	r0, #0
 8008500:	dc03      	bgt.n	800850a <_dtoa_r+0xa32>
 8008502:	d1e0      	bne.n	80084c6 <_dtoa_r+0x9ee>
 8008504:	f018 0f01 	tst.w	r8, #1
 8008508:	d0dd      	beq.n	80084c6 <_dtoa_r+0x9ee>
 800850a:	f1b8 0f39 	cmp.w	r8, #57	; 0x39
 800850e:	d1d8      	bne.n	80084c2 <_dtoa_r+0x9ea>
 8008510:	9b05      	ldr	r3, [sp, #20]
 8008512:	9a05      	ldr	r2, [sp, #20]
 8008514:	1c5d      	adds	r5, r3, #1
 8008516:	2339      	movs	r3, #57	; 0x39
 8008518:	7013      	strb	r3, [r2, #0]
 800851a:	f815 3c01 	ldrb.w	r3, [r5, #-1]
 800851e:	2b39      	cmp	r3, #57	; 0x39
 8008520:	f105 32ff 	add.w	r2, r5, #4294967295
 8008524:	d04f      	beq.n	80085c6 <_dtoa_r+0xaee>
 8008526:	3301      	adds	r3, #1
 8008528:	7013      	strb	r3, [r2, #0]
 800852a:	e754      	b.n	80083d6 <_dtoa_r+0x8fe>
 800852c:	9a05      	ldr	r2, [sp, #20]
 800852e:	2b00      	cmp	r3, #0
 8008530:	f102 0501 	add.w	r5, r2, #1
 8008534:	dd06      	ble.n	8008544 <_dtoa_r+0xa6c>
 8008536:	f1b8 0f39 	cmp.w	r8, #57	; 0x39
 800853a:	d0e9      	beq.n	8008510 <_dtoa_r+0xa38>
 800853c:	f108 0801 	add.w	r8, r8, #1
 8008540:	9b05      	ldr	r3, [sp, #20]
 8008542:	e7c2      	b.n	80084ca <_dtoa_r+0x9f2>
 8008544:	9a02      	ldr	r2, [sp, #8]
 8008546:	f805 8c01 	strb.w	r8, [r5, #-1]
 800854a:	eba5 030b 	sub.w	r3, r5, fp
 800854e:	4293      	cmp	r3, r2
 8008550:	d021      	beq.n	8008596 <_dtoa_r+0xabe>
 8008552:	2300      	movs	r3, #0
 8008554:	220a      	movs	r2, #10
 8008556:	9904      	ldr	r1, [sp, #16]
 8008558:	4620      	mov	r0, r4
 800855a:	f000 f8e1 	bl	8008720 <__multadd>
 800855e:	45b1      	cmp	r9, r6
 8008560:	9004      	str	r0, [sp, #16]
 8008562:	f04f 0300 	mov.w	r3, #0
 8008566:	f04f 020a 	mov.w	r2, #10
 800856a:	4649      	mov	r1, r9
 800856c:	4620      	mov	r0, r4
 800856e:	d105      	bne.n	800857c <_dtoa_r+0xaa4>
 8008570:	f000 f8d6 	bl	8008720 <__multadd>
 8008574:	4681      	mov	r9, r0
 8008576:	4606      	mov	r6, r0
 8008578:	9505      	str	r5, [sp, #20]
 800857a:	e776      	b.n	800846a <_dtoa_r+0x992>
 800857c:	f000 f8d0 	bl	8008720 <__multadd>
 8008580:	4631      	mov	r1, r6
 8008582:	4681      	mov	r9, r0
 8008584:	2300      	movs	r3, #0
 8008586:	220a      	movs	r2, #10
 8008588:	4620      	mov	r0, r4
 800858a:	f000 f8c9 	bl	8008720 <__multadd>
 800858e:	4606      	mov	r6, r0
 8008590:	e7f2      	b.n	8008578 <_dtoa_r+0xaa0>
 8008592:	f04f 0900 	mov.w	r9, #0
 8008596:	2201      	movs	r2, #1
 8008598:	9904      	ldr	r1, [sp, #16]
 800859a:	4620      	mov	r0, r4
 800859c:	f000 fa36 	bl	8008a0c <__lshift>
 80085a0:	4639      	mov	r1, r7
 80085a2:	9004      	str	r0, [sp, #16]
 80085a4:	f000 fa86 	bl	8008ab4 <__mcmp>
 80085a8:	2800      	cmp	r0, #0
 80085aa:	dcb6      	bgt.n	800851a <_dtoa_r+0xa42>
 80085ac:	d102      	bne.n	80085b4 <_dtoa_r+0xadc>
 80085ae:	f018 0f01 	tst.w	r8, #1
 80085b2:	d1b2      	bne.n	800851a <_dtoa_r+0xa42>
 80085b4:	f815 3c01 	ldrb.w	r3, [r5, #-1]
 80085b8:	2b30      	cmp	r3, #48	; 0x30
 80085ba:	f105 32ff 	add.w	r2, r5, #4294967295
 80085be:	f47f af0a 	bne.w	80083d6 <_dtoa_r+0x8fe>
 80085c2:	4615      	mov	r5, r2
 80085c4:	e7f6      	b.n	80085b4 <_dtoa_r+0xadc>
 80085c6:	4593      	cmp	fp, r2
 80085c8:	d105      	bne.n	80085d6 <_dtoa_r+0xafe>
 80085ca:	2331      	movs	r3, #49	; 0x31
 80085cc:	f10a 0a01 	add.w	sl, sl, #1
 80085d0:	f88b 3000 	strb.w	r3, [fp]
 80085d4:	e6ff      	b.n	80083d6 <_dtoa_r+0x8fe>
 80085d6:	4615      	mov	r5, r2
 80085d8:	e79f      	b.n	800851a <_dtoa_r+0xa42>
 80085da:	f8df b064 	ldr.w	fp, [pc, #100]	; 8008640 <_dtoa_r+0xb68>
 80085de:	e007      	b.n	80085f0 <_dtoa_r+0xb18>
 80085e0:	9b21      	ldr	r3, [sp, #132]	; 0x84
 80085e2:	f8df b060 	ldr.w	fp, [pc, #96]	; 8008644 <_dtoa_r+0xb6c>
 80085e6:	b11b      	cbz	r3, 80085f0 <_dtoa_r+0xb18>
 80085e8:	f10b 0308 	add.w	r3, fp, #8
 80085ec:	9a21      	ldr	r2, [sp, #132]	; 0x84
 80085ee:	6013      	str	r3, [r2, #0]
 80085f0:	4658      	mov	r0, fp
 80085f2:	b017      	add	sp, #92	; 0x5c
 80085f4:	e8bd 8ff0 	ldmia.w	sp!, {r4, r5, r6, r7, r8, r9, sl, fp, pc}
 80085f8:	9b06      	ldr	r3, [sp, #24]
 80085fa:	2b01      	cmp	r3, #1
 80085fc:	f77f ae35 	ble.w	800826a <_dtoa_r+0x792>
 8008600:	9b0e      	ldr	r3, [sp, #56]	; 0x38
 8008602:	9307      	str	r3, [sp, #28]
 8008604:	e649      	b.n	800829a <_dtoa_r+0x7c2>
 8008606:	9b02      	ldr	r3, [sp, #8]
 8008608:	2b00      	cmp	r3, #0
 800860a:	dc03      	bgt.n	8008614 <_dtoa_r+0xb3c>
 800860c:	9b06      	ldr	r3, [sp, #24]
 800860e:	2b02      	cmp	r3, #2
 8008610:	f73f aecc 	bgt.w	80083ac <_dtoa_r+0x8d4>
 8008614:	465d      	mov	r5, fp
 8008616:	4639      	mov	r1, r7
 8008618:	9804      	ldr	r0, [sp, #16]
 800861a:	f7ff f9d1 	bl	80079c0 <quorem>
 800861e:	f100 0830 	add.w	r8, r0, #48	; 0x30
 8008622:	f805 8b01 	strb.w	r8, [r5], #1
 8008626:	9a02      	ldr	r2, [sp, #8]
 8008628:	eba5 030b 	sub.w	r3, r5, fp
 800862c:	429a      	cmp	r2, r3
 800862e:	ddb0      	ble.n	8008592 <_dtoa_r+0xaba>
 8008630:	2300      	movs	r3, #0
 8008632:	220a      	movs	r2, #10
 8008634:	9904      	ldr	r1, [sp, #16]
 8008636:	4620      	mov	r0, r4
 8008638:	f000 f872 	bl	8008720 <__multadd>
 800863c:	9004      	str	r0, [sp, #16]
 800863e:	e7ea      	b.n	8008616 <_dtoa_r+0xb3e>
 8008640:	0800bde0 	.word	0x0800bde0
 8008644:	0800be04 	.word	0x0800be04

08008648 <_localeconv_r>:
 8008648:	4b04      	ldr	r3, [pc, #16]	; (800865c <_localeconv_r+0x14>)
 800864a:	681b      	ldr	r3, [r3, #0]
 800864c:	6a18      	ldr	r0, [r3, #32]
 800864e:	4b04      	ldr	r3, [pc, #16]	; (8008660 <_localeconv_r+0x18>)
 8008650:	2800      	cmp	r0, #0
 8008652:	bf08      	it	eq
 8008654:	4618      	moveq	r0, r3
 8008656:	30f0      	adds	r0, #240	; 0xf0
 8008658:	4770      	bx	lr
 800865a:	bf00      	nop
 800865c:	200002f8 	.word	0x200002f8
 8008660:	2000035c 	.word	0x2000035c

08008664 <malloc>:
 8008664:	4b02      	ldr	r3, [pc, #8]	; (8008670 <malloc+0xc>)
 8008666:	4601      	mov	r1, r0
 8008668:	6818      	ldr	r0, [r3, #0]
 800866a:	f000 bb45 	b.w	8008cf8 <_malloc_r>
 800866e:	bf00      	nop
 8008670:	200002f8 	.word	0x200002f8

08008674 <memcpy>:
 8008674:	b510      	push	{r4, lr}
 8008676:	1e43      	subs	r3, r0, #1
 8008678:	440a      	add	r2, r1
 800867a:	4291      	cmp	r1, r2
 800867c:	d100      	bne.n	8008680 <memcpy+0xc>
 800867e:	bd10      	pop	{r4, pc}
 8008680:	f811 4b01 	ldrb.w	r4, [r1], #1
 8008684:	f803 4f01 	strb.w	r4, [r3, #1]!
 8008688:	e7f7      	b.n	800867a <memcpy+0x6>

0800868a <_Balloc>:
 800868a:	b570      	push	{r4, r5, r6, lr}
 800868c:	6a45      	ldr	r5, [r0, #36]	; 0x24
 800868e:	4604      	mov	r4, r0
 8008690:	460e      	mov	r6, r1
 8008692:	b93d      	cbnz	r5, 80086a4 <_Balloc+0x1a>
 8008694:	2010      	movs	r0, #16
 8008696:	f7ff ffe5 	bl	8008664 <malloc>
 800869a:	6260      	str	r0, [r4, #36]	; 0x24
 800869c:	e9c0 5501 	strd	r5, r5, [r0, #4]
 80086a0:	6005      	str	r5, [r0, #0]
 80086a2:	60c5      	str	r5, [r0, #12]
 80086a4:	6a65      	ldr	r5, [r4, #36]	; 0x24
 80086a6:	68eb      	ldr	r3, [r5, #12]
 80086a8:	b183      	cbz	r3, 80086cc <_Balloc+0x42>
 80086aa:	6a63      	ldr	r3, [r4, #36]	; 0x24
 80086ac:	68db      	ldr	r3, [r3, #12]
 80086ae:	f853 0026 	ldr.w	r0, [r3, r6, lsl #2]
 80086b2:	b9b8      	cbnz	r0, 80086e4 <_Balloc+0x5a>
 80086b4:	2101      	movs	r1, #1
 80086b6:	fa01 f506 	lsl.w	r5, r1, r6
 80086ba:	1d6a      	adds	r2, r5, #5
 80086bc:	0092      	lsls	r2, r2, #2
 80086be:	4620      	mov	r0, r4
 80086c0:	f000 fabe 	bl	8008c40 <_calloc_r>
 80086c4:	b160      	cbz	r0, 80086e0 <_Balloc+0x56>
 80086c6:	e9c0 6501 	strd	r6, r5, [r0, #4]
 80086ca:	e00e      	b.n	80086ea <_Balloc+0x60>
 80086cc:	2221      	movs	r2, #33	; 0x21
 80086ce:	2104      	movs	r1, #4
 80086d0:	4620      	mov	r0, r4
 80086d2:	f000 fab5 	bl	8008c40 <_calloc_r>
 80086d6:	6a63      	ldr	r3, [r4, #36]	; 0x24
 80086d8:	60e8      	str	r0, [r5, #12]
 80086da:	68db      	ldr	r3, [r3, #12]
 80086dc:	2b00      	cmp	r3, #0
 80086de:	d1e4      	bne.n	80086aa <_Balloc+0x20>
 80086e0:	2000      	movs	r0, #0
 80086e2:	bd70      	pop	{r4, r5, r6, pc}
 80086e4:	6802      	ldr	r2, [r0, #0]
 80086e6:	f843 2026 	str.w	r2, [r3, r6, lsl #2]
 80086ea:	2300      	movs	r3, #0
 80086ec:	e9c0 3303 	strd	r3, r3, [r0, #12]
 80086f0:	e7f7      	b.n	80086e2 <_Balloc+0x58>

080086f2 <_Bfree>:
 80086f2:	b570      	push	{r4, r5, r6, lr}
 80086f4:	6a44      	ldr	r4, [r0, #36]	; 0x24
 80086f6:	4606      	mov	r6, r0
 80086f8:	460d      	mov	r5, r1
 80086fa:	b93c      	cbnz	r4, 800870c <_Bfree+0x1a>
 80086fc:	2010      	movs	r0, #16
 80086fe:	f7ff ffb1 	bl	8008664 <malloc>
 8008702:	6270      	str	r0, [r6, #36]	; 0x24
 8008704:	e9c0 4401 	strd	r4, r4, [r0, #4]
 8008708:	6004      	str	r4, [r0, #0]
 800870a:	60c4      	str	r4, [r0, #12]
 800870c:	b13d      	cbz	r5, 800871e <_Bfree+0x2c>
 800870e:	6a73      	ldr	r3, [r6, #36]	; 0x24
 8008710:	686a      	ldr	r2, [r5, #4]
 8008712:	68db      	ldr	r3, [r3, #12]
 8008714:	f853 1022 	ldr.w	r1, [r3, r2, lsl #2]
 8008718:	6029      	str	r1, [r5, #0]
 800871a:	f843 5022 	str.w	r5, [r3, r2, lsl #2]
 800871e:	bd70      	pop	{r4, r5, r6, pc}

08008720 <__multadd>:
 8008720:	e92d 41f0 	stmdb	sp!, {r4, r5, r6, r7, r8, lr}
 8008724:	690d      	ldr	r5, [r1, #16]
 8008726:	461f      	mov	r7, r3
 8008728:	4606      	mov	r6, r0
 800872a:	460c      	mov	r4, r1
 800872c:	f101 0c14 	add.w	ip, r1, #20
 8008730:	2300      	movs	r3, #0
 8008732:	f8dc 0000 	ldr.w	r0, [ip]
 8008736:	b281      	uxth	r1, r0
 8008738:	fb02 7101 	mla	r1, r2, r1, r7
 800873c:	0c0f      	lsrs	r7, r1, #16
 800873e:	0c00      	lsrs	r0, r0, #16
 8008740:	fb02 7000 	mla	r0, r2, r0, r7
 8008744:	b289      	uxth	r1, r1
 8008746:	3301      	adds	r3, #1
 8008748:	eb01 4100 	add.w	r1, r1, r0, lsl #16
 800874c:	429d      	cmp	r5, r3
 800874e:	ea4f 4710 	mov.w	r7, r0, lsr #16
 8008752:	f84c 1b04 	str.w	r1, [ip], #4
 8008756:	dcec      	bgt.n	8008732 <__multadd+0x12>
 8008758:	b1d7      	cbz	r7, 8008790 <__multadd+0x70>
 800875a:	68a3      	ldr	r3, [r4, #8]
 800875c:	42ab      	cmp	r3, r5
 800875e:	dc12      	bgt.n	8008786 <__multadd+0x66>
 8008760:	6861      	ldr	r1, [r4, #4]
 8008762:	4630      	mov	r0, r6
 8008764:	3101      	adds	r1, #1
 8008766:	f7ff ff90 	bl	800868a <_Balloc>
 800876a:	6922      	ldr	r2, [r4, #16]
 800876c:	3202      	adds	r2, #2
 800876e:	f104 010c 	add.w	r1, r4, #12
 8008772:	4680      	mov	r8, r0
 8008774:	0092      	lsls	r2, r2, #2
 8008776:	300c      	adds	r0, #12
 8008778:	f7ff ff7c 	bl	8008674 <memcpy>
 800877c:	4621      	mov	r1, r4
 800877e:	4630      	mov	r0, r6
 8008780:	f7ff ffb7 	bl	80086f2 <_Bfree>
 8008784:	4644      	mov	r4, r8
 8008786:	eb04 0385 	add.w	r3, r4, r5, lsl #2
 800878a:	3501      	adds	r5, #1
 800878c:	615f      	str	r7, [r3, #20]
 800878e:	6125      	str	r5, [r4, #16]
 8008790:	4620      	mov	r0, r4
 8008792:	e8bd 81f0 	ldmia.w	sp!, {r4, r5, r6, r7, r8, pc}

08008796 <__hi0bits>:
 8008796:	0c02      	lsrs	r2, r0, #16
 8008798:	0412      	lsls	r2, r2, #16
 800879a:	4603      	mov	r3, r0
 800879c:	b9b2      	cbnz	r2, 80087cc <__hi0bits+0x36>
 800879e:	0403      	lsls	r3, r0, #16
 80087a0:	2010      	movs	r0, #16
 80087a2:	f013 4f7f 	tst.w	r3, #4278190080	; 0xff000000
 80087a6:	bf04      	itt	eq
 80087a8:	021b      	lsleq	r3, r3, #8
 80087aa:	3008      	addeq	r0, #8
 80087ac:	f013 4f70 	tst.w	r3, #4026531840	; 0xf0000000
 80087b0:	bf04      	itt	eq
 80087b2:	011b      	lsleq	r3, r3, #4
 80087b4:	3004      	addeq	r0, #4
 80087b6:	f013 4f40 	tst.w	r3, #3221225472	; 0xc0000000
 80087ba:	bf04      	itt	eq
 80087bc:	009b      	lsleq	r3, r3, #2
 80087be:	3002      	addeq	r0, #2
 80087c0:	2b00      	cmp	r3, #0
 80087c2:	db06      	blt.n	80087d2 <__hi0bits+0x3c>
 80087c4:	005b      	lsls	r3, r3, #1
 80087c6:	d503      	bpl.n	80087d0 <__hi0bits+0x3a>
 80087c8:	3001      	adds	r0, #1
 80087ca:	4770      	bx	lr
 80087cc:	2000      	movs	r0, #0
 80087ce:	e7e8      	b.n	80087a2 <__hi0bits+0xc>
 80087d0:	2020      	movs	r0, #32
 80087d2:	4770      	bx	lr

080087d4 <__lo0bits>:
 80087d4:	6803      	ldr	r3, [r0, #0]
 80087d6:	f013 0207 	ands.w	r2, r3, #7
 80087da:	4601      	mov	r1, r0
 80087dc:	d00b      	beq.n	80087f6 <__lo0bits+0x22>
 80087de:	07da      	lsls	r2, r3, #31
 80087e0:	d423      	bmi.n	800882a <__lo0bits+0x56>
 80087e2:	0798      	lsls	r0, r3, #30
 80087e4:	bf49      	itett	mi
 80087e6:	085b      	lsrmi	r3, r3, #1
 80087e8:	089b      	lsrpl	r3, r3, #2
 80087ea:	2001      	movmi	r0, #1
 80087ec:	600b      	strmi	r3, [r1, #0]
 80087ee:	bf5c      	itt	pl
 80087f0:	600b      	strpl	r3, [r1, #0]
 80087f2:	2002      	movpl	r0, #2
 80087f4:	4770      	bx	lr
 80087f6:	b298      	uxth	r0, r3
 80087f8:	b9a8      	cbnz	r0, 8008826 <__lo0bits+0x52>
 80087fa:	0c1b      	lsrs	r3, r3, #16
 80087fc:	2010      	movs	r0, #16
 80087fe:	f013 0fff 	tst.w	r3, #255	; 0xff
 8008802:	bf04      	itt	eq
 8008804:	0a1b      	lsreq	r3, r3, #8
 8008806:	3008      	addeq	r0, #8
 8008808:	071a      	lsls	r2, r3, #28
 800880a:	bf04      	itt	eq
 800880c:	091b      	lsreq	r3, r3, #4
 800880e:	3004      	addeq	r0, #4
 8008810:	079a      	lsls	r2, r3, #30
 8008812:	bf04      	itt	eq
 8008814:	089b      	lsreq	r3, r3, #2
 8008816:	3002      	addeq	r0, #2
 8008818:	07da      	lsls	r2, r3, #31
 800881a:	d402      	bmi.n	8008822 <__lo0bits+0x4e>
 800881c:	085b      	lsrs	r3, r3, #1
 800881e:	d006      	beq.n	800882e <__lo0bits+0x5a>
 8008820:	3001      	adds	r0, #1
 8008822:	600b      	str	r3, [r1, #0]
 8008824:	4770      	bx	lr
 8008826:	4610      	mov	r0, r2
 8008828:	e7e9      	b.n	80087fe <__lo0bits+0x2a>
 800882a:	2000      	movs	r0, #0
 800882c:	4770      	bx	lr
 800882e:	2020      	movs	r0, #32
 8008830:	4770      	bx	lr

08008832 <__i2b>:
 8008832:	b510      	push	{r4, lr}
 8008834:	460c      	mov	r4, r1
 8008836:	2101      	movs	r1, #1
 8008838:	f7ff ff27 	bl	800868a <_Balloc>
 800883c:	2201      	movs	r2, #1
 800883e:	6144      	str	r4, [r0, #20]
 8008840:	6102      	str	r2, [r0, #16]
 8008842:	bd10      	pop	{r4, pc}

08008844 <__multiply>:
 8008844:	e92d 4ff7 	stmdb	sp!, {r0, r1, r2, r4, r5, r6, r7, r8, r9, sl, fp, lr}
 8008848:	4614      	mov	r4, r2
 800884a:	690a      	ldr	r2, [r1, #16]
 800884c:	6923      	ldr	r3, [r4, #16]
 800884e:	429a      	cmp	r2, r3
 8008850:	bfb8      	it	lt
 8008852:	460b      	movlt	r3, r1
 8008854:	4688      	mov	r8, r1
 8008856:	bfbc      	itt	lt
 8008858:	46a0      	movlt	r8, r4
 800885a:	461c      	movlt	r4, r3
 800885c:	f8d8 7010 	ldr.w	r7, [r8, #16]
 8008860:	f8d4 9010 	ldr.w	r9, [r4, #16]
 8008864:	f8d8 3008 	ldr.w	r3, [r8, #8]
 8008868:	f8d8 1004 	ldr.w	r1, [r8, #4]
 800886c:	eb07 0609 	add.w	r6, r7, r9
 8008870:	42b3      	cmp	r3, r6
 8008872:	bfb8      	it	lt
 8008874:	3101      	addlt	r1, #1
 8008876:	f7ff ff08 	bl	800868a <_Balloc>
 800887a:	f100 0514 	add.w	r5, r0, #20
 800887e:	eb05 0e86 	add.w	lr, r5, r6, lsl #2
 8008882:	462b      	mov	r3, r5
 8008884:	2200      	movs	r2, #0
 8008886:	4573      	cmp	r3, lr
 8008888:	d316      	bcc.n	80088b8 <__multiply+0x74>
 800888a:	f104 0214 	add.w	r2, r4, #20
 800888e:	f108 0114 	add.w	r1, r8, #20
 8008892:	eb02 0389 	add.w	r3, r2, r9, lsl #2
 8008896:	eb01 0787 	add.w	r7, r1, r7, lsl #2
 800889a:	9300      	str	r3, [sp, #0]
 800889c:	9b00      	ldr	r3, [sp, #0]
 800889e:	9201      	str	r2, [sp, #4]
 80088a0:	4293      	cmp	r3, r2
 80088a2:	d80c      	bhi.n	80088be <__multiply+0x7a>
 80088a4:	2e00      	cmp	r6, #0
 80088a6:	dd03      	ble.n	80088b0 <__multiply+0x6c>
 80088a8:	f85e 3d04 	ldr.w	r3, [lr, #-4]!
 80088ac:	2b00      	cmp	r3, #0
 80088ae:	d05d      	beq.n	800896c <__multiply+0x128>
 80088b0:	6106      	str	r6, [r0, #16]
 80088b2:	b003      	add	sp, #12
 80088b4:	e8bd 8ff0 	ldmia.w	sp!, {r4, r5, r6, r7, r8, r9, sl, fp, pc}
 80088b8:	f843 2b04 	str.w	r2, [r3], #4
 80088bc:	e7e3      	b.n	8008886 <__multiply+0x42>
 80088be:	f8b2 b000 	ldrh.w	fp, [r2]
 80088c2:	f1bb 0f00 	cmp.w	fp, #0
 80088c6:	d023      	beq.n	8008910 <__multiply+0xcc>
 80088c8:	4689      	mov	r9, r1
 80088ca:	46ac      	mov	ip, r5
 80088cc:	f04f 0800 	mov.w	r8, #0
 80088d0:	f859 4b04 	ldr.w	r4, [r9], #4
 80088d4:	f8dc a000 	ldr.w	sl, [ip]
 80088d8:	b2a3      	uxth	r3, r4
 80088da:	fa1f fa8a 	uxth.w	sl, sl
 80088de:	fb0b a303 	mla	r3, fp, r3, sl
 80088e2:	ea4f 4a14 	mov.w	sl, r4, lsr #16
 80088e6:	f8dc 4000 	ldr.w	r4, [ip]
 80088ea:	4443      	add	r3, r8
 80088ec:	ea4f 4814 	mov.w	r8, r4, lsr #16
 80088f0:	fb0b 840a 	mla	r4, fp, sl, r8
 80088f4:	eb04 4413 	add.w	r4, r4, r3, lsr #16
 80088f8:	46e2      	mov	sl, ip
 80088fa:	b29b      	uxth	r3, r3
 80088fc:	ea43 4304 	orr.w	r3, r3, r4, lsl #16
 8008900:	454f      	cmp	r7, r9
 8008902:	ea4f 4814 	mov.w	r8, r4, lsr #16
 8008906:	f84a 3b04 	str.w	r3, [sl], #4
 800890a:	d82b      	bhi.n	8008964 <__multiply+0x120>
 800890c:	f8cc 8004 	str.w	r8, [ip, #4]
 8008910:	9b01      	ldr	r3, [sp, #4]
 8008912:	f8b3 a002 	ldrh.w	sl, [r3, #2]
 8008916:	3204      	adds	r2, #4
 8008918:	f1ba 0f00 	cmp.w	sl, #0
 800891c:	d020      	beq.n	8008960 <__multiply+0x11c>
 800891e:	682b      	ldr	r3, [r5, #0]
 8008920:	4689      	mov	r9, r1
 8008922:	46a8      	mov	r8, r5
 8008924:	f04f 0b00 	mov.w	fp, #0
 8008928:	f8b9 c000 	ldrh.w	ip, [r9]
 800892c:	f8b8 4002 	ldrh.w	r4, [r8, #2]
 8008930:	fb0a 440c 	mla	r4, sl, ip, r4
 8008934:	445c      	add	r4, fp
 8008936:	46c4      	mov	ip, r8
 8008938:	b29b      	uxth	r3, r3
 800893a:	ea43 4304 	orr.w	r3, r3, r4, lsl #16
 800893e:	f84c 3b04 	str.w	r3, [ip], #4
 8008942:	f859 3b04 	ldr.w	r3, [r9], #4
 8008946:	f8b8 b004 	ldrh.w	fp, [r8, #4]
 800894a:	0c1b      	lsrs	r3, r3, #16
 800894c:	fb0a b303 	mla	r3, sl, r3, fp
 8008950:	eb03 4314 	add.w	r3, r3, r4, lsr #16
 8008954:	454f      	cmp	r7, r9
 8008956:	ea4f 4b13 	mov.w	fp, r3, lsr #16
 800895a:	d805      	bhi.n	8008968 <__multiply+0x124>
 800895c:	f8c8 3004 	str.w	r3, [r8, #4]
 8008960:	3504      	adds	r5, #4
 8008962:	e79b      	b.n	800889c <__multiply+0x58>
 8008964:	46d4      	mov	ip, sl
 8008966:	e7b3      	b.n	80088d0 <__multiply+0x8c>
 8008968:	46e0      	mov	r8, ip
 800896a:	e7dd      	b.n	8008928 <__multiply+0xe4>
 800896c:	3e01      	subs	r6, #1
 800896e:	e799      	b.n	80088a4 <__multiply+0x60>

08008970 <__pow5mult>:
 8008970:	e92d 43f8 	stmdb	sp!, {r3, r4, r5, r6, r7, r8, r9, lr}
 8008974:	4615      	mov	r5, r2
 8008976:	f012 0203 	ands.w	r2, r2, #3
 800897a:	4606      	mov	r6, r0
 800897c:	460f      	mov	r7, r1
 800897e:	d007      	beq.n	8008990 <__pow5mult+0x20>
 8008980:	3a01      	subs	r2, #1
 8008982:	4c21      	ldr	r4, [pc, #132]	; (8008a08 <__pow5mult+0x98>)
 8008984:	2300      	movs	r3, #0
 8008986:	f854 2022 	ldr.w	r2, [r4, r2, lsl #2]
 800898a:	f7ff fec9 	bl	8008720 <__multadd>
 800898e:	4607      	mov	r7, r0
 8008990:	10ad      	asrs	r5, r5, #2
 8008992:	d035      	beq.n	8008a00 <__pow5mult+0x90>
 8008994:	6a74      	ldr	r4, [r6, #36]	; 0x24
 8008996:	b93c      	cbnz	r4, 80089a8 <__pow5mult+0x38>
 8008998:	2010      	movs	r0, #16
 800899a:	f7ff fe63 	bl	8008664 <malloc>
 800899e:	6270      	str	r0, [r6, #36]	; 0x24
 80089a0:	e9c0 4401 	strd	r4, r4, [r0, #4]
 80089a4:	6004      	str	r4, [r0, #0]
 80089a6:	60c4      	str	r4, [r0, #12]
 80089a8:	f8d6 8024 	ldr.w	r8, [r6, #36]	; 0x24
 80089ac:	f8d8 4008 	ldr.w	r4, [r8, #8]
 80089b0:	b94c      	cbnz	r4, 80089c6 <__pow5mult+0x56>
 80089b2:	f240 2171 	movw	r1, #625	; 0x271
 80089b6:	4630      	mov	r0, r6
 80089b8:	f7ff ff3b 	bl	8008832 <__i2b>
 80089bc:	2300      	movs	r3, #0
 80089be:	f8c8 0008 	str.w	r0, [r8, #8]
 80089c2:	4604      	mov	r4, r0
 80089c4:	6003      	str	r3, [r0, #0]
 80089c6:	f04f 0800 	mov.w	r8, #0
 80089ca:	07eb      	lsls	r3, r5, #31
 80089cc:	d50a      	bpl.n	80089e4 <__pow5mult+0x74>
 80089ce:	4639      	mov	r1, r7
 80089d0:	4622      	mov	r2, r4
 80089d2:	4630      	mov	r0, r6
 80089d4:	f7ff ff36 	bl	8008844 <__multiply>
 80089d8:	4639      	mov	r1, r7
 80089da:	4681      	mov	r9, r0
 80089dc:	4630      	mov	r0, r6
 80089de:	f7ff fe88 	bl	80086f2 <_Bfree>
 80089e2:	464f      	mov	r7, r9
 80089e4:	106d      	asrs	r5, r5, #1
 80089e6:	d00b      	beq.n	8008a00 <__pow5mult+0x90>
 80089e8:	6820      	ldr	r0, [r4, #0]
 80089ea:	b938      	cbnz	r0, 80089fc <__pow5mult+0x8c>
 80089ec:	4622      	mov	r2, r4
 80089ee:	4621      	mov	r1, r4
 80089f0:	4630      	mov	r0, r6
 80089f2:	f7ff ff27 	bl	8008844 <__multiply>
 80089f6:	6020      	str	r0, [r4, #0]
 80089f8:	f8c0 8000 	str.w	r8, [r0]
 80089fc:	4604      	mov	r4, r0
 80089fe:	e7e4      	b.n	80089ca <__pow5mult+0x5a>
 8008a00:	4638      	mov	r0, r7
 8008a02:	e8bd 83f8 	ldmia.w	sp!, {r3, r4, r5, r6, r7, r8, r9, pc}
 8008a06:	bf00      	nop
 8008a08:	0800bf08 	.word	0x0800bf08

08008a0c <__lshift>:
 8008a0c:	e92d 47f0 	stmdb	sp!, {r4, r5, r6, r7, r8, r9, sl, lr}
 8008a10:	460c      	mov	r4, r1
 8008a12:	ea4f 1a62 	mov.w	sl, r2, asr #5
 8008a16:	6923      	ldr	r3, [r4, #16]
 8008a18:	6849      	ldr	r1, [r1, #4]
 8008a1a:	eb0a 0903 	add.w	r9, sl, r3
 8008a1e:	68a3      	ldr	r3, [r4, #8]
 8008a20:	4607      	mov	r7, r0
 8008a22:	4616      	mov	r6, r2
 8008a24:	f109 0501 	add.w	r5, r9, #1
 8008a28:	42ab      	cmp	r3, r5
 8008a2a:	db32      	blt.n	8008a92 <__lshift+0x86>
 8008a2c:	4638      	mov	r0, r7
 8008a2e:	f7ff fe2c 	bl	800868a <_Balloc>
 8008a32:	2300      	movs	r3, #0
 8008a34:	4680      	mov	r8, r0
 8008a36:	f100 0114 	add.w	r1, r0, #20
 8008a3a:	461a      	mov	r2, r3
 8008a3c:	4553      	cmp	r3, sl
 8008a3e:	db2b      	blt.n	8008a98 <__lshift+0x8c>
 8008a40:	6920      	ldr	r0, [r4, #16]
 8008a42:	ea2a 7aea 	bic.w	sl, sl, sl, asr #31
 8008a46:	f104 0314 	add.w	r3, r4, #20
 8008a4a:	f016 021f 	ands.w	r2, r6, #31
 8008a4e:	eb01 018a 	add.w	r1, r1, sl, lsl #2
 8008a52:	eb03 0c80 	add.w	ip, r3, r0, lsl #2
 8008a56:	d025      	beq.n	8008aa4 <__lshift+0x98>
 8008a58:	f1c2 0e20 	rsb	lr, r2, #32
 8008a5c:	2000      	movs	r0, #0
 8008a5e:	681e      	ldr	r6, [r3, #0]
 8008a60:	468a      	mov	sl, r1
 8008a62:	4096      	lsls	r6, r2
 8008a64:	4330      	orrs	r0, r6
 8008a66:	f84a 0b04 	str.w	r0, [sl], #4
 8008a6a:	f853 0b04 	ldr.w	r0, [r3], #4
 8008a6e:	459c      	cmp	ip, r3
 8008a70:	fa20 f00e 	lsr.w	r0, r0, lr
 8008a74:	d814      	bhi.n	8008aa0 <__lshift+0x94>
 8008a76:	6048      	str	r0, [r1, #4]
 8008a78:	b108      	cbz	r0, 8008a7e <__lshift+0x72>
 8008a7a:	f109 0502 	add.w	r5, r9, #2
 8008a7e:	3d01      	subs	r5, #1
 8008a80:	4638      	mov	r0, r7
 8008a82:	f8c8 5010 	str.w	r5, [r8, #16]
 8008a86:	4621      	mov	r1, r4
 8008a88:	f7ff fe33 	bl	80086f2 <_Bfree>
 8008a8c:	4640      	mov	r0, r8
 8008a8e:	e8bd 87f0 	ldmia.w	sp!, {r4, r5, r6, r7, r8, r9, sl, pc}
 8008a92:	3101      	adds	r1, #1
 8008a94:	005b      	lsls	r3, r3, #1
 8008a96:	e7c7      	b.n	8008a28 <__lshift+0x1c>
 8008a98:	f841 2023 	str.w	r2, [r1, r3, lsl #2]
 8008a9c:	3301      	adds	r3, #1
 8008a9e:	e7cd      	b.n	8008a3c <__lshift+0x30>
 8008aa0:	4651      	mov	r1, sl
 8008aa2:	e7dc      	b.n	8008a5e <__lshift+0x52>
 8008aa4:	3904      	subs	r1, #4
 8008aa6:	f853 2b04 	ldr.w	r2, [r3], #4
 8008aaa:	f841 2f04 	str.w	r2, [r1, #4]!
 8008aae:	459c      	cmp	ip, r3
 8008ab0:	d8f9      	bhi.n	8008aa6 <__lshift+0x9a>
 8008ab2:	e7e4      	b.n	8008a7e <__lshift+0x72>

08008ab4 <__mcmp>:
 8008ab4:	6903      	ldr	r3, [r0, #16]
 8008ab6:	690a      	ldr	r2, [r1, #16]
 8008ab8:	1a9b      	subs	r3, r3, r2
 8008aba:	b530      	push	{r4, r5, lr}
 8008abc:	d10c      	bne.n	8008ad8 <__mcmp+0x24>
 8008abe:	0092      	lsls	r2, r2, #2
 8008ac0:	3014      	adds	r0, #20
 8008ac2:	3114      	adds	r1, #20
 8008ac4:	1884      	adds	r4, r0, r2
 8008ac6:	4411      	add	r1, r2
 8008ac8:	f854 5d04 	ldr.w	r5, [r4, #-4]!
 8008acc:	f851 2d04 	ldr.w	r2, [r1, #-4]!
 8008ad0:	4295      	cmp	r5, r2
 8008ad2:	d003      	beq.n	8008adc <__mcmp+0x28>
 8008ad4:	d305      	bcc.n	8008ae2 <__mcmp+0x2e>
 8008ad6:	2301      	movs	r3, #1
 8008ad8:	4618      	mov	r0, r3
 8008ada:	bd30      	pop	{r4, r5, pc}
 8008adc:	42a0      	cmp	r0, r4
 8008ade:	d3f3      	bcc.n	8008ac8 <__mcmp+0x14>
 8008ae0:	e7fa      	b.n	8008ad8 <__mcmp+0x24>
 8008ae2:	f04f 33ff 	mov.w	r3, #4294967295
 8008ae6:	e7f7      	b.n	8008ad8 <__mcmp+0x24>

08008ae8 <__mdiff>:
 8008ae8:	e92d 47f0 	stmdb	sp!, {r4, r5, r6, r7, r8, r9, sl, lr}
 8008aec:	460d      	mov	r5, r1
 8008aee:	4607      	mov	r7, r0
 8008af0:	4611      	mov	r1, r2
 8008af2:	4628      	mov	r0, r5
 8008af4:	4614      	mov	r4, r2
 8008af6:	f7ff ffdd 	bl	8008ab4 <__mcmp>
 8008afa:	1e06      	subs	r6, r0, #0
 8008afc:	d108      	bne.n	8008b10 <__mdiff+0x28>
 8008afe:	4631      	mov	r1, r6
 8008b00:	4638      	mov	r0, r7
 8008b02:	f7ff fdc2 	bl	800868a <_Balloc>
 8008b06:	2301      	movs	r3, #1
 8008b08:	e9c0 3604 	strd	r3, r6, [r0, #16]
 8008b0c:	e8bd 87f0 	ldmia.w	sp!, {r4, r5, r6, r7, r8, r9, sl, pc}
 8008b10:	bfa4      	itt	ge
 8008b12:	4623      	movge	r3, r4
 8008b14:	462c      	movge	r4, r5
 8008b16:	4638      	mov	r0, r7
 8008b18:	6861      	ldr	r1, [r4, #4]
 8008b1a:	bfa6      	itte	ge
 8008b1c:	461d      	movge	r5, r3
 8008b1e:	2600      	movge	r6, #0
 8008b20:	2601      	movlt	r6, #1
 8008b22:	f7ff fdb2 	bl	800868a <_Balloc>
 8008b26:	692b      	ldr	r3, [r5, #16]
 8008b28:	60c6      	str	r6, [r0, #12]
 8008b2a:	6926      	ldr	r6, [r4, #16]
 8008b2c:	f105 0914 	add.w	r9, r5, #20
 8008b30:	f104 0214 	add.w	r2, r4, #20
 8008b34:	eb02 0786 	add.w	r7, r2, r6, lsl #2
 8008b38:	eb09 0883 	add.w	r8, r9, r3, lsl #2
 8008b3c:	f100 0514 	add.w	r5, r0, #20
 8008b40:	f04f 0e00 	mov.w	lr, #0
 8008b44:	f852 ab04 	ldr.w	sl, [r2], #4
 8008b48:	f859 4b04 	ldr.w	r4, [r9], #4
 8008b4c:	fa1e f18a 	uxtah	r1, lr, sl
 8008b50:	b2a3      	uxth	r3, r4
 8008b52:	1ac9      	subs	r1, r1, r3
 8008b54:	0c23      	lsrs	r3, r4, #16
 8008b56:	ebc3 431a 	rsb	r3, r3, sl, lsr #16
 8008b5a:	eb03 4321 	add.w	r3, r3, r1, asr #16
 8008b5e:	b289      	uxth	r1, r1
 8008b60:	ea4f 4e23 	mov.w	lr, r3, asr #16
 8008b64:	45c8      	cmp	r8, r9
 8008b66:	ea41 4303 	orr.w	r3, r1, r3, lsl #16
 8008b6a:	4694      	mov	ip, r2
 8008b6c:	f845 3b04 	str.w	r3, [r5], #4
 8008b70:	d8e8      	bhi.n	8008b44 <__mdiff+0x5c>
 8008b72:	45bc      	cmp	ip, r7
 8008b74:	d304      	bcc.n	8008b80 <__mdiff+0x98>
 8008b76:	f855 3d04 	ldr.w	r3, [r5, #-4]!
 8008b7a:	b183      	cbz	r3, 8008b9e <__mdiff+0xb6>
 8008b7c:	6106      	str	r6, [r0, #16]
 8008b7e:	e7c5      	b.n	8008b0c <__mdiff+0x24>
 8008b80:	f85c 1b04 	ldr.w	r1, [ip], #4
 8008b84:	fa1e f381 	uxtah	r3, lr, r1
 8008b88:	141a      	asrs	r2, r3, #16
 8008b8a:	eb02 4211 	add.w	r2, r2, r1, lsr #16
 8008b8e:	b29b      	uxth	r3, r3
 8008b90:	ea43 4302 	orr.w	r3, r3, r2, lsl #16
 8008b94:	ea4f 4e22 	mov.w	lr, r2, asr #16
 8008b98:	f845 3b04 	str.w	r3, [r5], #4
 8008b9c:	e7e9      	b.n	8008b72 <__mdiff+0x8a>
 8008b9e:	3e01      	subs	r6, #1
 8008ba0:	e7e9      	b.n	8008b76 <__mdiff+0x8e>

08008ba2 <__d2b>:
 8008ba2:	e92d 43f7 	stmdb	sp!, {r0, r1, r2, r4, r5, r6, r7, r8, r9, lr}
 8008ba6:	460e      	mov	r6, r1
 8008ba8:	2101      	movs	r1, #1
 8008baa:	ec59 8b10 	vmov	r8, r9, d0
 8008bae:	4615      	mov	r5, r2
 8008bb0:	f7ff fd6b 	bl	800868a <_Balloc>
 8008bb4:	f3c9 540a 	ubfx	r4, r9, #20, #11
 8008bb8:	4607      	mov	r7, r0
 8008bba:	f3c9 0313 	ubfx	r3, r9, #0, #20
 8008bbe:	bb34      	cbnz	r4, 8008c0e <__d2b+0x6c>
 8008bc0:	9301      	str	r3, [sp, #4]
 8008bc2:	f1b8 0300 	subs.w	r3, r8, #0
 8008bc6:	d027      	beq.n	8008c18 <__d2b+0x76>
 8008bc8:	a802      	add	r0, sp, #8
 8008bca:	f840 3d08 	str.w	r3, [r0, #-8]!
 8008bce:	f7ff fe01 	bl	80087d4 <__lo0bits>
 8008bd2:	9900      	ldr	r1, [sp, #0]
 8008bd4:	b1f0      	cbz	r0, 8008c14 <__d2b+0x72>
 8008bd6:	9a01      	ldr	r2, [sp, #4]
 8008bd8:	f1c0 0320 	rsb	r3, r0, #32
 8008bdc:	fa02 f303 	lsl.w	r3, r2, r3
 8008be0:	430b      	orrs	r3, r1
 8008be2:	40c2      	lsrs	r2, r0
 8008be4:	617b      	str	r3, [r7, #20]
 8008be6:	9201      	str	r2, [sp, #4]
 8008be8:	9b01      	ldr	r3, [sp, #4]
 8008bea:	61bb      	str	r3, [r7, #24]
 8008bec:	2b00      	cmp	r3, #0
 8008bee:	bf14      	ite	ne
 8008bf0:	2102      	movne	r1, #2
 8008bf2:	2101      	moveq	r1, #1
 8008bf4:	6139      	str	r1, [r7, #16]
 8008bf6:	b1c4      	cbz	r4, 8008c2a <__d2b+0x88>
 8008bf8:	f2a4 4433 	subw	r4, r4, #1075	; 0x433
 8008bfc:	4404      	add	r4, r0
 8008bfe:	6034      	str	r4, [r6, #0]
 8008c00:	f1c0 0035 	rsb	r0, r0, #53	; 0x35
 8008c04:	6028      	str	r0, [r5, #0]
 8008c06:	4638      	mov	r0, r7
 8008c08:	b003      	add	sp, #12
 8008c0a:	e8bd 83f0 	ldmia.w	sp!, {r4, r5, r6, r7, r8, r9, pc}
 8008c0e:	f443 1380 	orr.w	r3, r3, #1048576	; 0x100000
 8008c12:	e7d5      	b.n	8008bc0 <__d2b+0x1e>
 8008c14:	6179      	str	r1, [r7, #20]
 8008c16:	e7e7      	b.n	8008be8 <__d2b+0x46>
 8008c18:	a801      	add	r0, sp, #4
 8008c1a:	f7ff fddb 	bl	80087d4 <__lo0bits>
 8008c1e:	9b01      	ldr	r3, [sp, #4]
 8008c20:	617b      	str	r3, [r7, #20]
 8008c22:	2101      	movs	r1, #1
 8008c24:	6139      	str	r1, [r7, #16]
 8008c26:	3020      	adds	r0, #32
 8008c28:	e7e5      	b.n	8008bf6 <__d2b+0x54>
 8008c2a:	eb07 0381 	add.w	r3, r7, r1, lsl #2
 8008c2e:	f2a0 4032 	subw	r0, r0, #1074	; 0x432
 8008c32:	6030      	str	r0, [r6, #0]
 8008c34:	6918      	ldr	r0, [r3, #16]
 8008c36:	f7ff fdae 	bl	8008796 <__hi0bits>
 8008c3a:	ebc0 1041 	rsb	r0, r0, r1, lsl #5
 8008c3e:	e7e1      	b.n	8008c04 <__d2b+0x62>

08008c40 <_calloc_r>:
 8008c40:	b538      	push	{r3, r4, r5, lr}
 8008c42:	fb02 f401 	mul.w	r4, r2, r1
 8008c46:	4621      	mov	r1, r4
 8008c48:	f000 f856 	bl	8008cf8 <_malloc_r>
 8008c4c:	4605      	mov	r5, r0
 8008c4e:	b118      	cbz	r0, 8008c58 <_calloc_r+0x18>
 8008c50:	4622      	mov	r2, r4
 8008c52:	2100      	movs	r1, #0
 8008c54:	f7fe fa1b 	bl	800708e <memset>
 8008c58:	4628      	mov	r0, r5
 8008c5a:	bd38      	pop	{r3, r4, r5, pc}

08008c5c <_free_r>:
 8008c5c:	b538      	push	{r3, r4, r5, lr}
 8008c5e:	4605      	mov	r5, r0
 8008c60:	2900      	cmp	r1, #0
 8008c62:	d045      	beq.n	8008cf0 <_free_r+0x94>
 8008c64:	f851 3c04 	ldr.w	r3, [r1, #-4]
 8008c68:	1f0c      	subs	r4, r1, #4
 8008c6a:	2b00      	cmp	r3, #0
 8008c6c:	bfb8      	it	lt
 8008c6e:	18e4      	addlt	r4, r4, r3
 8008c70:	f000 fa10 	bl	8009094 <__malloc_lock>
 8008c74:	4a1f      	ldr	r2, [pc, #124]	; (8008cf4 <_free_r+0x98>)
 8008c76:	6813      	ldr	r3, [r2, #0]
 8008c78:	4610      	mov	r0, r2
 8008c7a:	b933      	cbnz	r3, 8008c8a <_free_r+0x2e>
 8008c7c:	6063      	str	r3, [r4, #4]
 8008c7e:	6014      	str	r4, [r2, #0]
 8008c80:	4628      	mov	r0, r5
 8008c82:	e8bd 4038 	ldmia.w	sp!, {r3, r4, r5, lr}
 8008c86:	f000 ba06 	b.w	8009096 <__malloc_unlock>
 8008c8a:	42a3      	cmp	r3, r4
 8008c8c:	d90c      	bls.n	8008ca8 <_free_r+0x4c>
 8008c8e:	6821      	ldr	r1, [r4, #0]
 8008c90:	1862      	adds	r2, r4, r1
 8008c92:	4293      	cmp	r3, r2
 8008c94:	bf04      	itt	eq
 8008c96:	681a      	ldreq	r2, [r3, #0]
 8008c98:	685b      	ldreq	r3, [r3, #4]
 8008c9a:	6063      	str	r3, [r4, #4]
 8008c9c:	bf04      	itt	eq
 8008c9e:	1852      	addeq	r2, r2, r1
 8008ca0:	6022      	streq	r2, [r4, #0]
 8008ca2:	6004      	str	r4, [r0, #0]
 8008ca4:	e7ec      	b.n	8008c80 <_free_r+0x24>
 8008ca6:	4613      	mov	r3, r2
 8008ca8:	685a      	ldr	r2, [r3, #4]
 8008caa:	b10a      	cbz	r2, 8008cb0 <_free_r+0x54>
 8008cac:	42a2      	cmp	r2, r4
 8008cae:	d9fa      	bls.n	8008ca6 <_free_r+0x4a>
 8008cb0:	6819      	ldr	r1, [r3, #0]
 8008cb2:	1858      	adds	r0, r3, r1
 8008cb4:	42a0      	cmp	r0, r4
 8008cb6:	d10b      	bne.n	8008cd0 <_free_r+0x74>
 8008cb8:	6820      	ldr	r0, [r4, #0]
 8008cba:	4401      	add	r1, r0
 8008cbc:	1858      	adds	r0, r3, r1
 8008cbe:	4282      	cmp	r2, r0
 8008cc0:	6019      	str	r1, [r3, #0]
 8008cc2:	d1dd      	bne.n	8008c80 <_free_r+0x24>
 8008cc4:	6810      	ldr	r0, [r2, #0]
 8008cc6:	6852      	ldr	r2, [r2, #4]
 8008cc8:	605a      	str	r2, [r3, #4]
 8008cca:	4401      	add	r1, r0
 8008ccc:	6019      	str	r1, [r3, #0]
 8008cce:	e7d7      	b.n	8008c80 <_free_r+0x24>
 8008cd0:	d902      	bls.n	8008cd8 <_free_r+0x7c>
 8008cd2:	230c      	movs	r3, #12
 8008cd4:	602b      	str	r3, [r5, #0]
 8008cd6:	e7d3      	b.n	8008c80 <_free_r+0x24>
 8008cd8:	6820      	ldr	r0, [r4, #0]
 8008cda:	1821      	adds	r1, r4, r0
 8008cdc:	428a      	cmp	r2, r1
 8008cde:	bf04      	itt	eq
 8008ce0:	6811      	ldreq	r1, [r2, #0]
 8008ce2:	6852      	ldreq	r2, [r2, #4]
 8008ce4:	6062      	str	r2, [r4, #4]
 8008ce6:	bf04      	itt	eq
 8008ce8:	1809      	addeq	r1, r1, r0
 8008cea:	6021      	streq	r1, [r4, #0]
 8008cec:	605c      	str	r4, [r3, #4]
 8008cee:	e7c7      	b.n	8008c80 <_free_r+0x24>
 8008cf0:	bd38      	pop	{r3, r4, r5, pc}
 8008cf2:	bf00      	nop
 8008cf4:	20000918 	.word	0x20000918

08008cf8 <_malloc_r>:
 8008cf8:	b570      	push	{r4, r5, r6, lr}
 8008cfa:	1ccd      	adds	r5, r1, #3
 8008cfc:	f025 0503 	bic.w	r5, r5, #3
 8008d00:	3508      	adds	r5, #8
 8008d02:	2d0c      	cmp	r5, #12
 8008d04:	bf38      	it	cc
 8008d06:	250c      	movcc	r5, #12
 8008d08:	2d00      	cmp	r5, #0
 8008d0a:	4606      	mov	r6, r0
 8008d0c:	db01      	blt.n	8008d12 <_malloc_r+0x1a>
 8008d0e:	42a9      	cmp	r1, r5
 8008d10:	d903      	bls.n	8008d1a <_malloc_r+0x22>
 8008d12:	230c      	movs	r3, #12
 8008d14:	6033      	str	r3, [r6, #0]
 8008d16:	2000      	movs	r0, #0
 8008d18:	bd70      	pop	{r4, r5, r6, pc}
 8008d1a:	f000 f9bb 	bl	8009094 <__malloc_lock>
 8008d1e:	4a21      	ldr	r2, [pc, #132]	; (8008da4 <_malloc_r+0xac>)
 8008d20:	6814      	ldr	r4, [r2, #0]
 8008d22:	4621      	mov	r1, r4
 8008d24:	b991      	cbnz	r1, 8008d4c <_malloc_r+0x54>
 8008d26:	4c20      	ldr	r4, [pc, #128]	; (8008da8 <_malloc_r+0xb0>)
 8008d28:	6823      	ldr	r3, [r4, #0]
 8008d2a:	b91b      	cbnz	r3, 8008d34 <_malloc_r+0x3c>
 8008d2c:	4630      	mov	r0, r6
 8008d2e:	f000 f98f 	bl	8009050 <_sbrk_r>
 8008d32:	6020      	str	r0, [r4, #0]
 8008d34:	4629      	mov	r1, r5
 8008d36:	4630      	mov	r0, r6
 8008d38:	f000 f98a 	bl	8009050 <_sbrk_r>
 8008d3c:	1c43      	adds	r3, r0, #1
 8008d3e:	d124      	bne.n	8008d8a <_malloc_r+0x92>
 8008d40:	230c      	movs	r3, #12
 8008d42:	6033      	str	r3, [r6, #0]
 8008d44:	4630      	mov	r0, r6
 8008d46:	f000 f9a6 	bl	8009096 <__malloc_unlock>
 8008d4a:	e7e4      	b.n	8008d16 <_malloc_r+0x1e>
 8008d4c:	680b      	ldr	r3, [r1, #0]
 8008d4e:	1b5b      	subs	r3, r3, r5
 8008d50:	d418      	bmi.n	8008d84 <_malloc_r+0x8c>
 8008d52:	2b0b      	cmp	r3, #11
 8008d54:	d90f      	bls.n	8008d76 <_malloc_r+0x7e>
 8008d56:	600b      	str	r3, [r1, #0]
 8008d58:	50cd      	str	r5, [r1, r3]
 8008d5a:	18cc      	adds	r4, r1, r3
 8008d5c:	4630      	mov	r0, r6
 8008d5e:	f000 f99a 	bl	8009096 <__malloc_unlock>
 8008d62:	f104 000b 	add.w	r0, r4, #11
 8008d66:	1d23      	adds	r3, r4, #4
 8008d68:	f020 0007 	bic.w	r0, r0, #7
 8008d6c:	1ac3      	subs	r3, r0, r3
 8008d6e:	d0d3      	beq.n	8008d18 <_malloc_r+0x20>
 8008d70:	425a      	negs	r2, r3
 8008d72:	50e2      	str	r2, [r4, r3]
 8008d74:	e7d0      	b.n	8008d18 <_malloc_r+0x20>
 8008d76:	428c      	cmp	r4, r1
 8008d78:	684b      	ldr	r3, [r1, #4]
 8008d7a:	bf16      	itet	ne
 8008d7c:	6063      	strne	r3, [r4, #4]
 8008d7e:	6013      	streq	r3, [r2, #0]
 8008d80:	460c      	movne	r4, r1
 8008d82:	e7eb      	b.n	8008d5c <_malloc_r+0x64>
 8008d84:	460c      	mov	r4, r1
 8008d86:	6849      	ldr	r1, [r1, #4]
 8008d88:	e7cc      	b.n	8008d24 <_malloc_r+0x2c>
 8008d8a:	1cc4      	adds	r4, r0, #3
 8008d8c:	f024 0403 	bic.w	r4, r4, #3
 8008d90:	42a0      	cmp	r0, r4
 8008d92:	d005      	beq.n	8008da0 <_malloc_r+0xa8>
 8008d94:	1a21      	subs	r1, r4, r0
 8008d96:	4630      	mov	r0, r6
 8008d98:	f000 f95a 	bl	8009050 <_sbrk_r>
 8008d9c:	3001      	adds	r0, #1
 8008d9e:	d0cf      	beq.n	8008d40 <_malloc_r+0x48>
 8008da0:	6025      	str	r5, [r4, #0]
 8008da2:	e7db      	b.n	8008d5c <_malloc_r+0x64>
 8008da4:	20000918 	.word	0x20000918
 8008da8:	2000091c 	.word	0x2000091c

08008dac <__ssputs_r>:
 8008dac:	e92d 47f0 	stmdb	sp!, {r4, r5, r6, r7, r8, r9, sl, lr}
 8008db0:	688e      	ldr	r6, [r1, #8]
 8008db2:	429e      	cmp	r6, r3
 8008db4:	4682      	mov	sl, r0
 8008db6:	460c      	mov	r4, r1
 8008db8:	4690      	mov	r8, r2
 8008dba:	4699      	mov	r9, r3
 8008dbc:	d837      	bhi.n	8008e2e <__ssputs_r+0x82>
 8008dbe:	898a      	ldrh	r2, [r1, #12]
 8008dc0:	f412 6f90 	tst.w	r2, #1152	; 0x480
 8008dc4:	d031      	beq.n	8008e2a <__ssputs_r+0x7e>
 8008dc6:	6825      	ldr	r5, [r4, #0]
 8008dc8:	6909      	ldr	r1, [r1, #16]
 8008dca:	1a6f      	subs	r7, r5, r1
 8008dcc:	6965      	ldr	r5, [r4, #20]
 8008dce:	2302      	movs	r3, #2
 8008dd0:	eb05 0545 	add.w	r5, r5, r5, lsl #1
 8008dd4:	fb95 f5f3 	sdiv	r5, r5, r3
 8008dd8:	f109 0301 	add.w	r3, r9, #1
 8008ddc:	443b      	add	r3, r7
 8008dde:	429d      	cmp	r5, r3
 8008de0:	bf38      	it	cc
 8008de2:	461d      	movcc	r5, r3
 8008de4:	0553      	lsls	r3, r2, #21
 8008de6:	d530      	bpl.n	8008e4a <__ssputs_r+0x9e>
 8008de8:	4629      	mov	r1, r5
 8008dea:	f7ff ff85 	bl	8008cf8 <_malloc_r>
 8008dee:	4606      	mov	r6, r0
 8008df0:	b950      	cbnz	r0, 8008e08 <__ssputs_r+0x5c>
 8008df2:	230c      	movs	r3, #12
 8008df4:	f8ca 3000 	str.w	r3, [sl]
 8008df8:	89a3      	ldrh	r3, [r4, #12]
 8008dfa:	f043 0340 	orr.w	r3, r3, #64	; 0x40
 8008dfe:	81a3      	strh	r3, [r4, #12]
 8008e00:	f04f 30ff 	mov.w	r0, #4294967295
 8008e04:	e8bd 87f0 	ldmia.w	sp!, {r4, r5, r6, r7, r8, r9, sl, pc}
 8008e08:	463a      	mov	r2, r7
 8008e0a:	6921      	ldr	r1, [r4, #16]
 8008e0c:	f7ff fc32 	bl	8008674 <memcpy>
 8008e10:	89a3      	ldrh	r3, [r4, #12]
 8008e12:	f423 6390 	bic.w	r3, r3, #1152	; 0x480
 8008e16:	f043 0380 	orr.w	r3, r3, #128	; 0x80
 8008e1a:	81a3      	strh	r3, [r4, #12]
 8008e1c:	6126      	str	r6, [r4, #16]
 8008e1e:	6165      	str	r5, [r4, #20]
 8008e20:	443e      	add	r6, r7
 8008e22:	1bed      	subs	r5, r5, r7
 8008e24:	6026      	str	r6, [r4, #0]
 8008e26:	60a5      	str	r5, [r4, #8]
 8008e28:	464e      	mov	r6, r9
 8008e2a:	454e      	cmp	r6, r9
 8008e2c:	d900      	bls.n	8008e30 <__ssputs_r+0x84>
 8008e2e:	464e      	mov	r6, r9
 8008e30:	4632      	mov	r2, r6
 8008e32:	4641      	mov	r1, r8
 8008e34:	6820      	ldr	r0, [r4, #0]
 8008e36:	f7fe f911 	bl	800705c <memmove>
 8008e3a:	68a3      	ldr	r3, [r4, #8]
 8008e3c:	1b9b      	subs	r3, r3, r6
 8008e3e:	60a3      	str	r3, [r4, #8]
 8008e40:	6823      	ldr	r3, [r4, #0]
 8008e42:	441e      	add	r6, r3
 8008e44:	6026      	str	r6, [r4, #0]
 8008e46:	2000      	movs	r0, #0
 8008e48:	e7dc      	b.n	8008e04 <__ssputs_r+0x58>
 8008e4a:	462a      	mov	r2, r5
 8008e4c:	f000 f924 	bl	8009098 <_realloc_r>
 8008e50:	4606      	mov	r6, r0
 8008e52:	2800      	cmp	r0, #0
 8008e54:	d1e2      	bne.n	8008e1c <__ssputs_r+0x70>
 8008e56:	6921      	ldr	r1, [r4, #16]
 8008e58:	4650      	mov	r0, sl
 8008e5a:	f7ff feff 	bl	8008c5c <_free_r>
 8008e5e:	e7c8      	b.n	8008df2 <__ssputs_r+0x46>

08008e60 <_svfiprintf_r>:
 8008e60:	e92d 4ff0 	stmdb	sp!, {r4, r5, r6, r7, r8, r9, sl, fp, lr}
 8008e64:	461d      	mov	r5, r3
 8008e66:	898b      	ldrh	r3, [r1, #12]
 8008e68:	061f      	lsls	r7, r3, #24
 8008e6a:	b09d      	sub	sp, #116	; 0x74
 8008e6c:	4680      	mov	r8, r0
 8008e6e:	460c      	mov	r4, r1
 8008e70:	4616      	mov	r6, r2
 8008e72:	d50f      	bpl.n	8008e94 <_svfiprintf_r+0x34>
 8008e74:	690b      	ldr	r3, [r1, #16]
 8008e76:	b96b      	cbnz	r3, 8008e94 <_svfiprintf_r+0x34>
 8008e78:	2140      	movs	r1, #64	; 0x40
 8008e7a:	f7ff ff3d 	bl	8008cf8 <_malloc_r>
 8008e7e:	6020      	str	r0, [r4, #0]
 8008e80:	6120      	str	r0, [r4, #16]
 8008e82:	b928      	cbnz	r0, 8008e90 <_svfiprintf_r+0x30>
 8008e84:	230c      	movs	r3, #12
 8008e86:	f8c8 3000 	str.w	r3, [r8]
 8008e8a:	f04f 30ff 	mov.w	r0, #4294967295
 8008e8e:	e0c8      	b.n	8009022 <_svfiprintf_r+0x1c2>
 8008e90:	2340      	movs	r3, #64	; 0x40
 8008e92:	6163      	str	r3, [r4, #20]
 8008e94:	2300      	movs	r3, #0
 8008e96:	9309      	str	r3, [sp, #36]	; 0x24
 8008e98:	2320      	movs	r3, #32
 8008e9a:	f88d 3029 	strb.w	r3, [sp, #41]	; 0x29
 8008e9e:	2330      	movs	r3, #48	; 0x30
 8008ea0:	f88d 302a 	strb.w	r3, [sp, #42]	; 0x2a
 8008ea4:	9503      	str	r5, [sp, #12]
 8008ea6:	f04f 0b01 	mov.w	fp, #1
 8008eaa:	4637      	mov	r7, r6
 8008eac:	463d      	mov	r5, r7
 8008eae:	f815 3b01 	ldrb.w	r3, [r5], #1
 8008eb2:	b10b      	cbz	r3, 8008eb8 <_svfiprintf_r+0x58>
 8008eb4:	2b25      	cmp	r3, #37	; 0x25
 8008eb6:	d13e      	bne.n	8008f36 <_svfiprintf_r+0xd6>
 8008eb8:	ebb7 0a06 	subs.w	sl, r7, r6
 8008ebc:	d00b      	beq.n	8008ed6 <_svfiprintf_r+0x76>
 8008ebe:	4653      	mov	r3, sl
 8008ec0:	4632      	mov	r2, r6
 8008ec2:	4621      	mov	r1, r4
 8008ec4:	4640      	mov	r0, r8
 8008ec6:	f7ff ff71 	bl	8008dac <__ssputs_r>
 8008eca:	3001      	adds	r0, #1
 8008ecc:	f000 80a4 	beq.w	8009018 <_svfiprintf_r+0x1b8>
 8008ed0:	9b09      	ldr	r3, [sp, #36]	; 0x24
 8008ed2:	4453      	add	r3, sl
 8008ed4:	9309      	str	r3, [sp, #36]	; 0x24
 8008ed6:	783b      	ldrb	r3, [r7, #0]
 8008ed8:	2b00      	cmp	r3, #0
 8008eda:	f000 809d 	beq.w	8009018 <_svfiprintf_r+0x1b8>
 8008ede:	2300      	movs	r3, #0
 8008ee0:	f04f 32ff 	mov.w	r2, #4294967295
 8008ee4:	e9cd 2305 	strd	r2, r3, [sp, #20]
 8008ee8:	9304      	str	r3, [sp, #16]
 8008eea:	9307      	str	r3, [sp, #28]
 8008eec:	f88d 3053 	strb.w	r3, [sp, #83]	; 0x53
 8008ef0:	931a      	str	r3, [sp, #104]	; 0x68
 8008ef2:	462f      	mov	r7, r5
 8008ef4:	2205      	movs	r2, #5
 8008ef6:	f817 1b01 	ldrb.w	r1, [r7], #1
 8008efa:	4850      	ldr	r0, [pc, #320]	; (800903c <_svfiprintf_r+0x1dc>)
 8008efc:	f7f7 f970 	bl	80001e0 <memchr>
 8008f00:	9b04      	ldr	r3, [sp, #16]
 8008f02:	b9d0      	cbnz	r0, 8008f3a <_svfiprintf_r+0xda>
 8008f04:	06d9      	lsls	r1, r3, #27
 8008f06:	bf44      	itt	mi
 8008f08:	2220      	movmi	r2, #32
 8008f0a:	f88d 2053 	strbmi.w	r2, [sp, #83]	; 0x53
 8008f0e:	071a      	lsls	r2, r3, #28
 8008f10:	bf44      	itt	mi
 8008f12:	222b      	movmi	r2, #43	; 0x2b
 8008f14:	f88d 2053 	strbmi.w	r2, [sp, #83]	; 0x53
 8008f18:	782a      	ldrb	r2, [r5, #0]
 8008f1a:	2a2a      	cmp	r2, #42	; 0x2a
 8008f1c:	d015      	beq.n	8008f4a <_svfiprintf_r+0xea>
 8008f1e:	9a07      	ldr	r2, [sp, #28]
 8008f20:	462f      	mov	r7, r5
 8008f22:	2000      	movs	r0, #0
 8008f24:	250a      	movs	r5, #10
 8008f26:	4639      	mov	r1, r7
 8008f28:	f811 3b01 	ldrb.w	r3, [r1], #1
 8008f2c:	3b30      	subs	r3, #48	; 0x30
 8008f2e:	2b09      	cmp	r3, #9
 8008f30:	d94d      	bls.n	8008fce <_svfiprintf_r+0x16e>
 8008f32:	b1b8      	cbz	r0, 8008f64 <_svfiprintf_r+0x104>
 8008f34:	e00f      	b.n	8008f56 <_svfiprintf_r+0xf6>
 8008f36:	462f      	mov	r7, r5
 8008f38:	e7b8      	b.n	8008eac <_svfiprintf_r+0x4c>
 8008f3a:	4a40      	ldr	r2, [pc, #256]	; (800903c <_svfiprintf_r+0x1dc>)
 8008f3c:	1a80      	subs	r0, r0, r2
 8008f3e:	fa0b f000 	lsl.w	r0, fp, r0
 8008f42:	4318      	orrs	r0, r3
 8008f44:	9004      	str	r0, [sp, #16]
 8008f46:	463d      	mov	r5, r7
 8008f48:	e7d3      	b.n	8008ef2 <_svfiprintf_r+0x92>
 8008f4a:	9a03      	ldr	r2, [sp, #12]
 8008f4c:	1d11      	adds	r1, r2, #4
 8008f4e:	6812      	ldr	r2, [r2, #0]
 8008f50:	9103      	str	r1, [sp, #12]
 8008f52:	2a00      	cmp	r2, #0
 8008f54:	db01      	blt.n	8008f5a <_svfiprintf_r+0xfa>
 8008f56:	9207      	str	r2, [sp, #28]
 8008f58:	e004      	b.n	8008f64 <_svfiprintf_r+0x104>
 8008f5a:	4252      	negs	r2, r2
 8008f5c:	f043 0302 	orr.w	r3, r3, #2
 8008f60:	9207      	str	r2, [sp, #28]
 8008f62:	9304      	str	r3, [sp, #16]
 8008f64:	783b      	ldrb	r3, [r7, #0]
 8008f66:	2b2e      	cmp	r3, #46	; 0x2e
 8008f68:	d10c      	bne.n	8008f84 <_svfiprintf_r+0x124>
 8008f6a:	787b      	ldrb	r3, [r7, #1]
 8008f6c:	2b2a      	cmp	r3, #42	; 0x2a
 8008f6e:	d133      	bne.n	8008fd8 <_svfiprintf_r+0x178>
 8008f70:	9b03      	ldr	r3, [sp, #12]
 8008f72:	1d1a      	adds	r2, r3, #4
 8008f74:	681b      	ldr	r3, [r3, #0]
 8008f76:	9203      	str	r2, [sp, #12]
 8008f78:	2b00      	cmp	r3, #0
 8008f7a:	bfb8      	it	lt
 8008f7c:	f04f 33ff 	movlt.w	r3, #4294967295
 8008f80:	3702      	adds	r7, #2
 8008f82:	9305      	str	r3, [sp, #20]
 8008f84:	4d2e      	ldr	r5, [pc, #184]	; (8009040 <_svfiprintf_r+0x1e0>)
 8008f86:	7839      	ldrb	r1, [r7, #0]
 8008f88:	2203      	movs	r2, #3
 8008f8a:	4628      	mov	r0, r5
 8008f8c:	f7f7 f928 	bl	80001e0 <memchr>
 8008f90:	b138      	cbz	r0, 8008fa2 <_svfiprintf_r+0x142>
 8008f92:	2340      	movs	r3, #64	; 0x40
 8008f94:	1b40      	subs	r0, r0, r5
 8008f96:	fa03 f000 	lsl.w	r0, r3, r0
 8008f9a:	9b04      	ldr	r3, [sp, #16]
 8008f9c:	4303      	orrs	r3, r0
 8008f9e:	3701      	adds	r7, #1
 8008fa0:	9304      	str	r3, [sp, #16]
 8008fa2:	7839      	ldrb	r1, [r7, #0]
 8008fa4:	4827      	ldr	r0, [pc, #156]	; (8009044 <_svfiprintf_r+0x1e4>)
 8008fa6:	f88d 1028 	strb.w	r1, [sp, #40]	; 0x28
 8008faa:	2206      	movs	r2, #6
 8008fac:	1c7e      	adds	r6, r7, #1
 8008fae:	f7f7 f917 	bl	80001e0 <memchr>
 8008fb2:	2800      	cmp	r0, #0
 8008fb4:	d038      	beq.n	8009028 <_svfiprintf_r+0x1c8>
 8008fb6:	4b24      	ldr	r3, [pc, #144]	; (8009048 <_svfiprintf_r+0x1e8>)
 8008fb8:	bb13      	cbnz	r3, 8009000 <_svfiprintf_r+0x1a0>
 8008fba:	9b03      	ldr	r3, [sp, #12]
 8008fbc:	3307      	adds	r3, #7
 8008fbe:	f023 0307 	bic.w	r3, r3, #7
 8008fc2:	3308      	adds	r3, #8
 8008fc4:	9303      	str	r3, [sp, #12]
 8008fc6:	9b09      	ldr	r3, [sp, #36]	; 0x24
 8008fc8:	444b      	add	r3, r9
 8008fca:	9309      	str	r3, [sp, #36]	; 0x24
 8008fcc:	e76d      	b.n	8008eaa <_svfiprintf_r+0x4a>
 8008fce:	fb05 3202 	mla	r2, r5, r2, r3
 8008fd2:	2001      	movs	r0, #1
 8008fd4:	460f      	mov	r7, r1
 8008fd6:	e7a6      	b.n	8008f26 <_svfiprintf_r+0xc6>
 8008fd8:	2300      	movs	r3, #0
 8008fda:	3701      	adds	r7, #1
 8008fdc:	9305      	str	r3, [sp, #20]
 8008fde:	4619      	mov	r1, r3
 8008fe0:	250a      	movs	r5, #10
 8008fe2:	4638      	mov	r0, r7
 8008fe4:	f810 2b01 	ldrb.w	r2, [r0], #1
 8008fe8:	3a30      	subs	r2, #48	; 0x30
 8008fea:	2a09      	cmp	r2, #9
 8008fec:	d903      	bls.n	8008ff6 <_svfiprintf_r+0x196>
 8008fee:	2b00      	cmp	r3, #0
 8008ff0:	d0c8      	beq.n	8008f84 <_svfiprintf_r+0x124>
 8008ff2:	9105      	str	r1, [sp, #20]
 8008ff4:	e7c6      	b.n	8008f84 <_svfiprintf_r+0x124>
 8008ff6:	fb05 2101 	mla	r1, r5, r1, r2
 8008ffa:	2301      	movs	r3, #1
 8008ffc:	4607      	mov	r7, r0
 8008ffe:	e7f0      	b.n	8008fe2 <_svfiprintf_r+0x182>
 8009000:	ab03      	add	r3, sp, #12
 8009002:	9300      	str	r3, [sp, #0]
 8009004:	4622      	mov	r2, r4
 8009006:	4b11      	ldr	r3, [pc, #68]	; (800904c <_svfiprintf_r+0x1ec>)
 8009008:	a904      	add	r1, sp, #16
 800900a:	4640      	mov	r0, r8
 800900c:	f7fe f8dc 	bl	80071c8 <_printf_float>
 8009010:	f1b0 3fff 	cmp.w	r0, #4294967295
 8009014:	4681      	mov	r9, r0
 8009016:	d1d6      	bne.n	8008fc6 <_svfiprintf_r+0x166>
 8009018:	89a3      	ldrh	r3, [r4, #12]
 800901a:	065b      	lsls	r3, r3, #25
 800901c:	f53f af35 	bmi.w	8008e8a <_svfiprintf_r+0x2a>
 8009020:	9809      	ldr	r0, [sp, #36]	; 0x24
 8009022:	b01d      	add	sp, #116	; 0x74
 8009024:	e8bd 8ff0 	ldmia.w	sp!, {r4, r5, r6, r7, r8, r9, sl, fp, pc}
 8009028:	ab03      	add	r3, sp, #12
 800902a:	9300      	str	r3, [sp, #0]
 800902c:	4622      	mov	r2, r4
 800902e:	4b07      	ldr	r3, [pc, #28]	; (800904c <_svfiprintf_r+0x1ec>)
 8009030:	a904      	add	r1, sp, #16
 8009032:	4640      	mov	r0, r8
 8009034:	f7fe fb7e 	bl	8007734 <_printf_i>
 8009038:	e7ea      	b.n	8009010 <_svfiprintf_r+0x1b0>
 800903a:	bf00      	nop
 800903c:	0800bf14 	.word	0x0800bf14
 8009040:	0800bf1a 	.word	0x0800bf1a
 8009044:	0800bf1e 	.word	0x0800bf1e
 8009048:	080071c9 	.word	0x080071c9
 800904c:	08008dad 	.word	0x08008dad

08009050 <_sbrk_r>:
 8009050:	b538      	push	{r3, r4, r5, lr}
 8009052:	4c06      	ldr	r4, [pc, #24]	; (800906c <_sbrk_r+0x1c>)
 8009054:	2300      	movs	r3, #0
 8009056:	4605      	mov	r5, r0
 8009058:	4608      	mov	r0, r1
 800905a:	6023      	str	r3, [r4, #0]
 800905c:	f7f9 fdb6 	bl	8002bcc <_sbrk>
 8009060:	1c43      	adds	r3, r0, #1
 8009062:	d102      	bne.n	800906a <_sbrk_r+0x1a>
 8009064:	6823      	ldr	r3, [r4, #0]
 8009066:	b103      	cbz	r3, 800906a <_sbrk_r+0x1a>
 8009068:	602b      	str	r3, [r5, #0]
 800906a:	bd38      	pop	{r3, r4, r5, pc}
 800906c:	20000a24 	.word	0x20000a24

08009070 <__ascii_mbtowc>:
 8009070:	b082      	sub	sp, #8
 8009072:	b901      	cbnz	r1, 8009076 <__ascii_mbtowc+0x6>
 8009074:	a901      	add	r1, sp, #4
 8009076:	b142      	cbz	r2, 800908a <__ascii_mbtowc+0x1a>
 8009078:	b14b      	cbz	r3, 800908e <__ascii_mbtowc+0x1e>
 800907a:	7813      	ldrb	r3, [r2, #0]
 800907c:	600b      	str	r3, [r1, #0]
 800907e:	7812      	ldrb	r2, [r2, #0]
 8009080:	1c10      	adds	r0, r2, #0
 8009082:	bf18      	it	ne
 8009084:	2001      	movne	r0, #1
 8009086:	b002      	add	sp, #8
 8009088:	4770      	bx	lr
 800908a:	4610      	mov	r0, r2
 800908c:	e7fb      	b.n	8009086 <__ascii_mbtowc+0x16>
 800908e:	f06f 0001 	mvn.w	r0, #1
 8009092:	e7f8      	b.n	8009086 <__ascii_mbtowc+0x16>

08009094 <__malloc_lock>:
 8009094:	4770      	bx	lr

08009096 <__malloc_unlock>:
 8009096:	4770      	bx	lr

08009098 <_realloc_r>:
 8009098:	b5f8      	push	{r3, r4, r5, r6, r7, lr}
 800909a:	4607      	mov	r7, r0
 800909c:	4614      	mov	r4, r2
 800909e:	460e      	mov	r6, r1
 80090a0:	b921      	cbnz	r1, 80090ac <_realloc_r+0x14>
 80090a2:	4611      	mov	r1, r2
 80090a4:	e8bd 40f8 	ldmia.w	sp!, {r3, r4, r5, r6, r7, lr}
 80090a8:	f7ff be26 	b.w	8008cf8 <_malloc_r>
 80090ac:	b922      	cbnz	r2, 80090b8 <_realloc_r+0x20>
 80090ae:	f7ff fdd5 	bl	8008c5c <_free_r>
 80090b2:	4625      	mov	r5, r4
 80090b4:	4628      	mov	r0, r5
 80090b6:	bdf8      	pop	{r3, r4, r5, r6, r7, pc}
 80090b8:	f000 f821 	bl	80090fe <_malloc_usable_size_r>
 80090bc:	42a0      	cmp	r0, r4
 80090be:	d20f      	bcs.n	80090e0 <_realloc_r+0x48>
 80090c0:	4621      	mov	r1, r4
 80090c2:	4638      	mov	r0, r7
 80090c4:	f7ff fe18 	bl	8008cf8 <_malloc_r>
 80090c8:	4605      	mov	r5, r0
 80090ca:	2800      	cmp	r0, #0
 80090cc:	d0f2      	beq.n	80090b4 <_realloc_r+0x1c>
 80090ce:	4631      	mov	r1, r6
 80090d0:	4622      	mov	r2, r4
 80090d2:	f7ff facf 	bl	8008674 <memcpy>
 80090d6:	4631      	mov	r1, r6
 80090d8:	4638      	mov	r0, r7
 80090da:	f7ff fdbf 	bl	8008c5c <_free_r>
 80090de:	e7e9      	b.n	80090b4 <_realloc_r+0x1c>
 80090e0:	4635      	mov	r5, r6
 80090e2:	e7e7      	b.n	80090b4 <_realloc_r+0x1c>

080090e4 <__ascii_wctomb>:
 80090e4:	b149      	cbz	r1, 80090fa <__ascii_wctomb+0x16>
 80090e6:	2aff      	cmp	r2, #255	; 0xff
 80090e8:	bf85      	ittet	hi
 80090ea:	238a      	movhi	r3, #138	; 0x8a
 80090ec:	6003      	strhi	r3, [r0, #0]
 80090ee:	700a      	strbls	r2, [r1, #0]
 80090f0:	f04f 30ff 	movhi.w	r0, #4294967295
 80090f4:	bf98      	it	ls
 80090f6:	2001      	movls	r0, #1
 80090f8:	4770      	bx	lr
 80090fa:	4608      	mov	r0, r1
 80090fc:	4770      	bx	lr

080090fe <_malloc_usable_size_r>:
 80090fe:	f851 3c04 	ldr.w	r3, [r1, #-4]
 8009102:	1f18      	subs	r0, r3, #4
 8009104:	2b00      	cmp	r3, #0
 8009106:	bfbc      	itt	lt
 8009108:	580b      	ldrlt	r3, [r1, r0]
 800910a:	18c0      	addlt	r0, r0, r3
 800910c:	4770      	bx	lr
	...

08009110 <round>:
 8009110:	b5f8      	push	{r3, r4, r5, r6, r7, lr}
 8009112:	ec57 6b10 	vmov	r6, r7, d0
 8009116:	f3c7 500a 	ubfx	r0, r7, #20, #11
 800911a:	f2a0 34ff 	subw	r4, r0, #1023	; 0x3ff
 800911e:	2c13      	cmp	r4, #19
 8009120:	463b      	mov	r3, r7
 8009122:	463d      	mov	r5, r7
 8009124:	dc17      	bgt.n	8009156 <round+0x46>
 8009126:	2c00      	cmp	r4, #0
 8009128:	da09      	bge.n	800913e <round+0x2e>
 800912a:	3401      	adds	r4, #1
 800912c:	f007 4300 	and.w	r3, r7, #2147483648	; 0x80000000
 8009130:	d103      	bne.n	800913a <round+0x2a>
 8009132:	f043 537f 	orr.w	r3, r3, #1069547520	; 0x3fc00000
 8009136:	f443 1340 	orr.w	r3, r3, #3145728	; 0x300000
 800913a:	2100      	movs	r1, #0
 800913c:	e02c      	b.n	8009198 <round+0x88>
 800913e:	4a18      	ldr	r2, [pc, #96]	; (80091a0 <round+0x90>)
 8009140:	4122      	asrs	r2, r4
 8009142:	4217      	tst	r7, r2
 8009144:	d100      	bne.n	8009148 <round+0x38>
 8009146:	b19e      	cbz	r6, 8009170 <round+0x60>
 8009148:	f44f 2300 	mov.w	r3, #524288	; 0x80000
 800914c:	4123      	asrs	r3, r4
 800914e:	442b      	add	r3, r5
 8009150:	ea23 0302 	bic.w	r3, r3, r2
 8009154:	e7f1      	b.n	800913a <round+0x2a>
 8009156:	2c33      	cmp	r4, #51	; 0x33
 8009158:	dd0d      	ble.n	8009176 <round+0x66>
 800915a:	f5b4 6f80 	cmp.w	r4, #1024	; 0x400
 800915e:	d107      	bne.n	8009170 <round+0x60>
 8009160:	4630      	mov	r0, r6
 8009162:	4639      	mov	r1, r7
 8009164:	ee10 2a10 	vmov	r2, s0
 8009168:	f7f7 f890 	bl	800028c <__adddf3>
 800916c:	4606      	mov	r6, r0
 800916e:	460f      	mov	r7, r1
 8009170:	ec47 6b10 	vmov	d0, r6, r7
 8009174:	bdf8      	pop	{r3, r4, r5, r6, r7, pc}
 8009176:	f2a0 4213 	subw	r2, r0, #1043	; 0x413
 800917a:	f04f 30ff 	mov.w	r0, #4294967295
 800917e:	40d0      	lsrs	r0, r2
 8009180:	4206      	tst	r6, r0
 8009182:	d0f5      	beq.n	8009170 <round+0x60>
 8009184:	2201      	movs	r2, #1
 8009186:	f1c4 0433 	rsb	r4, r4, #51	; 0x33
 800918a:	fa02 f404 	lsl.w	r4, r2, r4
 800918e:	1931      	adds	r1, r6, r4
 8009190:	bf28      	it	cs
 8009192:	189b      	addcs	r3, r3, r2
 8009194:	ea21 0100 	bic.w	r1, r1, r0
 8009198:	461f      	mov	r7, r3
 800919a:	460e      	mov	r6, r1
 800919c:	e7e8      	b.n	8009170 <round+0x60>
 800919e:	bf00      	nop
 80091a0:	000fffff 	.word	0x000fffff

080091a4 <_init>:
 80091a4:	b5f8      	push	{r3, r4, r5, r6, r7, lr}
 80091a6:	bf00      	nop
 80091a8:	bcf8      	pop	{r3, r4, r5, r6, r7}
 80091aa:	bc08      	pop	{r3}
 80091ac:	469e      	mov	lr, r3
 80091ae:	4770      	bx	lr

080091b0 <_fini>:
 80091b0:	b5f8      	push	{r3, r4, r5, r6, r7, lr}
 80091b2:	bf00      	nop
 80091b4:	bcf8      	pop	{r3, r4, r5, r6, r7}
 80091b6:	bc08      	pop	{r3}
 80091b8:	469e      	mov	lr, r3
 80091ba:	4770      	bx	lr
